 sudokosolver

 Timestamp is 672e1745 (Fri Nov  8 19:21:01 2024)

 Preferred load address is 0000000140000000

 Start         Length     Name                   Class
 0001:00000000 00002530H .text                   CODE
 0001:00002530 00000023H .text$_ZN6System7Classes15TComponentClassC1EPNS_10TMetaClassE CODE
 0001:00002560 0000000eH .text$__clang_call_terminate CODE
 0001:00002570 00000023H .text$_ZN6System7Classes15TComponentClassC2EPNS_10TMetaClassE CODE
 0001:000025a0 0000001eH .text$_ZN6System15DelphiMetaClassINS_7Classes15TComponentClassEEC2EPNS_10TMetaClassE CODE
 0001:000025c0 00006f3aH .text                   CODE
 0001:00009500 00000075H .text$_ZN3Vcl5Forms5TFormC3EPN6System7Classes10TComponentE CODE
 0001:00009580 00000019H .text$_ZNSt3__16vectorINS0_IiNS_9allocatorIiEEEENS1_IS3_EEEC1B6v15007Ev CODE
 0001:000095a0 0000002dH .text$_ZNSt3__16vectorIiNS_9allocatorIiEEEC1EyRKi CODE
 0001:000095d0 0000002dH .text$_ZNSt3__16vectorINS0_IiNS_9allocatorIiEEEENS1_IS3_EEEC1EyRKS3_ CODE
 0001:00009600 00000031H .text$_ZNSt3__16vectorINS0_IiNS_9allocatorIiEEEENS1_IS3_EEEaSB6v15007EOS5_ CODE
 0001:00009640 00000019H .text$_ZNSt3__16vectorINS0_IiNS_9allocatorIiEEEENS1_IS3_EEED1B6v15007Ev CODE
 0001:00009660 00000019H .text$_ZNSt3__16vectorIiNS_9allocatorIiEEED1B6v15007Ev CODE
 0001:00009680 0000004cH .text$_ZN3Vcl5Forms5TFormD0Ev CODE
 0001:000096d0 00000070H .text$_ZNSt3__113random_deviceC1Ev CODE
 0001:00009740 00000021H .text$_ZNSt3__123mersenne_twister_engineIjLy32ELy624ELy397ELy31ELj2567483615ELy11ELj4294967295ELy7ELj2636928640ELy15ELj4022730752ELy18ELj1812433253EEC1B6v15007Ej CODE
 0001:00009770 0000002bH .text$_ZNSt3__124uniform_int_distributionIiEC1Eii CODE
 0001:000097a0 00000030H .text$_ZNKSt3__18functionIFbiiEEclEii CODE
 0001:000097d0 00000019H .text$_ZNSt3__18functionIFbiiEED1Ev CODE
 0001:000097f0 00000023H .text$_ZNSt3__16vectorINS_13unordered_setIiNS_4hashIiEENS_8equal_toIiEENS_9allocatorIiEEEENS6_IS8_EEEC1Ey CODE
 0001:00009820 00000019H .text$_ZNSt3__16vectorINS_4pairIiiEENS_9allocatorIS2_EEEC1B6v15007Ev CODE
 0001:00009840 00000060H .text$_ZNSt3__16vectorINS_4pairIiiEENS_9allocatorIS2_EEE9push_backB6v15007EOS2_ CODE
 0001:000098a0 0000002dH .text$_ZNSt3__14pairIiiEC1B6v15007IRiS3_LPv0EEEOT_OT0_ CODE
 0001:000098d0 00000045H .text$_ZNSt3__17shuffleINS_11__wrap_iterIPNS_4pairIiiEEEERNS_23mersenne_twister_engineIjLy32ELy624ELy397ELy31ELj2567483615ELy11ELj4294967295ELy7ELj2636928640ELy15ELj4022730752ELy18ELj1812433253EEEEEvT_S9_OT0_ CODE
 0001:00009920 00000025H .text$_ZNSt3__16vectorINS_4pairIiiEENS_9allocatorIS2_EEE5beginB6v15007Ev CODE
 0001:00009950 00000026H .text$_ZNSt3__16vectorINS_4pairIiiEENS_9allocatorIS2_EEE3endB6v15007Ev CODE
 0001:00009980 00000025H .text$_ZNSt3__16vectorINS_4pairIiiEENS_9allocatorIS2_EEEixB6v15007Ey CODE
 0001:000099b0 00000022H .text$_ZNSt3__16vectorINS0_IiNS_9allocatorIiEEEENS1_IS3_EEEixB6v15007Ey CODE
 0001:000099e0 00000025H .text$_ZNSt3__16vectorIiNS_9allocatorIiEEEixB6v15007Ey CODE
 0001:00009a10 00000019H .text$_ZNSt3__16vectorINS_4pairIiiEENS_9allocatorIS2_EEED1B6v15007Ev CODE
 0001:00009a30 00000019H .text$_ZNSt3__16vectorINS_13unordered_setIiNS_4hashIiEENS_8equal_toIiEENS_9allocatorIiEEEENS6_IS8_EEED1B6v15007Ev CODE
 0001:00009a50 00000029H .text$_ZNSt3__1eqB6v15007ERKNS_21__hash_const_iteratorIPNS_11__hash_nodeIiPvEEEES7_ CODE
 0001:00009a80 00000022H .text$_ZNSt3__16vectorINS_13unordered_setIiNS_4hashIiEENS_8equal_toIiEENS_9allocatorIiEEEENS6_IS8_EEEixB6v15007Ey CODE
 0001:00009ab0 0000003bH .text$_ZNSt3__113unordered_setIiNS_4hashIiEENS_8equal_toIiEENS_9allocatorIiEEE4findB6v15007ERKi CODE
 0001:00009af0 00000031H .text$_ZNSt3__113unordered_setIiNS_4hashIiEENS_8equal_toIiEENS_9allocatorIiEEE3endB6v15007Ev CODE
 0001:00009b30 00000022H .text$_ZNSt3__16vectorINS0_INS_3setIiNS_4lessIiEENS_9allocatorIiEEEENS4_IS6_EEEENS4_IS8_EEEixB6v15007Ey CODE
 0001:00009b60 00000022H .text$_ZNSt3__16vectorINS_3setIiNS_4lessIiEENS_9allocatorIiEEEENS4_IS6_EEEixB6v15007Ey CODE
 0001:00009b90 0000004dH .text$_ZNSt3__13setIiNS_4lessIiEENS_9allocatorIiEEE6insertB6v15007ERKi CODE
 0001:00009be0 0000004dH .text$_ZNSt3__113unordered_setIiNS_4hashIiEENS_8equal_toIiEENS_9allocatorIiEEE6insertB6v15007ERKi CODE
 0001:00009c30 00000023H .text$_ZNSt3__13setIiNS_4lessIiEENS_9allocatorIiEEE5eraseB6v15007ERKi CODE
 0001:00009c60 00000023H .text$_ZNSt3__113unordered_setIiNS_4hashIiEENS_8equal_toIiEENS_9allocatorIiEEE5eraseB6v15007ERKi CODE
 0001:00009c90 0000002dH .text$_ZNSt3__14pairIiiEC1B6v15007IiiLPv0EEEOT_OT0_ CODE
 0001:00009cc0 0000001bH .text$_ZNKSt3__13setIiNS_4lessIiEENS_9allocatorIiEEE4sizeB6v15007Ev CODE
 0001:00009ce0 00000029H .text$_ZNSt3__14pairIiiEaSB6v15007EOS1_ CODE
 0001:00009d10 00000019H .text$_ZNSt3__113unordered_setIiNS_4hashIiEENS_8equal_toIiEENS_9allocatorIiEEEC1B6v15007Ev CODE
 0001:00009d30 00000022H .text$_ZNKSt3__16vectorINS0_IiNS_9allocatorIiEEEENS1_IS3_EEEixB6v15007Ey CODE
 0001:00009d60 00000025H .text$_ZNKSt3__16vectorIiNS_9allocatorIiEEEixB6v15007Ey CODE
 0001:00009d90 00000029H .text$_ZNSt3__1neB6v15007ERKNS_21__hash_const_iteratorIPNS_11__hash_nodeIiPvEEEES7_ CODE
 0001:00009dc0 00000019H .text$_ZNSt3__113unordered_setIiNS_4hashIiEENS_8equal_toIiEENS_9allocatorIiEEED1B6v15007Ev CODE
 0001:00009de0 00000019H .text$_ZNKSt3__112basic_stringIcNS_11char_traitsIcEENS_9allocatorIcEEE5c_strB6v15007Ev CODE
 0001:00009e00 00000031H .text$_ZNSt3__13setIiNS_4lessIiEENS_9allocatorIiEEE5beginB6v15007Ev CODE
 0001:00009e40 00000031H .text$_ZNSt3__13setIiNS_4lessIiEENS_9allocatorIiEEE3endB6v15007Ev CODE
 0001:00009e80 00000029H .text$_ZNSt3__1neB6v15007ERKNS_21__tree_const_iteratorIiPNS_11__tree_nodeIiPvEExEES7_ CODE
 0001:00009eb0 0000001cH .text$_ZNKSt3__121__tree_const_iteratorIiPNS_11__tree_nodeIiPvEExEdeB6v15007Ev CODE
 0001:00009ed0 0000002bH .text$_ZNSt3__121__tree_const_iteratorIiPNS_11__tree_nodeIiPvEExEppB6v15007Ev CODE
 0001:00009f00 00000019H .text$_ZNSt3__114priority_queueI4CellNS_6vectorIS1_NS_9allocatorIS1_EEEENS_4lessIS1_EEEC1B6v15007Ev CODE
 0001:00009f20 0000005aH .text$_ZNSt3__114priority_queueI4CellNS_6vectorIS1_NS_9allocatorIS1_EEEENS_4lessIS1_EEE4pushEOS1_ CODE
 0001:00009f80 0000001dH .text$_ZNKSt3__114priority_queueI4CellNS_6vectorIS1_NS_9allocatorIS1_EEEENS_4lessIS1_EEE5emptyB6v15007Ev CODE
 0001:00009fa0 00000019H .text$_ZNKSt3__114priority_queueI4CellNS_6vectorIS1_NS_9allocatorIS1_EEEENS_4lessIS1_EEE3topB6v15007Ev CODE
 0001:00009fc0 00000050H .text$_ZNSt3__114priority_queueI4CellNS_6vectorIS1_NS_9allocatorIS1_EEEENS_4lessIS1_EEE3popEv CODE
 0001:0000a010 00000019H .text$_ZNSt3__114priority_queueI4CellNS_6vectorIS1_NS_9allocatorIS1_EEEENS_4lessIS1_EEED1Ev CODE
 0001:0000a030 00000019H .text$_ZNSt3__15queueI5StateNS_5dequeIS1_NS_9allocatorIS1_EEEEEC1B6v15007Ev CODE
 0001:0000a050 00000023H .text$_ZNSt3__15queueI5StateNS_5dequeIS1_NS_9allocatorIS1_EEEEE4pushB6v15007EOS1_ CODE
 0001:0000a080 00000023H .text$_ZNSt3__16vectorINS0_IiNS_9allocatorIiEEEENS1_IS3_EEEC1ERKS5_ CODE
 0001:0000a0b0 0000002dH .text$_ZN5StateC1ENSt3__16vectorINS1_IiNS0_9allocatorIiEEEENS2_IS4_EEEEii CODE
 0001:0000a0e0 00000019H .text$_ZN5StateD1Ev     CODE
 0001:0000a100 0000001dH .text$_ZNKSt3__15queueI5StateNS_5dequeIS1_NS_9allocatorIS1_EEEEE5emptyB6v15007Ev CODE
 0001:0000a120 00000019H .text$_ZNSt3__15queueI5StateNS_5dequeIS1_NS_9allocatorIS1_EEEEE5frontB6v15007Ev CODE
 0001:0000a140 00000023H .text$_ZN5StateC1ERKS_  CODE
 0001:0000a170 00000019H .text$_ZNSt3__15queueI5StateNS_5dequeIS1_NS_9allocatorIS1_EEEEE3popB6v15007Ev CODE
 0001:0000a190 00000057H .text$_ZNSt3__16vectorINS0_IiNS_9allocatorIiEEEENS1_IS3_EEEaSB6v15007ERKS5_ CODE
 0001:0000a1f0 00000044H .text$_ZNSt3__1lsINS_11char_traitsIcEEEERNS_13basic_ostreamIcT_EES6_PKc CODE
 0001:0000a240 0000001dH .text$_ZNSt3__113basic_ostreamIcNS_11char_traitsIcEEElsB6v15007EPFRS3_S4_E CODE
 0001:0000a260 00000049H .text$_ZNSt3__14endlIcNS_11char_traitsIcEEEERNS_13basic_ostreamIT_T0_EES7_ CODE
 0001:0000a2b0 00000019H .text$_ZNSt3__15queueI5StateNS_5dequeIS1_NS_9allocatorIS1_EEEEED1Ev CODE
 0001:0000a2d0 00000023H .text$_ZNSt3__16vectorINS_3setIiNS_4lessIiEENS_9allocatorIiEEEENS4_IS6_EEEC1Ey CODE
 0001:0000a300 0000002dH .text$_ZNSt3__16vectorINS0_INS_3setIiNS_4lessIiEENS_9allocatorIiEEEENS4_IS6_EEEENS4_IS8_EEEC1EyRKS8_ CODE
 0001:0000a330 00000019H .text$_ZNSt3__16vectorINS_3setIiNS_4lessIiEENS_9allocatorIiEEEENS4_IS6_EEED1B6v15007Ev CODE
 0001:0000a350 00000019H .text$_ZNSt3__16vectorINS0_INS_3setIiNS_4lessIiEENS_9allocatorIiEEEENS4_IS6_EEEENS4_IS8_EEED1B6v15007Ev CODE
 0001:0000a370 00000017H .text$_ZNK6System13UnicodeString7IsEmptyEv CODE
 0001:0000a390 0000005dH .text$_ZN6TForm1D0Ev    CODE
 0001:0000a3f0 0000007fH .text$_ZN3Vcl5Forms5TFormC3EPN6System7Classes10TComponentEi CODE
 0001:0000a470 00000091H .text$_ZN3Vcl5Forms5TFormC3EPN6System7Classes10TComponentEii CODE
 0001:0000a510 00000023H .text$_ZNSt3__112basic_stringIcNS_11char_traitsIcEENS_9allocatorIcEEEC1B6v15007IDnEEPKc CODE
 0001:0000a540 0000005dH .text$_ZNSt3__112basic_stringIcNS_11char_traitsIcEENS_9allocatorIcEEEC2B6v15007IDnEEPKc CODE
 0001:0000a5a0 0000002dH .text$_ZNSt3__117__compressed_pairINS_12basic_stringIcNS_11char_traitsIcEENS_9allocatorIcEEE5__repES5_EC1B6v15007INS_18__default_init_tagESA_EEOT_OT0_ CODE
 0001:0000a5d0 00000019H .text$_ZNSt3__111char_traitsIcE6lengthEPKc CODE
 0001:0000a5f0 00000007H .text$_ZNSt3__119__debug_db_insert_cB6v15007INS_12basic_stringIcNS_11char_traitsIcEENS_9allocatorIcEEEEEEvPT_ CODE
 0001:0000a600 0000003aH .text$_ZNSt3__117__compressed_pairINS_12basic_stringIcNS_11char_traitsIcEENS_9allocatorIcEEE5__repES5_EC2B6v15007INS_18__default_init_tagESA_EEOT_OT0_ CODE
 0001:0000a640 00000011H .text$_ZNSt3__122__compressed_pair_elemINS_12basic_stringIcNS_11char_traitsIcEENS_9allocatorIcEEE5__repELi0ELb0EEC2B6v15007ENS_18__default_init_tagE CODE
 0001:0000a660 0000001dH .text$_ZNSt3__122__compressed_pair_elemINS_9allocatorIcEELi1ELb1EEC2B6v15007ENS_18__default_init_tagE CODE
 0001:0000a680 00000019H .text$_ZNSt3__19allocatorIcEC2B6v15007Ev CODE
 0001:0000a6a0 00000007H .text$_ZNSt3__116__non_trivial_ifILb1ENS_9allocatorIcEEEC2B6v15007Ev CODE
 0001:0000a6b0 0000002eH .text$_ZNSt3__14pairIiiEC2B6v15007IRiS3_LPv0EEEOT_OT0_ CODE
 0001:0000a6e0 0000002eH .text$_ZNSt3__14pairIiiEC2B6v15007IiiLPv0EEEOT_OT0_ CODE
 0001:0000a710 00000019H .text$_ZNSt3__114priority_queueI4CellNS_6vectorIS1_NS_9allocatorIS1_EEEENS_4lessIS1_EEED2Ev CODE
 0001:0000a730 00000019H .text$_ZNSt3__16vectorI4CellNS_9allocatorIS1_EEED1B6v15007Ev CODE
 0001:0000a750 0000003aH .text$_ZNSt3__16vectorI4CellNS_9allocatorIS1_EEED2B6v15007Ev CODE
 0001:0000a790 00000023H .text$_ZNSt3__16vectorI4CellNS_9allocatorIS1_EEE16__destroy_vectorC1ERS4_ CODE
 0001:0000a7c0 0000008cH .text$_ZNSt3__16vectorI4CellNS_9allocatorIS1_EEE16__destroy_vectorclB6v15007Ev CODE
 0001:0000a850 0000001eH .text$_ZNSt3__16vectorI4CellNS_9allocatorIS1_EEE16__destroy_vectorC2ERS4_ CODE
 0001:0000a870 000000c3H .text$_ZNKSt3__16vectorI4CellNS_9allocatorIS1_EEE17__annotate_deleteB6v15007Ev CODE
 0001:0000a940 00000007H .text$_ZNSt3__118__debug_db_erase_cB6v15007INS_6vectorI4CellNS_9allocatorIS2_EEEEEEvPT_ CODE
 0001:0000a950 0000001cH .text$_ZNSt3__16vectorI4CellNS_9allocatorIS1_EEE7__clearB6v15007Ev CODE
 0001:0000a970 0000002dH .text$_ZNSt3__116allocator_traitsINS_9allocatorI4CellEEE10deallocateB6v15007ERS3_PS2_y CODE
 0001:0000a9a0 0000001dH .text$_ZNSt3__16vectorI4CellNS_9allocatorIS1_EEE7__allocB6v15007Ev CODE
 0001:0000a9c0 00000035H .text$_ZNKSt3__16vectorI4CellNS_9allocatorIS1_EEE8capacityB6v15007Ev CODE
 0001:0000aa00 00000021H .text$_ZNKSt3__16vectorI4CellNS_9allocatorIS1_EEE31__annotate_contiguous_containerB6v15007EPKvS6_S6_S6_ CODE
 0001:0000aa30 0000001cH .text$_ZNKSt3__16vectorI4CellNS_9allocatorIS1_EEE4dataB6v15007Ev CODE
 0001:0000aa50 0000001fH .text$_ZNKSt3__16vectorI4CellNS_9allocatorIS1_EEE4sizeB6v15007Ev CODE
 0001:0000aa70 0000000bH .text$_ZNSt3__112__to_addressB6v15007I4CellEEPT_S3_ CODE
 0001:0000aa80 00000086H .text$_ZNSt3__16vectorI4CellNS_9allocatorIS1_EEE22__base_destruct_at_endB6v15007EPS1_ CODE
 0001:0000ab10 00000023H .text$_ZNSt3__116allocator_traitsINS_9allocatorI4CellEEE7destroyB6v15007IS2_vEEvRS3_PT_ CODE
 0001:0000ab40 00000012H .text$_ZNSt3__19allocatorI4CellE7destroyB6v15007EPS1_ CODE
 0001:0000ab60 00000043H .text$_ZNSt3__19allocatorI4CellE10deallocateB6v15007EPS1_y CODE
 0001:0000abb0 00000062H .text$_ZNSt3__119__libcpp_deallocateB6v15007EPvyy CODE
 0001:0000ac20 00000014H .text$_ZNSt3__124__is_overaligned_for_newB6v15007Ey CODE
 0001:0000ac40 00000028H .text$_ZNSt3__127__do_deallocate_handle_sizeB6v15007IJSt11align_val_tEEEvPvyDpT_ CODE
 0001:0000ac70 0000001eH .text$_ZNSt3__127__do_deallocate_handle_sizeB6v15007IJEEEvPvyDpT_ CODE
 0001:0000ac90 00000023H .text$_ZNSt3__124__libcpp_operator_deleteB6v15007IJPvSt11align_val_tEEEvDpT_ CODE
 0001:0000acc0 00000019H .text$_ZNSt3__124__libcpp_operator_deleteB6v15007IJPvEEEvDpT_ CODE
 0001:0000ace0 00000019H .text$_ZNSt3__117__compressed_pairIP4CellNS_9allocatorIS1_EEE6secondB6v15007Ev CODE
 0001:0000ad00 0000000bH .text$_ZNSt3__122__compressed_pair_elemINS_9allocatorI4CellEELi1ELb1EE5__getB6v15007Ev CODE
 0001:0000ad10 0000001dH .text$_ZNKSt3__16vectorI4CellNS_9allocatorIS1_EEE9__end_capB6v15007Ev CODE
 0001:0000ad30 00000019H .text$_ZNKSt3__117__compressed_pairIP4CellNS_9allocatorIS1_EEE5firstB6v15007Ev CODE
 0001:0000ad50 0000000bH .text$_ZNKSt3__122__compressed_pair_elemIP4CellLi0ELb0EE5__getB6v15007Ev CODE
 0001:0000ad60 0000003aH .text$_ZN5StateC2ENSt3__16vectorINS1_IiNS0_9allocatorIiEEEENS2_IS4_EEEEii CODE
 0001:0000ada0 00000019H .text$_ZN5StateD2Ev     CODE
 0001:0000adc0 00000039H .text$_ZN5StateC2ERKS_  CODE
 0001:0000ae00 00000019H .text$_ZNSt3__15queueI5StateNS_5dequeIS1_NS_9allocatorIS1_EEEEED2Ev CODE
 0001:0000ae20 00000019H .text$_ZNSt3__15dequeI5StateNS_9allocatorIS1_EEED1Ev CODE
 0001:0000ae40 00000019H .text$_ZNSt3__15dequeI5StateNS_9allocatorIS1_EEED2Ev CODE
 0001:0000ae60 0000009eH .text$_ZNSt3__112__deque_baseI5StateNS_9allocatorIS1_EEED2Ev CODE
 0001:0000af00 000001d5H .text$_ZNSt3__112__deque_baseI5StateNS_9allocatorIS1_EEE5clearEv CODE
 0001:0000b0e0 0000000fH .text$_ZNSt3__114__split_bufferIP5StateNS_9allocatorIS2_EEE5beginB6v15007Ev CODE
 0001:0000b0f0 0000000fH .text$_ZNSt3__114__split_bufferIP5StateNS_9allocatorIS2_EEE3endB6v15007Ev CODE
 0001:0000b100 0000002dH .text$_ZNSt3__116allocator_traitsINS_9allocatorI5StateEEE10deallocateB6v15007ERS3_PS2_y CODE
 0001:0000b130 0000001dH .text$_ZNSt3__112__deque_baseI5StateNS_9allocatorIS1_EEE7__allocB6v15007Ev CODE
 0001:0000b150 00000019H .text$_ZNSt3__114__split_bufferIP5StateNS_9allocatorIS2_EEED1Ev CODE
 0001:0000b170 000000bdH .text$_ZNSt3__112__deque_baseI5StateNS_9allocatorIS1_EEE5beginEv CODE
 0001:0000b230 000000d5H .text$_ZNSt3__112__deque_baseI5StateNS_9allocatorIS1_EEE3endEv CODE
 0001:0000b310 00000029H .text$_ZNSt3__1neB6v15007ERKNS_16__deque_iteratorI5StatePS1_RS1_PS2_xLx128EEES7_ CODE
 0001:0000b340 00000023H .text$_ZNSt3__116allocator_traitsINS_9allocatorI5StateEEE7destroyB6v15007IS2_vEEvRS3_PT_ CODE
 0001:0000b370 0000000fH .text$_ZNKSt3__116__deque_iteratorI5StatePS1_RS1_PS2_xLx128EEdeB6v15007Ev CODE
 0001:0000b380 00000058H .text$_ZNSt3__116__deque_iteratorI5StatePS1_RS1_PS2_xLx128EEppB6v15007Ev CODE
 0001:0000b3e0 0000001dH .text$_ZNSt3__112__deque_baseI5StateNS_9allocatorIS1_EEE4sizeB6v15007Ev CODE
 0001:0000b400 0000001aH .text$_ZNKSt3__114__split_bufferIP5StateNS_9allocatorIS2_EEE4sizeB6v15007Ev CODE
 0001:0000b420 0000000fH .text$_ZNSt3__114__split_bufferIP5StateNS_9allocatorIS2_EEE5frontB6v15007Ev CODE
 0001:0000b430 00000021H .text$_ZNSt3__114__split_bufferIP5StateNS_9allocatorIS2_EEE9pop_frontB6v15007Ev CODE
 0001:0000b460 0000001bH .text$_ZNKSt3__114__split_bufferIP5StateNS_9allocatorIS2_EEE5emptyB6v15007Ev CODE
 0001:0000b480 0000002dH .text$_ZNSt3__116__deque_iteratorI5StatePS1_RS1_PS2_xLx128EEC1B6v15007ES4_S2_ CODE
 0001:0000b4b0 0000002cH .text$_ZNSt3__116__deque_iteratorI5StatePS1_RS1_PS2_xLx128EEC2B6v15007ES4_S2_ CODE
 0001:0000b4e0 0000002bH .text$_ZNSt3__1eqB6v15007ERKNS_16__deque_iteratorI5StatePS1_RS1_PS2_xLx128EEES7_ CODE
 0001:0000b510 0000001eH .text$_ZNSt3__19allocatorI5StateE7destroyB6v15007EPS1_ CODE
 0001:0000b530 00000019H .text$_ZNSt3__117__compressed_pairIyNS_9allocatorI5StateEEE5firstB6v15007Ev CODE
 0001:0000b550 0000000bH .text$_ZNSt3__122__compressed_pair_elemIyLi0ELb0EE5__getB6v15007Ev CODE
 0001:0000b560 00000028H .text$_ZNSt3__114__split_bufferIP5StateNS_9allocatorIS2_EEE19__destruct_at_beginB6v15007EPS2_ CODE
 0001:0000b590 00000024H .text$_ZNSt3__114__split_bufferIP5StateNS_9allocatorIS2_EEE19__destruct_at_beginEPS2_NS_17integral_constantIbLb1EEE CODE
 0001:0000b5c0 0000003fH .text$_ZNSt3__19allocatorI5StateE10deallocateB6v15007EPS1_y CODE
 0001:0000b600 00000019H .text$_ZNSt3__117__compressed_pairIyNS_9allocatorI5StateEEE6secondB6v15007Ev CODE
 0001:0000b620 0000000bH .text$_ZNSt3__122__compressed_pair_elemINS_9allocatorI5StateEELi1ELb1EE5__getB6v15007Ev CODE
 0001:0000b630 00000075H .text$_ZNSt3__114__split_bufferIP5StateNS_9allocatorIS2_EEED2Ev CODE
 0001:0000b6b0 0000001dH .text$_ZNSt3__114__split_bufferIP5StateNS_9allocatorIS2_EEE5clearB6v15007Ev CODE
 0001:0000b6d0 0000002dH .text$_ZNSt3__116allocator_traitsINS_9allocatorIP5StateEEE10deallocateB6v15007ERS4_PS3_y CODE
 0001:0000b700 0000001dH .text$_ZNSt3__114__split_bufferIP5StateNS_9allocatorIS2_EEE7__allocB6v15007Ev CODE
 0001:0000b720 0000002fH .text$_ZNKSt3__114__split_bufferIP5StateNS_9allocatorIS2_EEE8capacityB6v15007Ev CODE
 0001:0000b750 00000028H .text$_ZNSt3__114__split_bufferIP5StateNS_9allocatorIS2_EEE17__destruct_at_endB6v15007EPS2_ CODE
 0001:0000b780 0000007eH .text$_ZNSt3__114__split_bufferIP5StateNS_9allocatorIS2_EEE17__destruct_at_endB6v15007EPS2_NS_17integral_constantIbLb0EEE CODE
 0001:0000b800 00000023H .text$_ZNSt3__116allocator_traitsINS_9allocatorIP5StateEEE7destroyB6v15007IS3_vEEvRS4_PT_ CODE
 0001:0000b830 0000000bH .text$_ZNSt3__112__to_addressB6v15007IP5StateEEPT_S4_ CODE
 0001:0000b840 00000012H .text$_ZNSt3__19allocatorIP5StateE7destroyB6v15007EPS2_ CODE
 0001:0000b860 0000003fH .text$_ZNSt3__19allocatorIP5StateE10deallocateB6v15007EPS2_y CODE
 0001:0000b8a0 00000019H .text$_ZNSt3__117__compressed_pairIPP5StateNS_9allocatorIS2_EEE6secondB6v15007Ev CODE
 0001:0000b8c0 0000000bH .text$_ZNSt3__122__compressed_pair_elemINS_9allocatorIP5StateEELi1ELb1EE5__getB6v15007Ev CODE
 0001:0000b8d0 0000001dH .text$_ZNKSt3__114__split_bufferIP5StateNS_9allocatorIS2_EEE9__end_capB6v15007Ev CODE
 0001:0000b8f0 00000019H .text$_ZNKSt3__117__compressed_pairIPP5StateNS_9allocatorIS2_EEE5firstB6v15007Ev CODE
 0001:0000b910 0000000bH .text$_ZNKSt3__122__compressed_pair_elemIPP5StateLi0ELb0EE5__getB6v15007Ev CODE
 0001:0000b920 00000021H .text$_ZNKSt3__112basic_stringIcNS_11char_traitsIcEENS_9allocatorIcEEE4dataB6v15007Ev CODE
 0001:0000b950 0000000bH .text$_ZNSt3__112__to_addressB6v15007IKcEEPT_S3_ CODE
 0001:0000b960 00000052H .text$_ZNKSt3__112basic_stringIcNS_11char_traitsIcEENS_9allocatorIcEEE13__get_pointerB6v15007Ev CODE
 0001:0000b9c0 00000026H .text$_ZNKSt3__112basic_stringIcNS_11char_traitsIcEENS_9allocatorIcEEE9__is_longB6v15007Ev CODE
 0001:0000b9f0 0000001cH .text$_ZNKSt3__112basic_stringIcNS_11char_traitsIcEENS_9allocatorIcEEE18__get_long_pointerB6v15007Ev CODE
 0001:0000ba10 00000025H .text$_ZNKSt3__112basic_stringIcNS_11char_traitsIcEENS_9allocatorIcEEE19__get_short_pointerB6v15007Ev CODE
 0001:0000ba40 00000019H .text$_ZNKSt3__117__compressed_pairINS_12basic_stringIcNS_11char_traitsIcEENS_9allocatorIcEEE5__repES5_E5firstB6v15007Ev CODE
 0001:0000ba60 0000000bH .text$_ZNKSt3__122__compressed_pair_elemINS_12basic_stringIcNS_11char_traitsIcEENS_9allocatorIcEEE5__repELi0ELb0EE5__getB6v15007Ev CODE
 0001:0000ba70 0000000bH .text$_ZNSt3__114pointer_traitsIPKcE10pointer_toB6v15007ERS1_ CODE
 0001:0000ba80 00000266H .text$_ZNSt3__124__put_character_sequenceIcNS_11char_traitsIcEEEERNS_13basic_ostreamIT_T0_EES7_PKS4_y CODE
 0001:0000bcf0 00000023H .text$_ZNSt3__113basic_ostreamIcNS_11char_traitsIcEEE6sentryC1ERS3_ CODE
 0001:0000bd20 00000012H .text$_ZNKSt3__113basic_ostreamIcNS_11char_traitsIcEEE6sentrycvbB6v15007Ev CODE
 0001:0000bd40 000002acH .text$_ZNSt3__116__pad_and_outputIcNS_11char_traitsIcEEEENS_19ostreambuf_iteratorIT_T0_EES6_PKS4_S8_S8_RNS_8ios_baseES4_ CODE
 0001:0000bff0 00000023H .text$_ZNSt3__119ostreambuf_iteratorIcNS_11char_traitsIcEEEC1B6v15007ERNS_13basic_ostreamIcS2_EE CODE
 0001:0000c020 0000000eH .text$_ZNKSt3__18ios_base5flagsB6v15007Ev CODE
 0001:0000c030 00000066H .text$_ZNKSt3__19basic_iosIcNS_11char_traitsIcEEE4fillB6v15007Ev CODE
 0001:0000c0a0 00000017H .text$_ZNKSt3__119ostreambuf_iteratorIcNS_11char_traitsIcEEE6failedB6v15007Ev CODE
 0001:0000c0c0 00000021H .text$_ZNSt3__19basic_iosIcNS_11char_traitsIcEEE8setstateB6v15007Ej CODE
 0001:0000c0f0 00000019H .text$_ZNSt3__113basic_ostreamIcNS_11char_traitsIcEEE6sentryD1Ev CODE
 0001:0000c110 00000083H .text$_ZNSt3__113basic_ostreamIcNS_11char_traitsIcEEE6sentryC2ERS3_ CODE
 0001:0000c1a0 0000001dH .text$_ZNKSt3__19basic_iosIcNS_11char_traitsIcEEE4goodB6v15007Ev CODE
 0001:0000c1c0 00000012H .text$_ZNKSt3__19basic_iosIcNS_11char_traitsIcEEE3tieB6v15007Ev CODE
 0001:0000c1e0 00000017H .text$_ZNKSt3__18ios_base4goodB6v15007Ev CODE
 0001:0000c200 0000000fH .text$_ZNKSt3__18ios_base5widthB6v15007Ev CODE
 0001:0000c210 0000002eH .text$_ZNSt3__115basic_streambufIcNS_11char_traitsIcEEE5sputnB6v15007EPKcx CODE
 0001:0000c240 0000002dH .text$_ZNSt3__112basic_stringIcNS_11char_traitsIcEENS_9allocatorIcEEEC1B6v15007Eyc CODE
 0001:0000c270 00000021H .text$_ZNSt3__112basic_stringIcNS_11char_traitsIcEENS_9allocatorIcEEE4dataB6v15007Ev CODE
 0001:0000c2a0 0000002dH .text$_ZNSt3__18ios_base5widthB6v15007Ex CODE
 0001:0000c2d0 00000050H .text$_ZNSt3__112basic_stringIcNS_11char_traitsIcEENS_9allocatorIcEEEC2B6v15007Eyc CODE
 0001:0000c320 0000000bH .text$_ZNSt3__112__to_addressB6v15007IcEEPT_S2_ CODE
 0001:0000c330 00000052H .text$_ZNSt3__112basic_stringIcNS_11char_traitsIcEENS_9allocatorIcEEE13__get_pointerB6v15007Ev CODE
 0001:0000c390 0000001cH .text$_ZNSt3__112basic_stringIcNS_11char_traitsIcEENS_9allocatorIcEEE18__get_long_pointerB6v15007Ev CODE
 0001:0000c3b0 00000025H .text$_ZNSt3__112basic_stringIcNS_11char_traitsIcEENS_9allocatorIcEEE19__get_short_pointerB6v15007Ev CODE
 0001:0000c3e0 00000019H .text$_ZNSt3__117__compressed_pairINS_12basic_stringIcNS_11char_traitsIcEENS_9allocatorIcEEE5__repES5_E5firstB6v15007Ev CODE
 0001:0000c400 0000000bH .text$_ZNSt3__122__compressed_pair_elemINS_12basic_stringIcNS_11char_traitsIcEENS_9allocatorIcEEE5__repELi0ELb0EE5__getB6v15007Ev CODE
 0001:0000c410 0000000bH .text$_ZNSt3__114pointer_traitsIPcE10pointer_toB6v15007ERc CODE
 0001:0000c420 00000051H .text$_ZNSt3__119ostreambuf_iteratorIcNS_11char_traitsIcEEEC2B6v15007ERNS_13basic_ostreamIcS2_EE CODE
 0001:0000c480 00000019H .text$_ZNKSt3__19basic_iosIcNS_11char_traitsIcEEE5rdbufB6v15007Ev CODE
 0001:0000c4a0 0000000fH .text$_ZNKSt3__18ios_base5rdbufB6v15007Ev CODE
 0001:0000c4b0 00000019H .text$_ZNSt3__111char_traitsIcE11eq_int_typeEii CODE
 0001:0000c4d0 00000006H .text$_ZNSt3__111char_traitsIcE3eofEv CODE
 0001:0000c4e0 00000082H .text$_ZNKSt3__19basic_iosIcNS_11char_traitsIcEEE5widenB6v15007Ec CODE
 0001:0000c570 00000020H .text$_ZNSt3__19use_facetB6v15007INS_5ctypeIcEEEERKT_RKNS_6localeE CODE
 0001:0000c590 00000022H .text$_ZNKSt3__15ctypeIcE5widenB6v15007Ec CODE
 0001:0000c5c0 00000024H .text$_ZNSt3__18ios_base8setstateB6v15007Ej CODE
 0001:0000c5f0 00000149H .text$_ZNSt3__113basic_ostreamIcNS_11char_traitsIcEEE6sentryD2Ev CODE
 0001:0000c740 0000001aH .text$_ZNSt3__115basic_streambufIcNS_11char_traitsIcEEE7pubsyncB6v15007Ev CODE
 0001:0000c760 00000060H .text$_ZNSt3__16vectorINS0_IiNS_9allocatorIiEEEENS1_IS3_EEEC2B6v15007Ev CODE
 0001:0000c7c0 0000002dH .text$_ZNSt3__117__compressed_pairIPNS_6vectorIiNS_9allocatorIiEEEENS2_IS4_EEEC1B6v15007IDnNS_18__default_init_tagEEEOT_OT0_ CODE
 0001:0000c7f0 00000007H .text$_ZNSt3__119__debug_db_insert_cB6v15007INS_6vectorINS1_IiNS_9allocatorIiEEEENS2_IS4_EEEEEEvPT_ CODE
 0001:0000c800 0000003bH .text$_ZNSt3__117__compressed_pairIPNS_6vectorIiNS_9allocatorIiEEEENS2_IS4_EEEC2B6v15007IDnNS_18__default_init_tagEEEOT_OT0_ CODE
 0001:0000c840 0000001eH .text$_ZNSt3__122__compressed_pair_elemIPNS_6vectorIiNS_9allocatorIiEEEELi0ELb0EEC2B6v15007IDnvEEOT_ CODE
 0001:0000c860 0000001dH .text$_ZNSt3__122__compressed_pair_elemINS_9allocatorINS_6vectorIiNS1_IiEEEEEELi1ELb1EEC2B6v15007ENS_18__default_init_tagE CODE
 0001:0000c880 00000019H .text$_ZNSt3__19allocatorINS_6vectorIiNS0_IiEEEEEC2B6v15007Ev CODE
 0001:0000c8a0 00000007H .text$_ZNSt3__116__non_trivial_ifILb1ENS_9allocatorINS_6vectorIiNS1_IiEEEEEEEC2B6v15007Ev CODE
 0001:0000c8b0 0000003aH .text$_ZNSt3__16vectorINS0_IiNS_9allocatorIiEEEENS1_IS3_EEED2B6v15007Ev CODE
 0001:0000c8f0 00000023H .text$_ZNSt3__16vectorINS0_IiNS_9allocatorIiEEEENS1_IS3_EEE16__destroy_vectorC1ERS5_ CODE
 0001:0000c920 0000008cH .text$_ZNSt3__16vectorINS0_IiNS_9allocatorIiEEEENS1_IS3_EEE16__destroy_vectorclB6v15007Ev CODE
 0001:0000c9b0 0000001eH .text$_ZNSt3__16vectorINS0_IiNS_9allocatorIiEEEENS1_IS3_EEE16__destroy_vectorC2ERS5_ CODE
 0001:0000c9d0 000000c3H .text$_ZNKSt3__16vectorINS0_IiNS_9allocatorIiEEEENS1_IS3_EEE17__annotate_deleteB6v15007Ev CODE
 0001:0000caa0 00000007H .text$_ZNSt3__118__debug_db_erase_cB6v15007INS_6vectorINS1_IiNS_9allocatorIiEEEENS2_IS4_EEEEEEvPT_ CODE
 0001:0000cab0 0000001cH .text$_ZNSt3__16vectorINS0_IiNS_9allocatorIiEEEENS1_IS3_EEE7__clearB6v15007Ev CODE
 0001:0000cad0 0000002dH .text$_ZNSt3__116allocator_traitsINS_9allocatorINS_6vectorIiNS1_IiEEEEEEE10deallocateB6v15007ERS5_PS4_y CODE
 0001:0000cb00 0000001dH .text$_ZNSt3__16vectorINS0_IiNS_9allocatorIiEEEENS1_IS3_EEE7__allocB6v15007Ev CODE
 0001:0000cb20 00000035H .text$_ZNKSt3__16vectorINS0_IiNS_9allocatorIiEEEENS1_IS3_EEE8capacityB6v15007Ev CODE
 0001:0000cb60 00000021H .text$_ZNKSt3__16vectorINS0_IiNS_9allocatorIiEEEENS1_IS3_EEE31__annotate_contiguous_containerB6v15007EPKvS7_S7_S7_ CODE
 0001:0000cb90 0000001cH .text$_ZNKSt3__16vectorINS0_IiNS_9allocatorIiEEEENS1_IS3_EEE4dataB6v15007Ev CODE
 0001:0000cbb0 0000001fH .text$_ZNKSt3__16vectorINS0_IiNS_9allocatorIiEEEENS1_IS3_EEE4sizeB6v15007Ev CODE
 0001:0000cbd0 0000000bH .text$_ZNSt3__112__to_addressB6v15007INS_6vectorIiNS_9allocatorIiEEEEEEPT_S6_ CODE
 0001:0000cbe0 00000086H .text$_ZNSt3__16vectorINS0_IiNS_9allocatorIiEEEENS1_IS3_EEE22__base_destruct_at_endB6v15007EPS3_ CODE
 0001:0000cc70 00000023H .text$_ZNSt3__116allocator_traitsINS_9allocatorINS_6vectorIiNS1_IiEEEEEEE7destroyB6v15007IS4_vEEvRS5_PT_ CODE
 0001:0000cca0 0000001eH .text$_ZNSt3__19allocatorINS_6vectorIiNS0_IiEEEEE7destroyB6v15007EPS3_ CODE
 0001:0000ccc0 00000043H .text$_ZNSt3__19allocatorINS_6vectorIiNS0_IiEEEEE10deallocateB6v15007EPS3_y CODE
 0001:0000cd10 00000019H .text$_ZNSt3__117__compressed_pairIPNS_6vectorIiNS_9allocatorIiEEEENS2_IS4_EEE6secondB6v15007Ev CODE
 0001:0000cd30 0000000bH .text$_ZNSt3__122__compressed_pair_elemINS_9allocatorINS_6vectorIiNS1_IiEEEEEELi1ELb1EE5__getB6v15007Ev CODE
 0001:0000cd40 0000001dH .text$_ZNKSt3__16vectorINS0_IiNS_9allocatorIiEEEENS1_IS3_EEE9__end_capB6v15007Ev CODE
 0001:0000cd60 00000019H .text$_ZNKSt3__117__compressed_pairIPNS_6vectorIiNS_9allocatorIiEEEENS2_IS4_EEE5firstB6v15007Ev CODE
 0001:0000cd80 0000000bH .text$_ZNKSt3__122__compressed_pair_elemIPNS_6vectorIiNS_9allocatorIiEEEELi0ELb0EE5__getB6v15007Ev CODE
 0001:0000cd90 000000f5H .text$_ZNSt3__16vectorIiNS_9allocatorIiEEEC2EyRKi CODE
 0001:0000ce90 0000002dH .text$_ZNSt3__117__compressed_pairIPiNS_9allocatorIiEEEC1B6v15007IDnNS_18__default_init_tagEEEOT_OT0_ CODE
 0001:0000cec0 00000034H .text$_ZNSt3__118__make_transactionB6v15007INS_6vectorIiNS_9allocatorIiEEE16__destroy_vectorEEENS_13__transactionIT_EES7_ CODE
 0001:0000cf00 00000023H .text$_ZNSt3__16vectorIiNS_9allocatorIiEEE16__destroy_vectorC1ERS3_ CODE
 0001:0000cf30 00000007H .text$_ZNSt3__119__debug_db_insert_cB6v15007INS_6vectorIiNS_9allocatorIiEEEEEEvPT_ CODE
 0001:0000cf40 000000a9H .text$_ZNSt3__16vectorIiNS_9allocatorIiEEE11__vallocateB6v15007Ey CODE
 0001:0000cff0 000000e1H .text$_ZNSt3__16vectorIiNS_9allocatorIiEEE18__construct_at_endEyRKi CODE
 0001:0000d0e0 0000000fH .text$_ZNSt3__113__transactionINS_6vectorIiNS_9allocatorIiEEE16__destroy_vectorEE10__completeB6v15007Ev CODE
 0001:0000d0f0 00000019H .text$_ZNSt3__113__transactionINS_6vectorIiNS_9allocatorIiEEE16__destroy_vectorEED1B6v15007Ev CODE
 0001:0000d110 0000003bH .text$_ZNSt3__117__compressed_pairIPiNS_9allocatorIiEEEC2B6v15007IDnNS_18__default_init_tagEEEOT_OT0_ CODE
 0001:0000d150 0000001eH .text$_ZNSt3__122__compressed_pair_elemIPiLi0ELb0EEC2B6v15007IDnvEEOT_ CODE
 0001:0000d170 0000001dH .text$_ZNSt3__122__compressed_pair_elemINS_9allocatorIiEELi1ELb1EEC2B6v15007ENS_18__default_init_tagE CODE
 0001:0000d190 00000019H .text$_ZNSt3__19allocatorIiEC2B6v15007Ev CODE
 0001:0000d1b0 00000007H .text$_ZNSt3__116__non_trivial_ifILb1ENS_9allocatorIiEEEC2B6v15007Ev CODE
 0001:0000d1c0 00000023H .text$_ZNSt3__113__transactionINS_6vectorIiNS_9allocatorIiEEE16__destroy_vectorEEC1B6v15007ES5_ CODE
 0001:0000d1f0 00000022H .text$_ZNSt3__113__transactionINS_6vectorIiNS_9allocatorIiEEE16__destroy_vectorEEC2B6v15007ES5_ CODE
 0001:0000d220 0000001eH .text$_ZNSt3__16vectorIiNS_9allocatorIiEEE16__destroy_vectorC2ERS3_ CODE
 0001:0000d240 00000059H .text$_ZNKSt3__16vectorIiNS_9allocatorIiEEE8max_sizeEv CODE
 0001:0000d2a0 00000016H .text$_ZNKSt3__16vectorIiNS_9allocatorIiEEE20__throw_length_errorB6v15007Ev CODE
 0001:0000d2c0 0000004dH .text$_ZNSt3__119__allocate_at_leastB6v15007INS_9allocatorIiEEEENS_19__allocation_resultINS_16allocator_traitsIT_E7pointerEEERS5_y CODE
 0001:0000d310 0000001dH .text$_ZNSt3__16vectorIiNS_9allocatorIiEEE7__allocB6v15007Ev CODE
 0001:0000d330 0000001dH .text$_ZNSt3__16vectorIiNS_9allocatorIiEEE9__end_capB6v15007Ev CODE
 0001:0000d350 000000b6H .text$_ZNKSt3__16vectorIiNS_9allocatorIiEEE14__annotate_newB6v15007Ey CODE
 0001:0000d410 00000028H .text$_ZNSt3__13minB6v15007IyEERKT_S3_S3_ CODE
 0001:0000d440 00000019H .text$_ZNSt3__116allocator_traitsINS_9allocatorIiEEE8max_sizeB6v15007IS2_vEEyRKS2_ CODE
 0001:0000d460 0000001dH .text$_ZNKSt3__16vectorIiNS_9allocatorIiEEE7__allocB6v15007Ev CODE
 0001:0000d480 0000000fH .text$_ZNSt3__114numeric_limitsIxE3maxB6v15007Ev CODE
 0001:0000d490 00000057H .text$_ZNSt3__13minB6v15007IyNS_6__lessIyyEEEERKT_S5_S5_T0_ CODE
 0001:0000d4f0 0000002eH .text$_ZNKSt3__16__lessIyyEclB6v15007ERKyS3_ CODE
 0001:0000d520 00000011H .text$_ZNKSt3__19allocatorIiE8max_sizeB6v15007Ev CODE
 0001:0000d540 00000019H .text$_ZNKSt3__117__compressed_pairIPiNS_9allocatorIiEEE6secondB6v15007Ev CODE
 0001:0000d560 0000000bH .text$_ZNKSt3__122__compressed_pair_elemINS_9allocatorIiEELi1ELb1EE5__getB6v15007Ev CODE
 0001:0000d570 0000000bH .text$_ZNSt3__123__libcpp_numeric_limitsIxLb1EE3maxB6v15007Ev CODE
 0001:0000d580 00000070H .text$_ZNSt3__120__throw_length_errorB6v15007EPKc CODE
 0001:0000d5f0 00000023H .text$_ZNSt12length_errorC1B6v15007EPKc CODE
 0001:0000d620 0000003aH .text$_ZNSt12length_errorC2B6v15007EPKc CODE
 0001:0000d660 00000051H .text$_ZNSt3__19allocatorIiE8allocateB6v15007Ey CODE
 0001:0000d6c0 00000034H .text$_ZSt28__throw_bad_array_new_lengthB6v15007v CODE
 0001:0000d700 00000061H .text$_ZNSt3__117__libcpp_allocateB6v15007Eyy CODE
 0001:0000d770 00000023H .text$_ZNSt3__121__libcpp_operator_newB6v15007IJySt11align_val_tEEEPvDpT_ CODE
 0001:0000d7a0 00000019H .text$_ZNSt3__121__libcpp_operator_newB6v15007IJyEEEPvDpT_ CODE
 0001:0000d7c0 00000019H .text$_ZNSt3__117__compressed_pairIPiNS_9allocatorIiEEE6secondB6v15007Ev CODE
 0001:0000d7e0 0000000bH .text$_ZNSt3__122__compressed_pair_elemINS_9allocatorIiEELi1ELb1EE5__getB6v15007Ev CODE
 0001:0000d7f0 00000019H .text$_ZNSt3__117__compressed_pairIPiNS_9allocatorIiEEE5firstB6v15007Ev CODE
 0001:0000d810 0000000bH .text$_ZNSt3__122__compressed_pair_elemIPiLi0ELb0EE5__getB6v15007Ev CODE
 0001:0000d820 00000021H .text$_ZNKSt3__16vectorIiNS_9allocatorIiEEE31__annotate_contiguous_containerB6v15007EPKvS5_S5_S5_ CODE
 0001:0000d850 0000001cH .text$_ZNKSt3__16vectorIiNS_9allocatorIiEEE4dataB6v15007Ev CODE
 0001:0000d870 0000002fH .text$_ZNKSt3__16vectorIiNS_9allocatorIiEEE8capacityB6v15007Ev CODE
 0001:0000d8a0 0000000bH .text$_ZNSt3__112__to_addressB6v15007IiEEPT_S2_ CODE
 0001:0000d8b0 0000001dH .text$_ZNKSt3__16vectorIiNS_9allocatorIiEEE9__end_capB6v15007Ev CODE
 0001:0000d8d0 00000019H .text$_ZNKSt3__117__compressed_pairIPiNS_9allocatorIiEEE5firstB6v15007Ev CODE
 0001:0000d8f0 0000000bH .text$_ZNKSt3__122__compressed_pair_elemIPiLi0ELb0EE5__getB6v15007Ev CODE
 0001:0000d900 0000002dH .text$_ZNSt3__16vectorIiNS_9allocatorIiEEE21_ConstructTransactionC1ERS3_y CODE
 0001:0000d930 0000002dH .text$_ZNSt3__116allocator_traitsINS_9allocatorIiEEE9constructB6v15007IiJRKiEvEEvRS2_PT_DpOT0_ CODE
 0001:0000d960 00000019H .text$_ZNSt3__16vectorIiNS_9allocatorIiEEE21_ConstructTransactionD1Ev CODE
 0001:0000d980 00000049H .text$_ZNSt3__16vectorIiNS_9allocatorIiEEE21_ConstructTransactionC2ERS3_y CODE
 0001:0000d9d0 00000024H .text$_ZNSt3__19allocatorIiE9constructB6v15007IiJRKiEEEvPT_DpOT0_ CODE
 0001:0000da00 00000016H .text$_ZNSt3__16vectorIiNS_9allocatorIiEEE21_ConstructTransactionD2Ev CODE
 0001:0000da20 0000003fH .text$_ZNSt3__113__transactionINS_6vectorIiNS_9allocatorIiEEE16__destroy_vectorEED2B6v15007Ev CODE
 0001:0000da60 0000008cH .text$_ZNSt3__16vectorIiNS_9allocatorIiEEE16__destroy_vectorclB6v15007Ev CODE
 0001:0000daf0 000000c3H .text$_ZNKSt3__16vectorIiNS_9allocatorIiEEE17__annotate_deleteB6v15007Ev CODE
 0001:0000dbc0 00000007H .text$_ZNSt3__118__debug_db_erase_cB6v15007INS_6vectorIiNS_9allocatorIiEEEEEEvPT_ CODE
 0001:0000dbd0 0000001cH .text$_ZNSt3__16vectorIiNS_9allocatorIiEEE7__clearB6v15007Ev CODE
 0001:0000dbf0 0000002dH .text$_ZNSt3__116allocator_traitsINS_9allocatorIiEEE10deallocateB6v15007ERS2_Piy CODE
 0001:0000dc20 00000019H .text$_ZNKSt3__16vectorIiNS_9allocatorIiEEE4sizeB6v15007Ev CODE
 0001:0000dc40 00000086H .text$_ZNSt3__16vectorIiNS_9allocatorIiEEE22__base_destruct_at_endB6v15007EPi CODE
 0001:0000dcd0 00000023H .text$_ZNSt3__116allocator_traitsINS_9allocatorIiEEE7destroyB6v15007IivEEvRS2_PT_ CODE
 0001:0000dd00 00000012H .text$_ZNSt3__19allocatorIiE7destroyB6v15007EPi CODE
 0001:0000dd20 0000003fH .text$_ZNSt3__19allocatorIiE10deallocateB6v15007EPiy CODE
 0001:0000dd60 0000003aH .text$_ZNSt3__16vectorIiNS_9allocatorIiEEED2B6v15007Ev CODE
 0001:0000dda0 000000f0H .text$_ZNSt3__16vectorINS0_IiNS_9allocatorIiEEEENS1_IS3_EEEC2EyRKS3_ CODE
 0001:0000de90 00000034H .text$_ZNSt3__118__make_transactionB6v15007INS_6vectorINS1_IiNS_9allocatorIiEEEENS2_IS4_EEE16__destroy_vectorEEENS_13__transactionIT_EES9_ CODE
 0001:0000ded0 000000a6H .text$_ZNSt3__16vectorINS0_IiNS_9allocatorIiEEEENS1_IS3_EEE11__vallocateB6v15007Ey CODE
 0001:0000df80 000000e1H .text$_ZNSt3__16vectorINS0_IiNS_9allocatorIiEEEENS1_IS3_EEE18__construct_at_endEyRKS3_ CODE
 0001:0000e070 0000000fH .text$_ZNSt3__113__transactionINS_6vectorINS1_IiNS_9allocatorIiEEEENS2_IS4_EEE16__destroy_vectorEE10__completeB6v15007Ev CODE
 0001:0000e080 00000019H .text$_ZNSt3__113__transactionINS_6vectorINS1_IiNS_9allocatorIiEEEENS2_IS4_EEE16__destroy_vectorEED1B6v15007Ev CODE
 0001:0000e0a0 00000023H .text$_ZNSt3__113__transactionINS_6vectorINS1_IiNS_9allocatorIiEEEENS2_IS4_EEE16__destroy_vectorEEC1B6v15007ES7_ CODE
 0001:0000e0d0 00000022H .text$_ZNSt3__113__transactionINS_6vectorINS1_IiNS_9allocatorIiEEEENS2_IS4_EEE16__destroy_vectorEEC2B6v15007ES7_ CODE
 0001:0000e100 00000059H .text$_ZNKSt3__16vectorINS0_IiNS_9allocatorIiEEEENS1_IS3_EEE8max_sizeEv CODE
 0001:0000e160 00000016H .text$_ZNKSt3__16vectorINS0_IiNS_9allocatorIiEEEENS1_IS3_EEE20__throw_length_errorB6v15007Ev CODE
 0001:0000e180 0000004dH .text$_ZNSt3__119__allocate_at_leastB6v15007INS_9allocatorINS_6vectorIiNS1_IiEEEEEEEENS_19__allocation_resultINS_16allocator_traitsIT_E7pointerEEERS8_y CODE
 0001:0000e1d0 0000001dH .text$_ZNSt3__16vectorINS0_IiNS_9allocatorIiEEEENS1_IS3_EEE9__end_capB6v15007Ev CODE
 0001:0000e1f0 000000b3H .text$_ZNKSt3__16vectorINS0_IiNS_9allocatorIiEEEENS1_IS3_EEE14__annotate_newB6v15007Ey CODE
 0001:0000e2b0 00000019H .text$_ZNSt3__116allocator_traitsINS_9allocatorINS_6vectorIiNS1_IiEEEEEEE8max_sizeB6v15007IS5_vEEyRKS5_ CODE
 0001:0000e2d0 0000001dH .text$_ZNKSt3__16vectorINS0_IiNS_9allocatorIiEEEENS1_IS3_EEE7__allocB6v15007Ev CODE
 0001:0000e2f0 00000011H .text$_ZNKSt3__19allocatorINS_6vectorIiNS0_IiEEEEE8max_sizeB6v15007Ev CODE
 0001:0000e310 00000019H .text$_ZNKSt3__117__compressed_pairIPNS_6vectorIiNS_9allocatorIiEEEENS2_IS4_EEE6secondB6v15007Ev CODE
 0001:0000e330 0000000bH .text$_ZNKSt3__122__compressed_pair_elemINS_9allocatorINS_6vectorIiNS1_IiEEEEEELi1ELb1EE5__getB6v15007Ev CODE
 0001:0000e340 0000004eH .text$_ZNSt3__19allocatorINS_6vectorIiNS0_IiEEEEE8allocateB6v15007Ey CODE
 0001:0000e390 00000019H .text$_ZNSt3__117__compressed_pairIPNS_6vectorIiNS_9allocatorIiEEEENS2_IS4_EEE5firstB6v15007Ev CODE
 0001:0000e3b0 0000000bH .text$_ZNSt3__122__compressed_pair_elemIPNS_6vectorIiNS_9allocatorIiEEEELi0ELb0EE5__getB6v15007Ev CODE
 0001:0000e3c0 0000002dH .text$_ZNSt3__16vectorINS0_IiNS_9allocatorIiEEEENS1_IS3_EEE21_ConstructTransactionC1ERS5_y CODE
 0001:0000e3f0 0000002dH .text$_ZNSt3__116allocator_traitsINS_9allocatorINS_6vectorIiNS1_IiEEEEEEE9constructB6v15007IS4_JRKS4_EvEEvRS5_PT_DpOT0_ CODE
 0001:0000e420 00000019H .text$_ZNSt3__16vectorINS0_IiNS_9allocatorIiEEEENS1_IS3_EEE21_ConstructTransactionD1Ev CODE
 0001:0000e440 00000046H .text$_ZNSt3__16vectorINS0_IiNS_9allocatorIiEEEENS1_IS3_EEE21_ConstructTransactionC2ERS5_y CODE
 0001:0000e490 00000028H .text$_ZNSt3__19allocatorINS_6vectorIiNS0_IiEEEEE9constructB6v15007IS3_JRKS3_EEEvPT_DpOT0_ CODE
 0001:0000e4c0 00000023H .text$_ZNSt3__16vectorIiNS_9allocatorIiEEEC1ERKS3_ CODE
 0001:0000e4f0 0000012dH .text$_ZNSt3__16vectorIiNS_9allocatorIiEEEC2ERKS3_ CODE
 0001:0000e620 00000011H .text$_ZNSt3__116allocator_traitsINS_9allocatorIiEEE37select_on_container_copy_constructionB6v15007IS2_vvEES2_RKS2_ CODE
 0001:0000e640 0000002dH .text$_ZNSt3__117__compressed_pairIPiNS_9allocatorIiEEEC1B6v15007IDnS3_EEOT_OT0_ CODE
 0001:0000e670 00000099H .text$_ZNSt3__16vectorIiNS_9allocatorIiEEE18__construct_at_endIPiEENS_9enable_ifIXsr27__is_cpp17_forward_iteratorIT_EE5valueEvE4typeES7_S7_y CODE
 0001:0000e710 0000003cH .text$_ZNSt3__117__compressed_pairIPiNS_9allocatorIiEEEC2B6v15007IDnS3_EEOT_OT0_ CODE
 0001:0000e750 00000012H .text$_ZNSt3__122__compressed_pair_elemINS_9allocatorIiEELi1ELb1EEC2B6v15007IS2_vEEOT_ CODE
 0001:0000e770 0000010cH .text$_ZNSt3__130__uninitialized_allocator_copyB6v15007INS_9allocatorIiEEPiS3_S3_EET2_RT_T0_T1_S4_ CODE
 0001:0000e880 0000002dH .text$_ZNSt3__116allocator_traitsINS_9allocatorIiEEE9constructB6v15007IiJRiEvEEvRS2_PT_DpOT0_ CODE
 0001:0000e8b0 00000037H .text$_ZNSt3__129_AllocatorDestroyRangeReverseINS_9allocatorIiEEPiEC1B6v15007ERS2_RS3_S6_ CODE
 0001:0000e8f0 0000005cH .text$_ZNKSt3__129_AllocatorDestroyRangeReverseINS_9allocatorIiEEPiEclB6v15007Ev CODE
 0001:0000e950 00000024H .text$_ZNSt3__19allocatorIiE9constructB6v15007IiJRiEEEvPT_DpOT0_ CODE
 0001:0000e980 0000003aH .text$_ZNSt3__129_AllocatorDestroyRangeReverseINS_9allocatorIiEEPiEC2B6v15007ERS2_RS3_S6_ CODE
 0001:0000e9c0 00000064H .text$_ZNSt3__119__allocator_destroyB6v15007INS_9allocatorIiEENS_16reverse_iteratorIPiEES5_EEvRT_T0_T1_ CODE
 0001:0000ea30 00000023H .text$_ZNSt3__116reverse_iteratorIPiEC1B6v15007ES1_ CODE
 0001:0000ea60 0000003fH .text$_ZNSt3__1neB6v15007IPiS1_EEbRKNS_16reverse_iteratorIT_EERKNS2_IT0_EE CODE
 0001:0000eaa0 00000019H .text$_ZNSt3__112__to_addressB6v15007INS_16reverse_iteratorIPiEEvEENS_5decayIDTclsr19__to_address_helperIT_EE6__callcl7declvalIRKS5_EEEEE4typeES7_ CODE
 0001:0000eac0 00000017H .text$_ZNSt3__116reverse_iteratorIPiEppB6v15007Ev CODE
 0001:0000eae0 0000000fH .text$_ZNKSt3__116reverse_iteratorIPiE4baseB6v15007Ev CODE
 0001:0000eaf0 00000036H .text$_ZNSt3__119__to_address_helperINS_16reverse_iteratorIPiEEvE6__callB6v15007ERKS3_ CODE
 0001:0000eb30 00000019H .text$_ZNKSt3__116reverse_iteratorIPiEptB6v15007Ev CODE
 0001:0000eb50 00000027H .text$_ZNKSt3__116reverse_iteratorIPiEdeB6v15007Ev CODE
 0001:0000eb80 00000026H .text$_ZNSt3__116reverse_iteratorIPiEC2B6v15007ES1_ CODE
 0001:0000ebb0 00000016H .text$_ZNSt3__16vectorINS0_IiNS_9allocatorIiEEEENS1_IS3_EEE21_ConstructTransactionD2Ev CODE
 0001:0000ebd0 0000003fH .text$_ZNSt3__113__transactionINS_6vectorINS1_IiNS_9allocatorIiEEEENS2_IS4_EEE16__destroy_vectorEED2B6v15007Ev CODE
 0001:0000ec10 000000beH .text$_ZNSt3__16vectorINS0_IiNS_9allocatorIiEEEENS1_IS3_EEE13__move_assignERS5_NS_17integral_constantIbLb1EEE CODE
 0001:0000ecd0 00000087H .text$_ZNSt3__16vectorINS0_IiNS_9allocatorIiEEEENS1_IS3_EEE13__vdeallocateEv CODE
 0001:0000ed60 00000028H .text$_ZNSt3__16vectorINS0_IiNS_9allocatorIiEEEENS1_IS3_EEE19__move_assign_allocB6v15007ERS5_ CODE
 0001:0000ed90 00000012H .text$_ZNSt3__115__debug_db_swapB6v15007INS_6vectorINS1_IiNS_9allocatorIiEEEENS2_IS4_EEEEEEvPT_S8_ CODE
 0001:0000edb0 00000053H .text$_ZNSt3__16vectorINS0_IiNS_9allocatorIiEEEENS1_IS3_EEE5clearB6v15007Ev CODE
 0001:0000ee10 000000b3H .text$_ZNKSt3__16vectorINS0_IiNS_9allocatorIiEEEENS1_IS3_EEE17__annotate_shrinkB6v15007Ey CODE
 0001:0000eed0 00000007H .text$_ZNSt3__125__debug_db_invalidate_allB6v15007INS_6vectorINS1_IiNS_9allocatorIiEEEENS2_IS4_EEEEEEvPT_ CODE
 0001:0000eee0 00000037H .text$_ZNSt3__16vectorINS0_IiNS_9allocatorIiEEEENS1_IS3_EEE19__move_assign_allocB6v15007ERS5_NS_17integral_constantIbLb1EEE CODE
 0001:0000ef20 00000021H .text$_ZNSt3__123mersenne_twister_engineIjLy32ELy624ELy397ELy31ELj2567483615ELy11ELj4294967295ELy7ELj2636928640ELy15ELj4022730752ELy18ELj1812433253EEC2B6v15007Ej CODE
 0001:0000ef50 000000b7H .text$_ZNSt3__123mersenne_twister_engineIjLy32ELy624ELy397ELy31ELj2567483615ELy11ELj4294967295ELy7ELj2636928640ELy15ELj4022730752ELy18ELj1812433253EE4seedEj CODE
 0001:0000f010 0000000eH .text$_ZNSt3__123mersenne_twister_engineIjLy32ELy624ELy397ELy31ELj2567483615ELy11ELj4294967295ELy7ELj2636928640ELy15ELj4022730752ELy18ELj1812433253EE8__rshiftB6v15007ILy30EEENS_9enable_ifIXltT_L_ZNS1_3_DtEEEjE4typeEj CODE
 0001:0000f020 0000002bH .text$_ZNSt3__124uniform_int_distributionIiEC2Eii CODE
 0001:0000f050 0000002bH .text$_ZNSt3__124uniform_int_distributionIiE10param_typeC1Eii CODE
 0001:0000f080 00000027H .text$_ZNSt3__124uniform_int_distributionIiE10param_typeC2Eii CODE
 0001:0000f0b0 000001a0H .text$_ZNSt3__112__hash_tableIiNS_4hashIiEENS_8equal_toIiEENS_9allocatorIiEEE4findIiEENS_15__hash_iteratorIPNS_11__hash_nodeIiPvEEEERKT_ CODE
 0001:0000f250 00000023H .text$_ZNSt3__121__hash_const_iteratorIPNS_11__hash_nodeIiPvEEEC1B6v15007ERKNS_15__hash_iteratorIS4_EE CODE
 0001:0000f280 0000001dH .text$_ZNSt3__112__hash_tableIiNS_4hashIiEENS_8equal_toIiEENS_9allocatorIiEEE13hash_functionB6v15007Ev CODE
 0001:0000f2a0 00000017H .text$_ZNKSt3__14hashIiEclB6v15007Ei CODE
 0001:0000f2c0 00000021H .text$_ZNKSt3__112__hash_tableIiNS_4hashIiEENS_8equal_toIiEENS_9allocatorIiEEE12bucket_countB6v15007Ev CODE
 0001:0000f2f0 00000087H .text$_ZNSt3__116__constrain_hashB6v15007Eyy CODE
 0001:0000f380 0000002cH .text$_ZNKSt3__110unique_ptrIA_PNS_16__hash_node_baseIPNS_11__hash_nodeIiPvEEEENS_25__bucket_list_deallocatorINS_9allocatorIS7_EEEEEixB6v15007Ey CODE
 0001:0000f3b0 0000000fH .text$_ZNKSt3__116__hash_node_baseIPNS_11__hash_nodeIiPvEEE6__hashB6v15007Ev CODE
 0001:0000f3c0 0000001dH .text$_ZNSt3__112__hash_tableIiNS_4hashIiEENS_8equal_toIiEENS_9allocatorIiEEE6key_eqB6v15007Ev CODE
 0001:0000f3e0 0000002cH .text$_ZNKSt3__18equal_toIiEclB6v15007ERKiS3_ CODE
 0001:0000f410 00000019H .text$_ZNSt3__116__hash_node_baseIPNS_11__hash_nodeIiPvEEE8__upcastB6v15007Ev CODE
 0001:0000f430 0000002dH .text$_ZNSt3__115__hash_iteratorIPNS_11__hash_nodeIiPvEEEC1B6v15007EPNS_16__hash_node_baseIS4_EEPKv CODE
 0001:0000f460 00000026H .text$_ZNSt3__112__hash_tableIiNS_4hashIiEENS_8equal_toIiEENS_9allocatorIiEEE3endEv CODE
 0001:0000f490 00000019H .text$_ZNSt3__117__compressed_pairIyNS_4hashIiEEE6secondB6v15007Ev CODE
 0001:0000f4b0 0000000bH .text$_ZNSt3__122__compressed_pair_elemINS_4hashIiEELi1ELb1EE5__getB6v15007Ev CODE
 0001:0000f4c0 00000019H .text$_ZNKSt3__110unique_ptrIA_PNS_16__hash_node_baseIPNS_11__hash_nodeIiPvEEEENS_25__bucket_list_deallocatorINS_9allocatorIS7_EEEEE11get_deleterB6v15007Ev CODE
 0001:0000f4e0 0000001bH .text$_ZNKSt3__125__bucket_list_deallocatorINS_9allocatorIPNS_16__hash_node_baseIPNS_11__hash_nodeIiPvEEEEEEE4sizeB6v15007Ev CODE
 0001:0000f500 0000001dH .text$_ZNKSt3__117__compressed_pairIPPNS_16__hash_node_baseIPNS_11__hash_nodeIiPvEEEENS_25__bucket_list_deallocatorINS_9allocatorIS7_EEEEE6secondB6v15007Ev CODE
 0001:0000f520 0000000bH .text$_ZNKSt3__122__compressed_pair_elemINS_25__bucket_list_deallocatorINS_9allocatorIPNS_16__hash_node_baseIPNS_11__hash_nodeIiPvEEEEEEEELi1ELb0EE5__getB6v15007Ev CODE
 0001:0000f530 00000019H .text$_ZNKSt3__117__compressed_pairIyNS_9allocatorIPNS_16__hash_node_baseIPNS_11__hash_nodeIiPvEEEEEEE5firstB6v15007Ev CODE
 0001:0000f550 0000000bH .text$_ZNKSt3__122__compressed_pair_elemIyLi0ELb0EE5__getB6v15007Ev CODE
 0001:0000f560 00000019H .text$_ZNKSt3__117__compressed_pairIPPNS_16__hash_node_baseIPNS_11__hash_nodeIiPvEEEENS_25__bucket_list_deallocatorINS_9allocatorIS7_EEEEE5firstB6v15007Ev CODE
 0001:0000f580 0000000bH .text$_ZNKSt3__122__compressed_pair_elemIPPNS_16__hash_node_baseIPNS_11__hash_nodeIiPvEEEELi0ELb0EE5__getB6v15007Ev CODE
 0001:0000f590 00000019H .text$_ZNSt3__117__compressed_pairIfNS_8equal_toIiEEE6secondB6v15007Ev CODE
 0001:0000f5b0 0000000bH .text$_ZNSt3__122__compressed_pair_elemINS_8equal_toIiEELi1ELb1EE5__getB6v15007Ev CODE
 0001:0000f5c0 0000000bH .text$_ZNSt3__114pointer_traitsIPNS_16__hash_node_baseIPNS_11__hash_nodeIiPvEEEEE10pointer_toB6v15007ERS6_ CODE
 0001:0000f5d0 00000024H .text$_ZNSt3__115__hash_iteratorIPNS_11__hash_nodeIiPvEEEC2B6v15007EPNS_16__hash_node_baseIS4_EEPKv CODE
 0001:0000f600 00000021H .text$_ZNSt3__121__hash_const_iteratorIPNS_11__hash_nodeIiPvEEEC2B6v15007ERKNS_15__hash_iteratorIS4_EE CODE
 0001:0000f630 00000050H .text$_ZNKSt3__110__function12__value_funcIFbiiEEclB6v15007EOiS4_ CODE
 0001:0000f680 00000046H .text$_ZNSt3__125__throw_bad_function_callB6v15007Ev CODE
 0001:0000f6d0 00000019H .text$_ZNSt3__117bad_function_callC1Ev CODE
 0001:0000f6f0 00000019H .text$_ZNSt3__117bad_function_callD1Ev CODE
 0001:0000f710 00000030H .text$_ZNSt3__117bad_function_callC2Ev CODE
 0001:0000f740 00000019H .text$_ZNSt9exceptionC2B6v15007Ev CODE
 0001:0000f760 00000028H .text$_ZNSt3__117bad_function_callD0Ev CODE
 0001:0000f790 00000019H .text$_ZNSt3__117bad_function_callD2Ev CODE
 0001:0000f7b0 00000055H .text$_ZNSt3__112__hash_tableIiNS_4hashIiEENS_8equal_toIiEENS_9allocatorIiEEE15__insert_uniqueB6v15007ERKi CODE
 0001:0000f810 00000023H .text$_ZNSt3__14pairINS_21__hash_const_iteratorIPNS_11__hash_nodeIiPvEEEEbEC1B6v15007INS_15__hash_iteratorIS5_EEbLS3_0EEEONS0_IT_T0_EE CODE
 0001:0000f840 0000068dH .text$_ZNSt3__112__hash_tableIiNS_4hashIiEENS_8equal_toIiEENS_9allocatorIiEEE25__emplace_unique_key_argsIiJRKiEEENS_4pairINS_15__hash_iteratorIPNS_11__hash_nodeIiPvEEEEbEERKT_DpOT0_ CODE
 0001:0000fed0 0000000bH .text$_ZNSt3__122__hash_key_value_typesIiE9__get_keyB6v15007ERKi CODE
 0001:0000fee0 00000182H .text$_ZNSt3__112__hash_tableIiNS_4hashIiEENS_8equal_toIiEENS_9allocatorIiEEE21__construct_node_hashIRKiJEEENS_10unique_ptrINS_11__hash_nodeIiPvEENS_22__hash_node_destructorINS5_ISE_EEEEEEyOT_DpOT0_ CODE
 0001:00010070 0000001dH .text$_ZNSt3__112__hash_tableIiNS_4hashIiEENS_8equal_toIiEENS_9allocatorIiEEE4sizeB6v15007Ev CODE
 0001:00010090 0000001dH .text$_ZNSt3__112__hash_tableIiNS_4hashIiEENS_8equal_toIiEENS_9allocatorIiEEE15max_load_factorB6v15007Ev CODE
 0001:000100b0 00000023H .text$_ZNSt3__112__hash_tableIiNS_4hashIiEENS_8equal_toIiEENS_9allocatorIiEEE15__rehash_uniqueB6v15007Ey CODE
 0001:000100e0 00000028H .text$_ZNSt3__13maxB6v15007IyEERKT_S3_S3_ CODE
 0001:00010110 00000047H .text$_ZNSt3__116__is_hash_power2B6v15007Ey CODE
 0001:00010160 0000001bH .text$_Z4ceilB6v15007f  CODE
 0001:00010180 00000019H .text$_ZNSt3__117__compressed_pairINS_16__hash_node_baseIPNS_11__hash_nodeIiPvEEEENS_9allocatorIS4_EEE5firstB6v15007Ev CODE
 0001:000101a0 00000019H .text$_ZNSt3__116__hash_node_baseIPNS_11__hash_nodeIiPvEEE5__ptrB6v15007Ev CODE
 0001:000101c0 0000001bH .text$_ZNKSt3__110unique_ptrINS_11__hash_nodeIiPvEENS_22__hash_node_destructorINS_9allocatorIS3_EEEEEptB6v15007Ev CODE
 0001:000101e0 0000001bH .text$_ZNKSt3__110unique_ptrINS_11__hash_nodeIiPvEENS_22__hash_node_destructorINS_9allocatorIS3_EEEEE3getB6v15007Ev CODE
 0001:00010200 0000003bH .text$_ZNSt3__110unique_ptrINS_11__hash_nodeIiPvEENS_22__hash_node_destructorINS_9allocatorIS3_EEEEE7releaseB6v15007Ev CODE
 0001:00010240 00000019H .text$_ZNSt3__110unique_ptrINS_11__hash_nodeIiPvEENS_22__hash_node_destructorINS_9allocatorIS3_EEEEED1B6v15007Ev CODE
 0001:00010260 0000002dH .text$_ZNSt3__14pairINS_15__hash_iteratorIPNS_11__hash_nodeIiPvEEEEbEC1B6v15007IS6_RbLS3_0EEEOT_OT0_ CODE
 0001:00010290 0000001dH .text$_ZNSt3__112__hash_tableIiNS_4hashIiEENS_8equal_toIiEENS_9allocatorIiEEE12__node_allocB6v15007Ev CODE
 0001:000102b0 00000023H .text$_ZNSt3__116allocator_traitsINS_9allocatorINS_11__hash_nodeIiPvEEEEE8allocateB6v15007ERS5_y CODE
 0001:000102e0 00000035H .text$_ZNSt3__122__hash_node_destructorINS_9allocatorINS_11__hash_nodeIiPvEEEEEC1B6v15007ERS5_b CODE
 0001:00010320 0000002dH .text$_ZNSt3__110unique_ptrINS_11__hash_nodeIiPvEENS_22__hash_node_destructorINS_9allocatorIS3_EEEEEC1B6v15007ILb1EvEEPS3_NS_16__dependent_typeINS_27__unique_ptr_deleter_sfinaeIS7_EEXT_EE20__good_rval_ref_typeE CODE
 0001:00010350 0000002dH .text$_ZNSt3__116allocator_traitsINS_9allocatorINS_11__hash_nodeIiPvEEEEE9constructB6v15007IiJRKiEvEEvRS5_PT_DpOT0_ CODE
 0001:00010380 0000000bH .text$_ZNSt3__122__hash_key_value_typesIiE9__get_ptrB6v15007ERi CODE
 0001:00010390 00000019H .text$_ZNSt3__110unique_ptrINS_11__hash_nodeIiPvEENS_22__hash_node_destructorINS_9allocatorIS3_EEEEE11get_deleterB6v15007Ev CODE
 0001:000103b0 00000019H .text$_ZNSt3__117__compressed_pairINS_16__hash_node_baseIPNS_11__hash_nodeIiPvEEEENS_9allocatorIS4_EEE6secondB6v15007Ev CODE
 0001:000103d0 0000000bH .text$_ZNSt3__122__compressed_pair_elemINS_9allocatorINS_11__hash_nodeIiPvEEEELi1ELb1EE5__getB6v15007Ev CODE
 0001:000103e0 0000004eH .text$_ZNSt3__19allocatorINS_11__hash_nodeIiPvEEE8allocateB6v15007Ey CODE
 0001:00010430 00000019H .text$_ZNSt3__116allocator_traitsINS_9allocatorINS_11__hash_nodeIiPvEEEEE8max_sizeB6v15007IS5_vEEyRKS5_ CODE
 0001:00010450 00000011H .text$_ZNKSt3__19allocatorINS_11__hash_nodeIiPvEEE8max_sizeB6v15007Ev CODE
 0001:00010470 00000033H .text$_ZNSt3__122__hash_node_destructorINS_9allocatorINS_11__hash_nodeIiPvEEEEEC2B6v15007ERS5_b CODE
 0001:000104b0 0000003aH .text$_ZNSt3__110unique_ptrINS_11__hash_nodeIiPvEENS_22__hash_node_destructorINS_9allocatorIS3_EEEEEC2B6v15007ILb1EvEEPS3_NS_16__dependent_typeINS_27__unique_ptr_deleter_sfinaeIS7_EEXT_EE20__good_rval_ref_typeE CODE
 0001:000104f0 0000002dH .text$_ZNSt3__117__compressed_pairIPNS_11__hash_nodeIiPvEENS_22__hash_node_destructorINS_9allocatorIS3_EEEEEC1B6v15007IRS4_S8_EEOT_OT0_ CODE
 0001:00010520 00000040H .text$_ZNSt3__117__compressed_pairIPNS_11__hash_nodeIiPvEENS_22__hash_node_destructorINS_9allocatorIS3_EEEEEC2B6v15007IRS4_S8_EEOT_OT0_ CODE
 0001:00010560 00000021H .text$_ZNSt3__122__compressed_pair_elemIPNS_11__hash_nodeIiPvEELi0ELb0EEC2B6v15007IRS4_vEEOT_ CODE
 0001:00010590 00000029H .text$_ZNSt3__122__compressed_pair_elemINS_22__hash_node_destructorINS_9allocatorINS_11__hash_nodeIiPvEEEEEELi1ELb0EEC2B6v15007IS7_vEEOT_ CODE
 0001:000105c0 00000024H .text$_ZNSt3__19allocatorINS_11__hash_nodeIiPvEEE9constructB6v15007IiJRKiEEEvPT_DpOT0_ CODE
 0001:000105f0 0000001dH .text$_ZNSt3__117__compressed_pairIPNS_11__hash_nodeIiPvEENS_22__hash_node_destructorINS_9allocatorIS3_EEEEE6secondB6v15007Ev CODE
 0001:00010610 0000000bH .text$_ZNSt3__122__compressed_pair_elemINS_22__hash_node_destructorINS_9allocatorINS_11__hash_nodeIiPvEEEEEELi1ELb0EE5__getB6v15007Ev CODE
 0001:00010620 00000019H .text$_ZNSt3__117__compressed_pairIyNS_4hashIiEEE5firstB6v15007Ev CODE
 0001:00010640 00000019H .text$_ZNSt3__117__compressed_pairIfNS_8equal_toIiEEE5firstB6v15007Ev CODE
 0001:00010660 0000000bH .text$_ZNSt3__122__compressed_pair_elemIfLi0ELb0EE5__getB6v15007Ev CODE
 0001:00010670 00000255H .text$_ZNSt3__112__hash_tableIiNS_4hashIiEENS_8equal_toIiEENS_9allocatorIiEEE8__rehashILb1EEEvy CODE
 0001:000108d0 000002c2H .text$_ZNSt3__112__hash_tableIiNS_4hashIiEENS_8equal_toIiEENS_9allocatorIiEEE11__do_rehashILb1EEEvy CODE
 0001:00010ba0 00000056H .text$_ZNSt3__116__next_hash_pow2B6v15007Ey CODE
 0001:00010c00 00000007H .text$_ZNSt3__125__debug_db_invalidate_allB6v15007INS_12__hash_tableIiNS_4hashIiEENS_8equal_toIiEENS_9allocatorIiEEEEEEvPT_ CODE
 0001:00010c10 00000019H .text$_ZNSt3__110unique_ptrIA_PNS_16__hash_node_baseIPNS_11__hash_nodeIiPvEEEENS_25__bucket_list_deallocatorINS_9allocatorIS7_EEEEE11get_deleterB6v15007Ev CODE
 0001:00010c30 00000019H .text$_ZNSt3__125__bucket_list_deallocatorINS_9allocatorIPNS_16__hash_node_baseIPNS_11__hash_nodeIiPvEEEEEEE7__allocB6v15007Ev CODE
 0001:00010c50 0000006aH .text$_ZNSt3__110unique_ptrIA_PNS_16__hash_node_baseIPNS_11__hash_nodeIiPvEEEENS_25__bucket_list_deallocatorINS_9allocatorIS7_EEEEE5resetB6v15007IPS7_EENS_9enable_ifIXsr28_CheckArrayPointerConversionIT_EE5valueEvE4typeESH_ CODE
 0001:00010cc0 00000023H .text$_ZNSt3__116allocator_traitsINS_9allocatorIPNS_16__hash_node_baseIPNS_11__hash_nodeIiPvEEEEEEE8allocateB6v15007ERS9_y CODE
 0001:00010cf0 00000019H .text$_ZNSt3__125__bucket_list_deallocatorINS_9allocatorIPNS_16__hash_node_baseIPNS_11__hash_nodeIiPvEEEEEEE4sizeB6v15007Ev CODE
 0001:00010d10 0000001dH .text$_ZNSt3__117__compressed_pairIPPNS_16__hash_node_baseIPNS_11__hash_nodeIiPvEEEENS_25__bucket_list_deallocatorINS_9allocatorIS7_EEEEE6secondB6v15007Ev CODE
 0001:00010d30 0000000bH .text$_ZNSt3__122__compressed_pair_elemINS_25__bucket_list_deallocatorINS_9allocatorIPNS_16__hash_node_baseIPNS_11__hash_nodeIiPvEEEEEEEELi1ELb0EE5__getB6v15007Ev CODE
 0001:00010d40 00000019H .text$_ZNSt3__117__compressed_pairIyNS_9allocatorIPNS_16__hash_node_baseIPNS_11__hash_nodeIiPvEEEEEEE6secondB6v15007Ev CODE
 0001:00010d60 0000000bH .text$_ZNSt3__122__compressed_pair_elemINS_9allocatorIPNS_16__hash_node_baseIPNS_11__hash_nodeIiPvEEEEEELi1ELb1EE5__getB6v15007Ev CODE
 0001:00010d70 00000019H .text$_ZNSt3__117__compressed_pairIPPNS_16__hash_node_baseIPNS_11__hash_nodeIiPvEEEENS_25__bucket_list_deallocatorINS_9allocatorIS7_EEEEE5firstB6v15007Ev CODE
 0001:00010d90 0000004eH .text$_ZNSt3__125__bucket_list_deallocatorINS_9allocatorIPNS_16__hash_node_baseIPNS_11__hash_nodeIiPvEEEEEEEclB6v15007EPS8_ CODE
 0001:00010de0 0000000bH .text$_ZNSt3__122__compressed_pair_elemIPPNS_16__hash_node_baseIPNS_11__hash_nodeIiPvEEEELi0ELb0EE5__getB6v15007Ev CODE
 0001:00010df0 0000002dH .text$_ZNSt3__116allocator_traitsINS_9allocatorIPNS_16__hash_node_baseIPNS_11__hash_nodeIiPvEEEEEEE10deallocateB6v15007ERS9_PS8_y CODE
 0001:00010e20 0000003fH .text$_ZNSt3__19allocatorIPNS_16__hash_node_baseIPNS_11__hash_nodeIiPvEEEEE10deallocateB6v15007EPS7_y CODE
 0001:00010e60 00000051H .text$_ZNSt3__19allocatorIPNS_16__hash_node_baseIPNS_11__hash_nodeIiPvEEEEE8allocateB6v15007Ey CODE
 0001:00010ec0 00000019H .text$_ZNSt3__116allocator_traitsINS_9allocatorIPNS_16__hash_node_baseIPNS_11__hash_nodeIiPvEEEEEEE8max_sizeB6v15007IS9_vEEyRKS9_ CODE
 0001:00010ee0 00000011H .text$_ZNKSt3__19allocatorIPNS_16__hash_node_baseIPNS_11__hash_nodeIiPvEEEEE8max_sizeB6v15007Ev CODE
 0001:00010f00 00000019H .text$_ZNSt3__117__compressed_pairIyNS_9allocatorIPNS_16__hash_node_baseIPNS_11__hash_nodeIiPvEEEEEEE5firstB6v15007Ev CODE
 0001:00010f20 00000013H .text$_ZNSt3__112__libcpp_clzB6v15007Ey CODE
 0001:00010f40 00000057H .text$_ZNSt3__13maxB6v15007IyNS_6__lessIyyEEEERKT_S5_S5_T0_ CODE
 0001:00010fa0 0000000bH .text$_ZNSt3__122__compressed_pair_elemINS_16__hash_node_baseIPNS_11__hash_nodeIiPvEEEELi0ELb0EE5__getB6v15007Ev CODE
 0001:00010fb0 00000019H .text$_ZNKSt3__117__compressed_pairIPNS_11__hash_nodeIiPvEENS_22__hash_node_destructorINS_9allocatorIS3_EEEEE5firstB6v15007Ev CODE
 0001:00010fd0 0000000bH .text$_ZNKSt3__122__compressed_pair_elemIPNS_11__hash_nodeIiPvEELi0ELb0EE5__getB6v15007Ev CODE
 0001:00010fe0 00000019H .text$_ZNSt3__117__compressed_pairIPNS_11__hash_nodeIiPvEENS_22__hash_node_destructorINS_9allocatorIS3_EEEEE5firstB6v15007Ev CODE
 0001:00011000 0000000bH .text$_ZNSt3__122__compressed_pair_elemIPNS_11__hash_nodeIiPvEELi0ELb0EE5__getB6v15007Ev CODE
 0001:00011010 0000001dH .text$_ZNSt3__110unique_ptrINS_11__hash_nodeIiPvEENS_22__hash_node_destructorINS_9allocatorIS3_EEEEED2B6v15007Ev CODE
 0001:00011030 0000006aH .text$_ZNSt3__110unique_ptrINS_11__hash_nodeIiPvEENS_22__hash_node_destructorINS_9allocatorIS3_EEEEE5resetB6v15007EPS3_ CODE
 0001:000110a0 00000087H .text$_ZNSt3__122__hash_node_destructorINS_9allocatorINS_11__hash_nodeIiPvEEEEEclB6v15007EPS4_ CODE
 0001:00011130 00000012H .text$_ZNSt3__116allocator_traitsINS_9allocatorINS_11__hash_nodeIiPvEEEEE7destroyB6v15007IivvEEvRS5_PT_ CODE
 0001:00011150 0000002dH .text$_ZNSt3__116allocator_traitsINS_9allocatorINS_11__hash_nodeIiPvEEEEE10deallocateB6v15007ERS5_PS4_y CODE
 0001:00011180 00000043H .text$_ZNSt3__19allocatorINS_11__hash_nodeIiPvEEE10deallocateB6v15007EPS3_y CODE
 0001:000111d0 00000033H .text$_ZNSt3__14pairINS_15__hash_iteratorIPNS_11__hash_nodeIiPvEEEEbEC2B6v15007IS6_RbLS3_0EEEOT_OT0_ CODE
 0001:00011210 0000003aH .text$_ZNSt3__14pairINS_21__hash_const_iteratorIPNS_11__hash_nodeIiPvEEEEbEC2B6v15007INS_15__hash_iteratorIS5_EEbLS3_0EEEONS0_IT_T0_EE CODE
 0001:00011250 00000096H .text$_ZNSt3__112__hash_tableIiNS_4hashIiEENS_8equal_toIiEENS_9allocatorIiEEE14__erase_uniqueIiEEyRKT_ CODE
 0001:000112f0 00000029H .text$_ZNSt3__1eqB6v15007ERKNS_15__hash_iteratorIPNS_11__hash_nodeIiPvEEEES7_ CODE
 0001:00011320 0000006dH .text$_ZNSt3__112__hash_tableIiNS_4hashIiEENS_8equal_toIiEENS_9allocatorIiEEE5eraseENS_21__hash_const_iteratorIPNS_11__hash_nodeIiPvEEEE CODE
 0001:00011390 00000014H .text$_ZNSt3__115__hash_iteratorIPNS_11__hash_nodeIiPvEEEppB6v15007Ev CODE
 0001:000113b0 0000025dH .text$_ZNSt3__112__hash_tableIiNS_4hashIiEENS_8equal_toIiEENS_9allocatorIiEEE6removeENS_21__hash_const_iteratorIPNS_11__hash_nodeIiPvEEEE CODE
 0001:00011610 00000019H .text$_ZNSt3__110__function6__baseIFbiiEEC2B6v15007Ev CODE
 0001:00011630 00000007H .text$_ZNSt3__110__function6__baseIFbiiEED2B6v15007Ev CODE
 0001:00011640 00000007H .text$_ZNSt3__110__function6__baseIFbiiEED1B6v15007Ev CODE
 0001:00011650 00000007H .text$_ZNSt3__110__function6__baseIFbiiEED0B6v15007Ev CODE
 0001:00011660 00000019H .text$_ZNSt3__16vectorIiNS_9allocatorIiEEEC1B6v15007ESt16initializer_listIiE CODE
 0001:00011680 00000045H .text$_ZNSt3__17shuffleINS_11__wrap_iterIPiEERNS_23mersenne_twister_engineIjLy32ELy624ELy397ELy31ELj2567483615ELy11ELj4294967295ELy7ELj2636928640ELy15ELj4022730752ELy18ELj1812433253EEEEEvT_S7_OT0_ CODE
 0001:000116d0 00000025H .text$_ZNSt3__16vectorIiNS_9allocatorIiEEE5beginB6v15007Ev CODE
 0001:00011700 00000026H .text$_ZNSt3__16vectorIiNS_9allocatorIiEEE3endB6v15007Ev CODE
 0001:00011730 00000029H .text$_ZNSt3__1neB6v15007IPiEEbRKNS_11__wrap_iterIT_EES6_ CODE
 0001:00011760 0000000eH .text$_ZNKSt3__111__wrap_iterIPiEdeB6v15007Ev CODE
 0001:00011770 00000015H .text$_ZNSt3__111__wrap_iterIPiEppB6v15007Ev CODE
 0001:00011790 00000132H .text$_ZNSt3__16vectorIiNS_9allocatorIiEEEC2B6v15007ESt16initializer_listIiE CODE
 0001:000118d0 0000000fH .text$_ZNKSt16initializer_listIiE4sizeB6v15007Ev CODE
 0001:000118e0 00000099H .text$_ZNSt3__16vectorIiNS_9allocatorIiEEE18__construct_at_endIPKiEENS_9enable_ifIXsr27__is_cpp17_forward_iteratorIT_EE5valueEvE4typeES8_S8_y CODE
 0001:00011980 0000000eH .text$_ZNKSt16initializer_listIiE5beginB6v15007Ev CODE
 0001:00011990 00000019H .text$_ZNKSt16initializer_listIiE3endB6v15007Ev CODE
 0001:000119b0 00000032H .text$_ZNSt3__130__uninitialized_allocator_copyB6v15007INS_9allocatorIiEEiiLPv0EEEPT0_RT_PKS4_S9_S5_ CODE
 0001:000119f0 00000036H .text$_ZNSt3__14copyB6v15007IPKiPiEET0_T_S5_S4_ CODE
 0001:00011a30 000000ccH .text$_ZNSt3__16__copyB6v15007IPKiS2_PiLi0EEENS_4pairIT_T1_EES5_T0_S6_ CODE
 0001:00011b00 0000005cH .text$_ZNSt3__114__unwrap_rangeB6v15007IPKiS2_EENS_4pairIT0_S4_EET_S6_ CODE
 0001:00011b60 000000a9H .text$_ZNSt3__111__copy_implB6v15007IKiivEENS_4pairIPT_PT0_EES4_S4_S6_ CODE
 0001:00011c10 00000019H .text$_ZNSt3__113__unwrap_iterB6v15007IPiNS_18__unwrap_iter_implIS1_Lb1EEELi0EEEDTclsrT0_8__unwrapclsr3stdE7declvalIT_EEEES5_ CODE
 0001:00011c30 00000034H .text$_ZNSt3__19make_pairB6v15007IPKiPiEENS_4pairINS_18__unwrap_ref_decayIT_E4typeENS5_IT0_E4typeEEEOS6_OS9_ CODE
 0001:00011c70 00000023H .text$_ZNSt3__114__rewrap_rangeB6v15007IPKiS2_EET_S3_T0_ CODE
 0001:00011ca0 0000003aH .text$_ZNSt3__113__rewrap_iterB6v15007IPiS1_NS_18__unwrap_iter_implIS1_Lb1EEEEET_S4_T0_ CODE
 0001:00011ce0 00000034H .text$_ZNSt3__19make_pairB6v15007IPKiS2_EENS_4pairINS_18__unwrap_ref_decayIT_E4typeENS4_IT0_E4typeEEEOS5_OS8_ CODE
 0001:00011d20 00000019H .text$_ZNSt3__113__unwrap_iterB6v15007IPKiNS_18__unwrap_iter_implIS2_Lb1EEELi0EEEDTclsrT0_8__unwrapclsr3stdE7declvalIT_EEEES6_ CODE
 0001:00011d40 0000002dH .text$_ZNSt3__14pairIPKiS2_EC1B6v15007IS2_S2_LPv0EEEOT_OT0_ CODE
 0001:00011d70 00000032H .text$_ZNSt3__14pairIPKiS2_EC2B6v15007IS2_S2_LPv0EEEOT_OT0_ CODE
 0001:00011db0 00000019H .text$_ZNSt3__118__unwrap_iter_implIPKiLb1EE8__unwrapB6v15007ES2_ CODE
 0001:00011dd0 0000000bH .text$_ZNSt3__112__to_addressB6v15007IKiEEPT_S3_ CODE
 0001:00011de0 00000019H .text$_ZNSt3__118__unwrap_iter_implIPiLb1EE8__unwrapB6v15007ES1_ CODE
 0001:00011e00 0000002dH .text$_ZNSt3__14pairIPKiPiEC1B6v15007IS2_S3_LPv0EEEOT_OT0_ CODE
 0001:00011e30 00000032H .text$_ZNSt3__14pairIPKiPiEC2B6v15007IS2_S3_LPv0EEEOT_OT0_ CODE
 0001:00011e70 0000003aH .text$_ZNSt3__113__rewrap_iterB6v15007IPKiS2_NS_18__unwrap_iter_implIS2_Lb1EEEEET_S5_T0_ CODE
 0001:00011eb0 0000004cH .text$_ZNSt3__118__unwrap_iter_implIPKiLb1EE8__rewrapB6v15007ES2_S2_ CODE
 0001:00011f00 0000004cH .text$_ZNSt3__118__unwrap_iter_implIPiLb1EE8__rewrapB6v15007ES1_S1_ CODE
 0001:00011f50 00000163H .text$_ZNSt3__19__shuffleINS_17_ClassicAlgPolicyENS_11__wrap_iterIPiEES4_RNS_23mersenne_twister_engineIjLy32ELy624ELy397ELy31ELj2567483615ELy11ELj4294967295ELy7ELj2636928640ELy15ELj4022730752ELy18ELj1812433253EEEEET0_S8_T1_OT2_ CODE
 0001:000120c0 00000020H .text$_ZNSt3__18_IterOpsINS_17_ClassicAlgPolicyEE4nextB6v15007INS_11__wrap_iterIPiEEEET_S7_S7_ CODE
 0001:000120e0 0000003bH .text$_ZNSt3__1miB6v15007IPiS1_EEDTmicldtfp_4baseEcldtfp0_4baseEERKNS_11__wrap_iterIT_EERKNS3_IT0_EE CODE
 0001:00012120 0000002fH .text$_ZNSt3__124uniform_int_distributionIxEC1Ev CODE
 0001:00012150 00000015H .text$_ZNSt3__111__wrap_iterIPiEmmB6v15007Ev CODE
 0001:00012170 0000003fH .text$_ZNSt3__1ltB6v15007IPiEEbRKNS_11__wrap_iterIT_EES6_ CODE
 0001:000121b0 000001b6H .text$_ZNSt3__124uniform_int_distributionIxEclINS_23mersenne_twister_engineIjLy32ELy624ELy397ELy31ELj2567483615ELy11ELj4294967295ELy7ELj2636928640ELy15ELj4022730752ELy18ELj1812433253EEEEExRT_RKNS1_10param_typeE CODE
 0001:00012370 0000002dH .text$_ZNSt3__124uniform_int_distributionIxE10param_typeC1Exx CODE
 0001:000123a0 0000003dH .text$_ZNSt3__18_IterOpsINS_17_ClassicAlgPolicyEE9iter_swapB6v15007IRNS_11__wrap_iterIPiEES6_EEvOT_OT0_ CODE
 0001:000123e0 00000034H .text$_ZNKSt3__111__wrap_iterIPiEplB6v15007Ex CODE
 0001:00012420 0000000eH .text$_ZNKSt3__111__wrap_iterIPiE4baseB6v15007Ev CODE
 0001:00012430 0000002dH .text$_ZNSt3__124uniform_int_distributionIxEC1Exx CODE
 0001:00012460 0000002dH .text$_ZNSt3__124uniform_int_distributionIxEC2Exx CODE
 0001:00012490 0000000fH .text$_ZNKSt3__124uniform_int_distributionIxE10param_type1bEv CODE
 0001:000124a0 0000000eH .text$_ZNKSt3__124uniform_int_distributionIxE10param_type1aEv CODE
 0001:000124b0 0000002dH .text$_ZNSt3__125__independent_bits_engineINS_23mersenne_twister_engineIjLy32ELy624ELy397ELy31ELj2567483615ELy11ELj4294967295ELy7ELj2636928640ELy15ELj4022730752ELy18ELj1812433253EEEyEC1ERS2_y CODE
 0001:000124e0 0000001dH .text$_ZNSt3__125__independent_bits_engineINS_23mersenne_twister_engineIjLy32ELy624ELy397ELy31ELj2567483615ELy11ELj4294967295ELy7ELj2636928640ELy15ELj4022730752ELy18ELj1812433253EEEyEclEv CODE
 0001:00012500 0000003cH .text$_ZNSt3__113__countl_zeroB6v15007IyEEiT_ CODE
 0001:00012540 0000000fH .text$_ZNSt3__114numeric_limitsIyE3maxB6v15007Ev CODE
 0001:00012550 00000246H .text$_ZNSt3__125__independent_bits_engineINS_23mersenne_twister_engineIjLy32ELy624ELy397ELy31ELj2567483615ELy11ELj4294967295ELy7ELj2636928640ELy15ELj4022730752ELy18ELj1812433253EEEyEC2ERS2_y CODE
 0001:000127a0 000001a8H .text$_ZNSt3__125__independent_bits_engineINS_23mersenne_twister_engineIjLy32ELy624ELy397ELy31ELj2567483615ELy11ELj4294967295ELy7ELj2636928640ELy15ELj4022730752ELy18ELj1812433253EEEyE6__evalENS_17integral_constantIbLb1EEE CODE
 0001:00012950 00000141H .text$_ZNSt3__123mersenne_twister_engineIjLy32ELy624ELy397ELy31ELj2567483615ELy11ELj4294967295ELy7ELj2636928640ELy15ELj4022730752ELy18ELj1812433253EEclEv CODE
 0001:00012aa0 00000003H .text$_ZNSt3__123mersenne_twister_engineIjLy32ELy624ELy397ELy31ELj2567483615ELy11ELj4294967295ELy7ELj2636928640ELy15ELj4022730752ELy18ELj1812433253EE3minB6v15007Ev CODE
 0001:00012ab0 0000000eH .text$_ZNSt3__123mersenne_twister_engineIjLy32ELy624ELy397ELy31ELj2567483615ELy11ELj4294967295ELy7ELj2636928640ELy15ELj4022730752ELy18ELj1812433253EE8__rshiftB6v15007ILy1EEENS_9enable_ifIXltT_L_ZNS1_3_DtEEEjE4typeEj CODE
 0001:00012ac0 0000000eH .text$_ZNSt3__123mersenne_twister_engineIjLy32ELy624ELy397ELy31ELj2567483615ELy11ELj4294967295ELy7ELj2636928640ELy15ELj4022730752ELy18ELj1812433253EE8__rshiftB6v15007ILy11EEENS_9enable_ifIXltT_L_ZNS1_3_DtEEEjE4typeEj CODE
 0001:00012ad0 00000011H .text$_ZNSt3__123mersenne_twister_engineIjLy32ELy624ELy397ELy31ELj2567483615ELy11ELj4294967295ELy7ELj2636928640ELy15ELj4022730752ELy18ELj1812433253EE8__lshiftB6v15007ILy7EEENS_9enable_ifIXltT_Ly32EEjE4typeEj CODE
 0001:00012af0 00000011H .text$_ZNSt3__123mersenne_twister_engineIjLy32ELy624ELy397ELy31ELj2567483615ELy11ELj4294967295ELy7ELj2636928640ELy15ELj4022730752ELy18ELj1812433253EE8__lshiftB6v15007ILy15EEENS_9enable_ifIXltT_Ly32EEjE4typeEj CODE
 0001:00012b10 0000000eH .text$_ZNSt3__123mersenne_twister_engineIjLy32ELy624ELy397ELy31ELj2567483615ELy11ELj4294967295ELy7ELj2636928640ELy15ELj4022730752ELy18ELj1812433253EE8__rshiftB6v15007ILy18EEENS_9enable_ifIXltT_L_ZNS1_3_DtEEEjE4typeEj CODE
 0001:00012b20 00000008H .text$_ZNSt3__123__libcpp_numeric_limitsIyLb1EE3maxB6v15007Ev CODE
 0001:00012b30 0000002cH .text$_ZNSt3__124uniform_int_distributionIxE10param_typeC2Exx CODE
 0001:00012b60 0000003aH .text$_ZNSt3__19iter_swapB6v15007INS_11__wrap_iterIPiEES3_EEvT_T0_ CODE
 0001:00012ba0 00000037H .text$_ZNSt3__14swapB6v15007IiEENS_9enable_ifIXaasr21is_move_constructibleIT_EE5valuesr18is_move_assignableIS2_EE5valueEvE4typeERS2_S5_ CODE
 0001:00012be0 00000025H .text$_ZNSt3__111__wrap_iterIPiEpLB6v15007Ex CODE
 0001:00012c10 0000002dH .text$_ZNSt3__111__wrap_iterIPiEC1B6v15007EPKvS1_ CODE
 0001:00012c40 00000023H .text$_ZNSt3__111__wrap_iterIPiEC2B6v15007EPKvS1_ CODE
 0001:00012c70 0000003fH .text$_ZNSt3__1eqB6v15007IPiEEbRKNS_11__wrap_iterIT_EES6_ CODE
 0001:00012cb0 00000067H .text$_ZNKSt9type_infoeqB6v15007ERKS_ CODE
 0001:00012d20 00000019H .text$_ZNSt3__18functionIFbiiEED2Ev CODE
 0001:00012d40 00000019H .text$_ZNSt3__110__function12__value_funcIFbiiEED1B6v15007Ev CODE
 0001:00012d60 0000005dH .text$_ZNSt3__110__function12__value_funcIFbiiEED2B6v15007Ev CODE
 0001:00012dc0 000000ebH .text$_ZNSt3__16vectorINS_13unordered_setIiNS_4hashIiEENS_8equal_toIiEENS_9allocatorIiEEEENS6_IS8_EEEC2Ey CODE
 0001:00012eb0 0000002dH .text$_ZNSt3__117__compressed_pairIPNS_13unordered_setIiNS_4hashIiEENS_8equal_toIiEENS_9allocatorIiEEEENS6_IS8_EEEC1B6v15007IDnNS_18__default_init_tagEEEOT_OT0_ CODE
 0001:00012ee0 00000034H .text$_ZNSt3__118__make_transactionB6v15007INS_6vectorINS_13unordered_setIiNS_4hashIiEENS_8equal_toIiEENS_9allocatorIiEEEENS7_IS9_EEE16__destroy_vectorEEENS_13__transactionIT_EESE_ CODE
 0001:00012f20 00000023H .text$_ZNSt3__16vectorINS_13unordered_setIiNS_4hashIiEENS_8equal_toIiEENS_9allocatorIiEEEENS6_IS8_EEE16__destroy_vectorC1ERSA_ CODE
 0001:00012f50 00000007H .text$_ZNSt3__119__debug_db_insert_cB6v15007INS_6vectorINS_13unordered_setIiNS_4hashIiEENS_8equal_toIiEENS_9allocatorIiEEEENS7_IS9_EEEEEEvPT_ CODE
 0001:00012f60 000000a6H .text$_ZNSt3__16vectorINS_13unordered_setIiNS_4hashIiEENS_8equal_toIiEENS_9allocatorIiEEEENS6_IS8_EEE11__vallocateB6v15007Ey CODE
 0001:00013010 000000cbH .text$_ZNSt3__16vectorINS_13unordered_setIiNS_4hashIiEENS_8equal_toIiEENS_9allocatorIiEEEENS6_IS8_EEE18__construct_at_endEy CODE
 0001:000130e0 0000000fH .text$_ZNSt3__113__transactionINS_6vectorINS_13unordered_setIiNS_4hashIiEENS_8equal_toIiEENS_9allocatorIiEEEENS7_IS9_EEE16__destroy_vectorEE10__completeB6v15007Ev CODE
 0001:000130f0 00000019H .text$_ZNSt3__113__transactionINS_6vectorINS_13unordered_setIiNS_4hashIiEENS_8equal_toIiEENS_9allocatorIiEEEENS7_IS9_EEE16__destroy_vectorEED1B6v15007Ev CODE
 0001:00013110 0000003bH .text$_ZNSt3__117__compressed_pairIPNS_13unordered_setIiNS_4hashIiEENS_8equal_toIiEENS_9allocatorIiEEEENS6_IS8_EEEC2B6v15007IDnNS_18__default_init_tagEEEOT_OT0_ CODE
 0001:00013150 0000001eH .text$_ZNSt3__122__compressed_pair_elemIPNS_13unordered_setIiNS_4hashIiEENS_8equal_toIiEENS_9allocatorIiEEEELi0ELb0EEC2B6v15007IDnvEEOT_ CODE
 0001:00013170 0000001dH .text$_ZNSt3__122__compressed_pair_elemINS_9allocatorINS_13unordered_setIiNS_4hashIiEENS_8equal_toIiEENS1_IiEEEEEELi1ELb1EEC2B6v15007ENS_18__default_init_tagE CODE
 0001:00013190 00000019H .text$_ZNSt3__19allocatorINS_13unordered_setIiNS_4hashIiEENS_8equal_toIiEENS0_IiEEEEEC2B6v15007Ev CODE
 0001:000131b0 00000007H .text$_ZNSt3__116__non_trivial_ifILb1ENS_9allocatorINS_13unordered_setIiNS_4hashIiEENS_8equal_toIiEENS1_IiEEEEEEEC2B6v15007Ev CODE
 0001:000131c0 00000023H .text$_ZNSt3__113__transactionINS_6vectorINS_13unordered_setIiNS_4hashIiEENS_8equal_toIiEENS_9allocatorIiEEEENS7_IS9_EEE16__destroy_vectorEEC1B6v15007ESC_ CODE
 0001:000131f0 00000022H .text$_ZNSt3__113__transactionINS_6vectorINS_13unordered_setIiNS_4hashIiEENS_8equal_toIiEENS_9allocatorIiEEEENS7_IS9_EEE16__destroy_vectorEEC2B6v15007ESC_ CODE
 0001:00013220 0000001eH .text$_ZNSt3__16vectorINS_13unordered_setIiNS_4hashIiEENS_8equal_toIiEENS_9allocatorIiEEEENS6_IS8_EEE16__destroy_vectorC2ERSA_ CODE
 0001:00013240 00000059H .text$_ZNKSt3__16vectorINS_13unordered_setIiNS_4hashIiEENS_8equal_toIiEENS_9allocatorIiEEEENS6_IS8_EEE8max_sizeEv CODE
 0001:000132a0 00000016H .text$_ZNKSt3__16vectorINS_13unordered_setIiNS_4hashIiEENS_8equal_toIiEENS_9allocatorIiEEEENS6_IS8_EEE20__throw_length_errorB6v15007Ev CODE
 0001:000132c0 0000004dH .text$_ZNSt3__119__allocate_at_leastB6v15007INS_9allocatorINS_13unordered_setIiNS_4hashIiEENS_8equal_toIiEENS1_IiEEEEEEEENS_19__allocation_resultINS_16allocator_traitsIT_E7pointerEEERSC_y CODE
 0001:00013310 0000001dH .text$_ZNSt3__16vectorINS_13unordered_setIiNS_4hashIiEENS_8equal_toIiEENS_9allocatorIiEEEENS6_IS8_EEE7__allocB6v15007Ev CODE
 0001:00013330 0000001dH .text$_ZNSt3__16vectorINS_13unordered_setIiNS_4hashIiEENS_8equal_toIiEENS_9allocatorIiEEEENS6_IS8_EEE9__end_capB6v15007Ev CODE
 0001:00013350 000000b3H .text$_ZNKSt3__16vectorINS_13unordered_setIiNS_4hashIiEENS_8equal_toIiEENS_9allocatorIiEEEENS6_IS8_EEE14__annotate_newB6v15007Ey CODE
 0001:00013410 00000019H .text$_ZNSt3__116allocator_traitsINS_9allocatorINS_13unordered_setIiNS_4hashIiEENS_8equal_toIiEENS1_IiEEEEEEE8max_sizeB6v15007IS9_vEEyRKS9_ CODE
 0001:00013430 0000001dH .text$_ZNKSt3__16vectorINS_13unordered_setIiNS_4hashIiEENS_8equal_toIiEENS_9allocatorIiEEEENS6_IS8_EEE7__allocB6v15007Ev CODE
 0001:00013450 00000011H .text$_ZNKSt3__19allocatorINS_13unordered_setIiNS_4hashIiEENS_8equal_toIiEENS0_IiEEEEE8max_sizeB6v15007Ev CODE
 0001:00013470 00000019H .text$_ZNKSt3__117__compressed_pairIPNS_13unordered_setIiNS_4hashIiEENS_8equal_toIiEENS_9allocatorIiEEEENS6_IS8_EEE6secondB6v15007Ev CODE
 0001:00013490 0000000bH .text$_ZNKSt3__122__compressed_pair_elemINS_9allocatorINS_13unordered_setIiNS_4hashIiEENS_8equal_toIiEENS1_IiEEEEEELi1ELb1EE5__getB6v15007Ev CODE
 0001:000134a0 0000004eH .text$_ZNSt3__19allocatorINS_13unordered_setIiNS_4hashIiEENS_8equal_toIiEENS0_IiEEEEE8allocateB6v15007Ey CODE
 0001:000134f0 00000019H .text$_ZNSt3__117__compressed_pairIPNS_13unordered_setIiNS_4hashIiEENS_8equal_toIiEENS_9allocatorIiEEEENS6_IS8_EEE6secondB6v15007Ev CODE
 0001:00013510 0000000bH .text$_ZNSt3__122__compressed_pair_elemINS_9allocatorINS_13unordered_setIiNS_4hashIiEENS_8equal_toIiEENS1_IiEEEEEELi1ELb1EE5__getB6v15007Ev CODE
 0001:00013520 00000019H .text$_ZNSt3__117__compressed_pairIPNS_13unordered_setIiNS_4hashIiEENS_8equal_toIiEENS_9allocatorIiEEEENS6_IS8_EEE5firstB6v15007Ev CODE
 0001:00013540 0000000bH .text$_ZNSt3__122__compressed_pair_elemIPNS_13unordered_setIiNS_4hashIiEENS_8equal_toIiEENS_9allocatorIiEEEELi0ELb0EE5__getB6v15007Ev CODE
 0001:00013550 00000021H .text$_ZNKSt3__16vectorINS_13unordered_setIiNS_4hashIiEENS_8equal_toIiEENS_9allocatorIiEEEENS6_IS8_EEE31__annotate_contiguous_containerB6v15007EPKvSC_SC_SC_ CODE
 0001:00013580 0000001cH .text$_ZNKSt3__16vectorINS_13unordered_setIiNS_4hashIiEENS_8equal_toIiEENS_9allocatorIiEEEENS6_IS8_EEE4dataB6v15007Ev CODE
 0001:000135a0 00000035H .text$_ZNKSt3__16vectorINS_13unordered_setIiNS_4hashIiEENS_8equal_toIiEENS_9allocatorIiEEEENS6_IS8_EEE8capacityB6v15007Ev CODE
 0001:000135e0 0000000bH .text$_ZNSt3__112__to_addressB6v15007INS_13unordered_setIiNS_4hashIiEENS_8equal_toIiEENS_9allocatorIiEEEEEEPT_SA_ CODE
 0001:000135f0 0000001dH .text$_ZNKSt3__16vectorINS_13unordered_setIiNS_4hashIiEENS_8equal_toIiEENS_9allocatorIiEEEENS6_IS8_EEE9__end_capB6v15007Ev CODE
 0001:00013610 00000019H .text$_ZNKSt3__117__compressed_pairIPNS_13unordered_setIiNS_4hashIiEENS_8equal_toIiEENS_9allocatorIiEEEENS6_IS8_EEE5firstB6v15007Ev CODE
 0001:00013630 0000000bH .text$_ZNKSt3__122__compressed_pair_elemIPNS_13unordered_setIiNS_4hashIiEENS_8equal_toIiEENS_9allocatorIiEEEELi0ELb0EE5__getB6v15007Ev CODE
 0001:00013640 0000002dH .text$_ZNSt3__16vectorINS_13unordered_setIiNS_4hashIiEENS_8equal_toIiEENS_9allocatorIiEEEENS6_IS8_EEE21_ConstructTransactionC1ERSA_y CODE
 0001:00013670 00000023H .text$_ZNSt3__116allocator_traitsINS_9allocatorINS_13unordered_setIiNS_4hashIiEENS_8equal_toIiEENS1_IiEEEEEEE9constructB6v15007IS8_JEvEEvRS9_PT_DpOT0_ CODE
 0001:000136a0 00000019H .text$_ZNSt3__16vectorINS_13unordered_setIiNS_4hashIiEENS_8equal_toIiEENS_9allocatorIiEEEENS6_IS8_EEE21_ConstructTransactionD1Ev CODE
 0001:000136c0 00000046H .text$_ZNSt3__16vectorINS_13unordered_setIiNS_4hashIiEENS_8equal_toIiEENS_9allocatorIiEEEENS6_IS8_EEE21_ConstructTransactionC2ERSA_y CODE
 0001:00013710 0000001eH .text$_ZNSt3__19allocatorINS_13unordered_setIiNS_4hashIiEENS_8equal_toIiEENS0_IiEEEEE9constructB6v15007IS7_JEEEvPT_DpOT0_ CODE
 0001:00013730 00000016H .text$_ZNSt3__16vectorINS_13unordered_setIiNS_4hashIiEENS_8equal_toIiEENS_9allocatorIiEEEENS6_IS8_EEE21_ConstructTransactionD2Ev CODE
 0001:00013750 0000003fH .text$_ZNSt3__113__transactionINS_6vectorINS_13unordered_setIiNS_4hashIiEENS_8equal_toIiEENS_9allocatorIiEEEENS7_IS9_EEE16__destroy_vectorEED2B6v15007Ev CODE
 0001:00013790 0000008cH .text$_ZNSt3__16vectorINS_13unordered_setIiNS_4hashIiEENS_8equal_toIiEENS_9allocatorIiEEEENS6_IS8_EEE16__destroy_vectorclB6v15007Ev CODE
 0001:00013820 000000c3H .text$_ZNKSt3__16vectorINS_13unordered_setIiNS_4hashIiEENS_8equal_toIiEENS_9allocatorIiEEEENS6_IS8_EEE17__annotate_deleteB6v15007Ev CODE
 0001:000138f0 00000007H .text$_ZNSt3__118__debug_db_erase_cB6v15007INS_6vectorINS_13unordered_setIiNS_4hashIiEENS_8equal_toIiEENS_9allocatorIiEEEENS7_IS9_EEEEEEvPT_ CODE
 0001:00013900 0000001cH .text$_ZNSt3__16vectorINS_13unordered_setIiNS_4hashIiEENS_8equal_toIiEENS_9allocatorIiEEEENS6_IS8_EEE7__clearB6v15007Ev CODE
 0001:00013920 0000002dH .text$_ZNSt3__116allocator_traitsINS_9allocatorINS_13unordered_setIiNS_4hashIiEENS_8equal_toIiEENS1_IiEEEEEEE10deallocateB6v15007ERS9_PS8_y CODE
 0001:00013950 0000001fH .text$_ZNKSt3__16vectorINS_13unordered_setIiNS_4hashIiEENS_8equal_toIiEENS_9allocatorIiEEEENS6_IS8_EEE4sizeB6v15007Ev CODE
 0001:00013970 00000086H .text$_ZNSt3__16vectorINS_13unordered_setIiNS_4hashIiEENS_8equal_toIiEENS_9allocatorIiEEEENS6_IS8_EEE22__base_destruct_at_endB6v15007EPS8_ CODE
 0001:00013a00 00000023H .text$_ZNSt3__116allocator_traitsINS_9allocatorINS_13unordered_setIiNS_4hashIiEENS_8equal_toIiEENS1_IiEEEEEEE7destroyB6v15007IS8_vEEvRS9_PT_ CODE
 0001:00013a30 0000001eH .text$_ZNSt3__19allocatorINS_13unordered_setIiNS_4hashIiEENS_8equal_toIiEENS0_IiEEEEE7destroyB6v15007EPS7_ CODE
 0001:00013a50 00000043H .text$_ZNSt3__19allocatorINS_13unordered_setIiNS_4hashIiEENS_8equal_toIiEENS0_IiEEEEE10deallocateB6v15007EPS7_y CODE
 0001:00013aa0 0000003aH .text$_ZNSt3__16vectorINS_13unordered_setIiNS_4hashIiEENS_8equal_toIiEENS_9allocatorIiEEEENS6_IS8_EEED2B6v15007Ev CODE
 0001:00013ae0 00000060H .text$_ZNSt3__16vectorINS_4pairIiiEENS_9allocatorIS2_EEEC2B6v15007Ev CODE
 0001:00013b40 0000002dH .text$_ZNSt3__117__compressed_pairIPNS_4pairIiiEENS_9allocatorIS2_EEEC1B6v15007IDnNS_18__default_init_tagEEEOT_OT0_ CODE
 0001:00013b70 00000007H .text$_ZNSt3__119__debug_db_insert_cB6v15007INS_6vectorINS_4pairIiiEENS_9allocatorIS3_EEEEEEvPT_ CODE
 0001:00013b80 0000003bH .text$_ZNSt3__117__compressed_pairIPNS_4pairIiiEENS_9allocatorIS2_EEEC2B6v15007IDnNS_18__default_init_tagEEEOT_OT0_ CODE
 0001:00013bc0 0000001eH .text$_ZNSt3__122__compressed_pair_elemIPNS_4pairIiiEELi0ELb0EEC2B6v15007IDnvEEOT_ CODE
 0001:00013be0 0000001dH .text$_ZNSt3__122__compressed_pair_elemINS_9allocatorINS_4pairIiiEEEELi1ELb1EEC2B6v15007ENS_18__default_init_tagE CODE
 0001:00013c00 00000019H .text$_ZNSt3__19allocatorINS_4pairIiiEEEC2B6v15007Ev CODE
 0001:00013c20 00000007H .text$_ZNSt3__116__non_trivial_ifILb1ENS_9allocatorINS_4pairIiiEEEEEC2B6v15007Ev CODE
 0001:00013c30 0000003aH .text$_ZNSt3__16vectorINS_4pairIiiEENS_9allocatorIS2_EEED2B6v15007Ev CODE
 0001:00013c70 00000023H .text$_ZNSt3__16vectorINS_4pairIiiEENS_9allocatorIS2_EEE16__destroy_vectorC1ERS5_ CODE
 0001:00013ca0 0000008cH .text$_ZNSt3__16vectorINS_4pairIiiEENS_9allocatorIS2_EEE16__destroy_vectorclB6v15007Ev CODE
 0001:00013d30 0000001eH .text$_ZNSt3__16vectorINS_4pairIiiEENS_9allocatorIS2_EEE16__destroy_vectorC2ERS5_ CODE
 0001:00013d50 000000c3H .text$_ZNKSt3__16vectorINS_4pairIiiEENS_9allocatorIS2_EEE17__annotate_deleteB6v15007Ev CODE
 0001:00013e20 00000007H .text$_ZNSt3__118__debug_db_erase_cB6v15007INS_6vectorINS_4pairIiiEENS_9allocatorIS3_EEEEEEvPT_ CODE
 0001:00013e30 0000001cH .text$_ZNSt3__16vectorINS_4pairIiiEENS_9allocatorIS2_EEE7__clearB6v15007Ev CODE
 0001:00013e50 0000002dH .text$_ZNSt3__116allocator_traitsINS_9allocatorINS_4pairIiiEEEEE10deallocateB6v15007ERS4_PS3_y CODE
 0001:00013e80 0000001dH .text$_ZNSt3__16vectorINS_4pairIiiEENS_9allocatorIS2_EEE7__allocB6v15007Ev CODE
 0001:00013ea0 0000002fH .text$_ZNKSt3__16vectorINS_4pairIiiEENS_9allocatorIS2_EEE8capacityB6v15007Ev CODE
 0001:00013ed0 00000021H .text$_ZNKSt3__16vectorINS_4pairIiiEENS_9allocatorIS2_EEE31__annotate_contiguous_containerB6v15007EPKvS7_S7_S7_ CODE
 0001:00013f00 0000001cH .text$_ZNKSt3__16vectorINS_4pairIiiEENS_9allocatorIS2_EEE4dataB6v15007Ev CODE
 0001:00013f20 00000019H .text$_ZNKSt3__16vectorINS_4pairIiiEENS_9allocatorIS2_EEE4sizeB6v15007Ev CODE
 0001:00013f40 0000000bH .text$_ZNSt3__112__to_addressB6v15007INS_4pairIiiEEEEPT_S4_ CODE
 0001:00013f50 00000086H .text$_ZNSt3__16vectorINS_4pairIiiEENS_9allocatorIS2_EEE22__base_destruct_at_endB6v15007EPS2_ CODE
 0001:00013fe0 00000023H .text$_ZNSt3__116allocator_traitsINS_9allocatorINS_4pairIiiEEEEE7destroyB6v15007IS3_vEEvRS4_PT_ CODE
 0001:00014010 00000012H .text$_ZNSt3__19allocatorINS_4pairIiiEEE7destroyB6v15007EPS2_ CODE
 0001:00014030 0000003fH .text$_ZNSt3__19allocatorINS_4pairIiiEEE10deallocateB6v15007EPS2_y CODE
 0001:00014070 00000019H .text$_ZNSt3__117__compressed_pairIPNS_4pairIiiEENS_9allocatorIS2_EEE6secondB6v15007Ev CODE
 0001:00014090 0000000bH .text$_ZNSt3__122__compressed_pair_elemINS_9allocatorINS_4pairIiiEEEELi1ELb1EE5__getB6v15007Ev CODE
 0001:000140a0 0000001dH .text$_ZNKSt3__16vectorINS_4pairIiiEENS_9allocatorIS2_EEE9__end_capB6v15007Ev CODE
 0001:000140c0 00000019H .text$_ZNKSt3__117__compressed_pairIPNS_4pairIiiEENS_9allocatorIS2_EEE5firstB6v15007Ev CODE
 0001:000140e0 0000000bH .text$_ZNKSt3__122__compressed_pair_elemIPNS_4pairIiiEELi0ELb0EE5__getB6v15007Ev CODE
 0001:000140f0 0000001dH .text$_ZNSt3__16vectorINS_4pairIiiEENS_9allocatorIS2_EEE9__end_capB6v15007Ev CODE
 0001:00014110 00000099H .text$_ZNSt3__16vectorINS_4pairIiiEENS_9allocatorIS2_EEE22__construct_one_at_endB6v15007IJS2_EEEvDpOT_ CODE
 0001:000141b0 000000eeH .text$_ZNSt3__16vectorINS_4pairIiiEENS_9allocatorIS2_EEE21__push_back_slow_pathIS2_EEvOT_ CODE
 0001:000142a0 00000019H .text$_ZNSt3__117__compressed_pairIPNS_4pairIiiEENS_9allocatorIS2_EEE5firstB6v15007Ev CODE
 0001:000142c0 0000000bH .text$_ZNSt3__122__compressed_pair_elemIPNS_4pairIiiEELi0ELb0EE5__getB6v15007Ev CODE
 0001:000142d0 0000002dH .text$_ZNSt3__16vectorINS_4pairIiiEENS_9allocatorIS2_EEE21_ConstructTransactionC1ERS5_y CODE
 0001:00014300 0000002dH .text$_ZNSt3__116allocator_traitsINS_9allocatorINS_4pairIiiEEEEE9constructB6v15007IS3_JS3_EvEEvRS4_PT_DpOT0_ CODE
 0001:00014330 00000019H .text$_ZNSt3__16vectorINS_4pairIiiEENS_9allocatorIS2_EEE21_ConstructTransactionD1Ev CODE
 0001:00014350 00000049H .text$_ZNSt3__16vectorINS_4pairIiiEENS_9allocatorIS2_EEE21_ConstructTransactionC2ERS5_y CODE
 0001:000143a0 00000026H .text$_ZNSt3__19allocatorINS_4pairIiiEEE9constructB6v15007IS2_JS2_EEEvPT_DpOT0_ CODE
 0001:000143d0 00000016H .text$_ZNSt3__16vectorINS_4pairIiiEENS_9allocatorIS2_EEE21_ConstructTransactionD2Ev CODE
 0001:000143f0 000000a0H .text$_ZNKSt3__16vectorINS_4pairIiiEENS_9allocatorIS2_EEE11__recommendB6v15007Ey CODE
 0001:00014490 00000037H .text$_ZNSt3__114__split_bufferINS_4pairIiiEERNS_9allocatorIS2_EEEC1EyyS5_ CODE
 0001:000144d0 0000014cH .text$_ZNSt3__16vectorINS_4pairIiiEENS_9allocatorIS2_EEE26__swap_out_circular_bufferERNS_14__split_bufferIS2_RS4_EE CODE
 0001:00014620 00000019H .text$_ZNSt3__114__split_bufferINS_4pairIiiEERNS_9allocatorIS2_EEED1Ev CODE
 0001:00014640 00000059H .text$_ZNKSt3__16vectorINS_4pairIiiEENS_9allocatorIS2_EEE8max_sizeEv CODE
 0001:000146a0 00000016H .text$_ZNKSt3__16vectorINS_4pairIiiEENS_9allocatorIS2_EEE20__throw_length_errorB6v15007Ev CODE
 0001:000146c0 00000019H .text$_ZNSt3__116allocator_traitsINS_9allocatorINS_4pairIiiEEEEE8max_sizeB6v15007IS4_vEEyRKS4_ CODE
 0001:000146e0 0000001dH .text$_ZNKSt3__16vectorINS_4pairIiiEENS_9allocatorIS2_EEE7__allocB6v15007Ev CODE
 0001:00014700 00000011H .text$_ZNKSt3__19allocatorINS_4pairIiiEEE8max_sizeB6v15007Ev CODE
 0001:00014720 00000019H .text$_ZNKSt3__117__compressed_pairIPNS_4pairIiiEENS_9allocatorIS2_EEE6secondB6v15007Ev CODE
 0001:00014740 0000000bH .text$_ZNKSt3__122__compressed_pair_elemINS_9allocatorINS_4pairIiiEEEELi1ELb1EE5__getB6v15007Ev CODE
 0001:00014750 000000d0H .text$_ZNSt3__114__split_bufferINS_4pairIiiEERNS_9allocatorIS2_EEEC2EyyS5_ CODE
 0001:00014820 0000002dH .text$_ZNSt3__117__compressed_pairIPNS_4pairIiiEERNS_9allocatorIS2_EEEC1B6v15007IDnS6_EEOT_OT0_ CODE
 0001:00014850 0000004dH .text$_ZNSt3__119__allocate_at_leastB6v15007INS_9allocatorINS_4pairIiiEEEEEENS_19__allocation_resultINS_16allocator_traitsIT_E7pointerEEERS7_y CODE
 0001:000148a0 0000001dH .text$_ZNSt3__114__split_bufferINS_4pairIiiEERNS_9allocatorIS2_EEE7__allocB6v15007Ev CODE
 0001:000148c0 0000001dH .text$_ZNSt3__114__split_bufferINS_4pairIiiEERNS_9allocatorIS2_EEE9__end_capB6v15007Ev CODE
 0001:000148e0 00000040H .text$_ZNSt3__117__compressed_pairIPNS_4pairIiiEERNS_9allocatorIS2_EEEC2B6v15007IDnS6_EEOT_OT0_ CODE
 0001:00014920 0000001eH .text$_ZNSt3__122__compressed_pair_elemIRNS_9allocatorINS_4pairIiiEEEELi1ELb0EEC2B6v15007IS5_vEEOT_ CODE
 0001:00014940 00000051H .text$_ZNSt3__19allocatorINS_4pairIiiEEE8allocateB6v15007Ey CODE
 0001:000149a0 0000001dH .text$_ZNSt3__117__compressed_pairIPNS_4pairIiiEERNS_9allocatorIS2_EEE6secondB6v15007Ev CODE
 0001:000149c0 0000000eH .text$_ZNSt3__122__compressed_pair_elemIRNS_9allocatorINS_4pairIiiEEEELi1ELb0EE5__getB6v15007Ev CODE
 0001:000149d0 00000019H .text$_ZNSt3__117__compressed_pairIPNS_4pairIiiEERNS_9allocatorIS2_EEE5firstB6v15007Ev CODE
 0001:000149f0 000001a8H .text$_ZNSt3__142__uninitialized_allocator_move_if_noexceptB6v15007INS_9allocatorINS_4pairIiiEEEENS_16reverse_iteratorIPS3_EES7_S7_EET2_RT_T0_T1_S8_ CODE
 0001:00014ba0 00000023H .text$_ZNSt3__116reverse_iteratorIPNS_4pairIiiEEEC1B6v15007ES3_ CODE
 0001:00014bd0 0000000fH .text$_ZNKSt3__116reverse_iteratorIPNS_4pairIiiEEE4baseB6v15007Ev CODE
 0001:00014be0 0000003bH .text$_ZNSt3__14swapB6v15007IPNS_4pairIiiEEEENS_9enable_ifIXaasr21is_move_constructibleIT_EE5valuesr18is_move_assignableIS5_EE5valueEvE4typeERS5_S8_ CODE
 0001:00014c20 000000b6H .text$_ZNKSt3__16vectorINS_4pairIiiEENS_9allocatorIS2_EEE14__annotate_newB6v15007Ey CODE
 0001:00014ce0 00000007H .text$_ZNSt3__125__debug_db_invalidate_allB6v15007INS_6vectorINS_4pairIiiEENS_9allocatorIS3_EEEEEEvPT_ CODE
 0001:00014cf0 0000003fH .text$_ZNSt3__1neB6v15007IPNS_4pairIiiEES3_EEbRKNS_16reverse_iteratorIT_EERKNS4_IT0_EE CODE
 0001:00014d30 00000019H .text$_ZNSt3__112__to_addressB6v15007INS_16reverse_iteratorIPNS_4pairIiiEEEEvEENS_5decayIDTclsr19__to_address_helperIT_EE6__callcl7declvalIRKS7_EEEEE4typeES9_ CODE
 0001:00014d50 00000027H .text$_ZNKSt3__116reverse_iteratorIPNS_4pairIiiEEEdeB6v15007Ev CODE
 0001:00014d80 00000017H .text$_ZNSt3__116reverse_iteratorIPNS_4pairIiiEEEppB6v15007Ev CODE
 0001:00014da0 00000037H .text$_ZNSt3__129_AllocatorDestroyRangeReverseINS_9allocatorINS_4pairIiiEEEENS_16reverse_iteratorIPS3_EEEC1B6v15007ERS4_RS7_SA_ CODE
 0001:00014de0 0000008eH .text$_ZNKSt3__129_AllocatorDestroyRangeReverseINS_9allocatorINS_4pairIiiEEEENS_16reverse_iteratorIPS3_EEEclB6v15007Ev CODE
 0001:00014e70 00000036H .text$_ZNSt3__119__to_address_helperINS_16reverse_iteratorIPNS_4pairIiiEEEEvE6__callB6v15007ERKS5_ CODE
 0001:00014eb0 00000019H .text$_ZNKSt3__116reverse_iteratorIPNS_4pairIiiEEEptB6v15007Ev CODE
 0001:00014ed0 0000003aH .text$_ZNSt3__129_AllocatorDestroyRangeReverseINS_9allocatorINS_4pairIiiEEEENS_16reverse_iteratorIPS3_EEEC2B6v15007ERS4_RS7_SA_ CODE
 0001:00014f10 00000064H .text$_ZNSt3__119__allocator_destroyB6v15007INS_9allocatorINS_4pairIiiEEEENS_16reverse_iteratorINS5_IPS3_EEEES8_EEvRT_T0_T1_ CODE
 0001:00014f80 00000019H .text$_ZNSt3__116reverse_iteratorINS0_IPNS_4pairIiiEEEEEC1B6v15007ES4_ CODE
 0001:00014fa0 00000045H .text$_ZNSt3__1neB6v15007INS_16reverse_iteratorIPNS_4pairIiiEEEES5_EEbRKNS1_IT_EERKNS1_IT0_EE CODE
 0001:00014ff0 00000019H .text$_ZNSt3__112__to_addressB6v15007INS_16reverse_iteratorINS1_IPNS_4pairIiiEEEEEEvEENS_5decayIDTclsr19__to_address_helperIT_EE6__callcl7declvalIRKS8_EEEEE4typeESA_ CODE
 0001:00015010 00000026H .text$_ZNSt3__116reverse_iteratorINS0_IPNS_4pairIiiEEEEEppB6v15007Ev CODE
 0001:00015040 00000028H .text$_ZNKSt3__116reverse_iteratorINS0_IPNS_4pairIiiEEEEE4baseB6v15007Ev CODE
 0001:00015070 00000036H .text$_ZNSt3__119__to_address_helperINS_16reverse_iteratorINS1_IPNS_4pairIiiEEEEEEvE6__callB6v15007ERKS6_ CODE
 0001:000150b0 00000019H .text$_ZNKSt3__116reverse_iteratorINS0_IPNS_4pairIiiEEEEEptB6v15007Ev CODE
 0001:000150d0 00000038H .text$_ZNKSt3__116reverse_iteratorINS0_IPNS_4pairIiiEEEEEdeB6v15007Ev CODE
 0001:00015110 00000017H .text$_ZNSt3__116reverse_iteratorIPNS_4pairIiiEEEmmB6v15007Ev CODE
 0001:00015130 00000029H .text$_ZNSt3__116reverse_iteratorINS0_IPNS_4pairIiiEEEEEC2B6v15007ES4_ CODE
 0001:00015160 00000026H .text$_ZNSt3__116reverse_iteratorIPNS_4pairIiiEEEC2B6v15007ES3_ CODE
 0001:00015190 00000075H .text$_ZNSt3__114__split_bufferINS_4pairIiiEERNS_9allocatorIS2_EEED2Ev CODE
 0001:00015210 0000001dH .text$_ZNSt3__114__split_bufferINS_4pairIiiEERNS_9allocatorIS2_EEE5clearB6v15007Ev CODE
 0001:00015230 0000002fH .text$_ZNKSt3__114__split_bufferINS_4pairIiiEERNS_9allocatorIS2_EEE8capacityB6v15007Ev CODE
 0001:00015260 00000028H .text$_ZNSt3__114__split_bufferINS_4pairIiiEERNS_9allocatorIS2_EEE17__destruct_at_endB6v15007EPS2_ CODE
 0001:00015290 0000007eH .text$_ZNSt3__114__split_bufferINS_4pairIiiEERNS_9allocatorIS2_EEE17__destruct_at_endB6v15007EPS2_NS_17integral_constantIbLb0EEE CODE
 0001:00015310 0000001dH .text$_ZNKSt3__114__split_bufferINS_4pairIiiEERNS_9allocatorIS2_EEE9__end_capB6v15007Ev CODE
 0001:00015330 00000019H .text$_ZNKSt3__117__compressed_pairIPNS_4pairIiiEERNS_9allocatorIS2_EEE5firstB6v15007Ev CODE
 0001:00015350 0000002dH .text$_ZNSt3__111__wrap_iterIPNS_4pairIiiEEEC1B6v15007EPKvS3_ CODE
 0001:00015380 00000023H .text$_ZNSt3__111__wrap_iterIPNS_4pairIiiEEEC2B6v15007EPKvS3_ CODE
 0001:000153b0 00000163H .text$_ZNSt3__19__shuffleINS_17_ClassicAlgPolicyENS_11__wrap_iterIPNS_4pairIiiEEEES6_RNS_23mersenne_twister_engineIjLy32ELy624ELy397ELy31ELj2567483615ELy11ELj4294967295ELy7ELj2636928640ELy15ELj4022730752ELy18ELj1812433253EEEEET0_SA_T1_OT2_ CODE
 0001:00015520 00000020H .text$_ZNSt3__18_IterOpsINS_17_ClassicAlgPolicyEE4nextB6v15007INS_11__wrap_iterIPNS_4pairIiiEEEEEET_S9_S9_ CODE
 0001:00015540 0000003bH .text$_ZNSt3__1miB6v15007IPNS_4pairIiiEES3_EEDTmicldtfp_4baseEcldtfp0_4baseEERKNS_11__wrap_iterIT_EERKNS5_IT0_EE CODE
 0001:00015580 00000015H .text$_ZNSt3__111__wrap_iterIPNS_4pairIiiEEEmmB6v15007Ev CODE
 0001:000155a0 0000003fH .text$_ZNSt3__1ltB6v15007IPNS_4pairIiiEEEEbRKNS_11__wrap_iterIT_EES8_ CODE
 0001:000155e0 0000003dH .text$_ZNSt3__18_IterOpsINS_17_ClassicAlgPolicyEE9iter_swapB6v15007IRNS_11__wrap_iterIPNS_4pairIiiEEEES8_EEvOT_OT0_ CODE
 0001:00015620 00000034H .text$_ZNKSt3__111__wrap_iterIPNS_4pairIiiEEEplB6v15007Ex CODE
 0001:00015660 00000015H .text$_ZNSt3__111__wrap_iterIPNS_4pairIiiEEEppB6v15007Ev CODE
 0001:00015680 0000000eH .text$_ZNKSt3__111__wrap_iterIPNS_4pairIiiEEE4baseB6v15007Ev CODE
 0001:00015690 0000003aH .text$_ZNSt3__19iter_swapB6v15007INS_11__wrap_iterIPNS_4pairIiiEEEES5_EEvT_T0_ CODE
 0001:000156d0 00000023H .text$_ZNSt3__14swapB6v15007IiiEENS_9enable_ifIXaasr14__is_swappableIT_EE5valuesr14__is_swappableIT0_EE5valueEvE4typeERNS_4pairIS2_S3_EES8_ CODE
 0001:00015700 0000000eH .text$_ZNKSt3__111__wrap_iterIPNS_4pairIiiEEEdeB6v15007Ev CODE
 0001:00015710 0000003fH .text$_ZNSt3__14pairIiiE4swapB6v15007ERS1_ CODE
 0001:00015750 00000025H .text$_ZNSt3__111__wrap_iterIPNS_4pairIiiEEEpLB6v15007Ex CODE
 0001:00015780 00000055H .text$_ZNSt3__16__treeIiNS_4lessIiEENS_9allocatorIiEEE15__insert_uniqueB6v15007ERKi CODE
 0001:000157e0 00000023H .text$_ZNSt3__14pairINS_21__tree_const_iteratorIiPNS_11__tree_nodeIiPvEExEEbEC1B6v15007INS_15__tree_iteratorIiS5_xEEbLS3_0EEEONS0_IT_T0_EE CODE
 0001:00015810 00000119H .text$_ZNSt3__16__treeIiNS_4lessIiEENS_9allocatorIiEEE25__emplace_unique_key_argsIiJRKiEEENS_4pairINS_15__tree_iteratorIiPNS_11__tree_nodeIiPvEExEEbEERKT_DpOT0_ CODE
 0001:00015930 0000000bH .text$_ZNSt3__122__tree_key_value_typesIiE9__get_keyB6v15007ERKi CODE
 0001:00015940 00000198H .text$_ZNSt3__16__treeIiNS_4lessIiEENS_9allocatorIiEEE12__find_equalIiEERPNS_16__tree_node_baseIPvEERPNS_15__tree_end_nodeISA_EERKT_ CODE
 0001:00015ae0 00000149H .text$_ZNSt3__16__treeIiNS_4lessIiEENS_9allocatorIiEEE16__construct_nodeIJRKiEEENS_10unique_ptrINS_11__tree_nodeIiPvEENS_22__tree_node_destructorINS3_ISC_EEEEEEDpOT_ CODE
 0001:00015c30 000000c2H .text$_ZNSt3__16__treeIiNS_4lessIiEENS_9allocatorIiEEE16__insert_node_atEPNS_15__tree_end_nodeIPNS_16__tree_node_baseIPvEEEERSA_SA_ CODE
 0001:00015d00 0000001bH .text$_ZNKSt3__110unique_ptrINS_11__tree_nodeIiPvEENS_22__tree_node_destructorINS_9allocatorIS3_EEEEE3getB6v15007Ev CODE
 0001:00015d20 0000003bH .text$_ZNSt3__110unique_ptrINS_11__tree_nodeIiPvEENS_22__tree_node_destructorINS_9allocatorIS3_EEEEE7releaseB6v15007Ev CODE
 0001:00015d60 00000019H .text$_ZNSt3__110unique_ptrINS_11__tree_nodeIiPvEENS_22__tree_node_destructorINS_9allocatorIS3_EEEEED1B6v15007Ev CODE
 0001:00015d80 00000023H .text$_ZNSt3__115__tree_iteratorIiPNS_11__tree_nodeIiPvEExEC1B6v15007ES4_ CODE
 0001:00015db0 0000002dH .text$_ZNSt3__14pairINS_15__tree_iteratorIiPNS_11__tree_nodeIiPvEExEEbEC1B6v15007IS6_RbLS3_0EEEOT_OT0_ CODE
 0001:00015de0 0000001bH .text$_ZNKSt3__16__treeIiNS_4lessIiEENS_9allocatorIiEEE6__rootB6v15007Ev CODE
 0001:00015e00 00000019H .text$_ZNKSt3__16__treeIiNS_4lessIiEENS_9allocatorIiEEE10__root_ptrEv CODE
 0001:00015e20 0000001dH .text$_ZNSt3__16__treeIiNS_4lessIiEENS_9allocatorIiEEE10value_compB6v15007Ev CODE
 0001:00015e40 0000002cH .text$_ZNKSt3__14lessIiEclB6v15007ERKiS3_ CODE
 0001:00015e70 00000025H .text$_ZNSt3__16__treeIiNS_4lessIiEENS_9allocatorIiEEE10__end_nodeB6v15007Ev CODE
 0001:00015ea0 00000025H .text$_ZNKSt3__16__treeIiNS_4lessIiEENS_9allocatorIiEEE10__end_nodeB6v15007Ev CODE
 0001:00015ed0 0000000bH .text$_ZNSt3__114pointer_traitsIPNS_15__tree_end_nodeIPNS_16__tree_node_baseIPvEEEEE10pointer_toB6v15007ERS6_ CODE
 0001:00015ee0 00000019H .text$_ZNKSt3__117__compressed_pairINS_15__tree_end_nodeIPNS_16__tree_node_baseIPvEEEENS_9allocatorINS_11__tree_nodeIiS3_EEEEE5firstB6v15007Ev CODE
 0001:00015f00 0000000bH .text$_ZNKSt3__122__compressed_pair_elemINS_15__tree_end_nodeIPNS_16__tree_node_baseIPvEEEELi0ELb0EE5__getB6v15007Ev CODE
 0001:00015f10 00000019H .text$_ZNSt3__117__compressed_pairIyNS_4lessIiEEE6secondB6v15007Ev CODE
 0001:00015f30 0000000bH .text$_ZNSt3__122__compressed_pair_elemINS_4lessIiEELi1ELb1EE5__getB6v15007Ev CODE
 0001:00015f40 00000019H .text$_ZNSt3__117__compressed_pairINS_15__tree_end_nodeIPNS_16__tree_node_baseIPvEEEENS_9allocatorINS_11__tree_nodeIiS3_EEEEE5firstB6v15007Ev CODE
 0001:00015f60 0000000bH .text$_ZNSt3__122__compressed_pair_elemINS_15__tree_end_nodeIPNS_16__tree_node_baseIPvEEEELi0ELb0EE5__getB6v15007Ev CODE
 0001:00015f70 0000001dH .text$_ZNSt3__16__treeIiNS_4lessIiEENS_9allocatorIiEEE12__node_allocB6v15007Ev CODE
 0001:00015f90 00000023H .text$_ZNSt3__116allocator_traitsINS_9allocatorINS_11__tree_nodeIiPvEEEEE8allocateB6v15007ERS5_y CODE
 0001:00015fc0 00000035H .text$_ZNSt3__122__tree_node_destructorINS_9allocatorINS_11__tree_nodeIiPvEEEEEC1B6v15007ERS5_b CODE
 0001:00016000 0000002dH .text$_ZNSt3__110unique_ptrINS_11__tree_nodeIiPvEENS_22__tree_node_destructorINS_9allocatorIS3_EEEEEC1B6v15007ILb1EvEEPS3_NS_16__dependent_typeINS_27__unique_ptr_deleter_sfinaeIS7_EEXT_EE20__good_rval_ref_typeE CODE
 0001:00016030 0000002dH .text$_ZNSt3__116allocator_traitsINS_9allocatorINS_11__tree_nodeIiPvEEEEE9constructB6v15007IiJRKiEvEEvRS5_PT_DpOT0_ CODE
 0001:00016060 0000000bH .text$_ZNSt3__122__tree_key_value_typesIiE9__get_ptrB6v15007ERi CODE
 0001:00016070 0000001bH .text$_ZNKSt3__110unique_ptrINS_11__tree_nodeIiPvEENS_22__tree_node_destructorINS_9allocatorIS3_EEEEEptB6v15007Ev CODE
 0001:00016090 00000019H .text$_ZNSt3__110unique_ptrINS_11__tree_nodeIiPvEENS_22__tree_node_destructorINS_9allocatorIS3_EEEEE11get_deleterB6v15007Ev CODE
 0001:000160b0 00000019H .text$_ZNSt3__117__compressed_pairINS_15__tree_end_nodeIPNS_16__tree_node_baseIPvEEEENS_9allocatorINS_11__tree_nodeIiS3_EEEEE6secondB6v15007Ev CODE
 0001:000160d0 0000000bH .text$_ZNSt3__122__compressed_pair_elemINS_9allocatorINS_11__tree_nodeIiPvEEEELi1ELb1EE5__getB6v15007Ev CODE
 0001:000160e0 0000004eH .text$_ZNSt3__19allocatorINS_11__tree_nodeIiPvEEE8allocateB6v15007Ey CODE
 0001:00016130 00000019H .text$_ZNSt3__116allocator_traitsINS_9allocatorINS_11__tree_nodeIiPvEEEEE8max_sizeB6v15007IS5_vEEyRKS5_ CODE
 0001:00016150 00000011H .text$_ZNKSt3__19allocatorINS_11__tree_nodeIiPvEEE8max_sizeB6v15007Ev CODE
 0001:00016170 00000033H .text$_ZNSt3__122__tree_node_destructorINS_9allocatorINS_11__tree_nodeIiPvEEEEEC2B6v15007ERS5_b CODE
 0001:000161b0 0000003aH .text$_ZNSt3__110unique_ptrINS_11__tree_nodeIiPvEENS_22__tree_node_destructorINS_9allocatorIS3_EEEEEC2B6v15007ILb1EvEEPS3_NS_16__dependent_typeINS_27__unique_ptr_deleter_sfinaeIS7_EEXT_EE20__good_rval_ref_typeE CODE
 0001:000161f0 0000002dH .text$_ZNSt3__117__compressed_pairIPNS_11__tree_nodeIiPvEENS_22__tree_node_destructorINS_9allocatorIS3_EEEEEC1B6v15007IRS4_S8_EEOT_OT0_ CODE
 0001:00016220 00000040H .text$_ZNSt3__117__compressed_pairIPNS_11__tree_nodeIiPvEENS_22__tree_node_destructorINS_9allocatorIS3_EEEEEC2B6v15007IRS4_S8_EEOT_OT0_ CODE
 0001:00016260 00000021H .text$_ZNSt3__122__compressed_pair_elemIPNS_11__tree_nodeIiPvEELi0ELb0EEC2B6v15007IRS4_vEEOT_ CODE
 0001:00016290 00000029H .text$_ZNSt3__122__compressed_pair_elemINS_22__tree_node_destructorINS_9allocatorINS_11__tree_nodeIiPvEEEEEELi1ELb0EEC2B6v15007IS7_vEEOT_ CODE
 0001:000162c0 00000024H .text$_ZNSt3__19allocatorINS_11__tree_nodeIiPvEEE9constructB6v15007IiJRKiEEEvPT_DpOT0_ CODE
 0001:000162f0 00000019H .text$_ZNKSt3__117__compressed_pairIPNS_11__tree_nodeIiPvEENS_22__tree_node_destructorINS_9allocatorIS3_EEEEE5firstB6v15007Ev CODE
 0001:00016310 0000000bH .text$_ZNKSt3__122__compressed_pair_elemIPNS_11__tree_nodeIiPvEELi0ELb0EE5__getB6v15007Ev CODE
 0001:00016320 0000001dH .text$_ZNSt3__117__compressed_pairIPNS_11__tree_nodeIiPvEENS_22__tree_node_destructorINS_9allocatorIS3_EEEEE6secondB6v15007Ev CODE
 0001:00016340 0000000bH .text$_ZNSt3__122__compressed_pair_elemINS_22__tree_node_destructorINS_9allocatorINS_11__tree_nodeIiPvEEEEEELi1ELb0EE5__getB6v15007Ev CODE
 0001:00016350 0000000bH .text$_ZNSt3__16__treeIiNS_4lessIiEENS_9allocatorIiEEE12__begin_nodeB6v15007Ev CODE
 0001:00016360 00000423H .text$_ZNSt3__127__tree_balance_after_insertIPNS_16__tree_node_baseIPvEEEEvT_S5_ CODE
 0001:00016790 0000001dH .text$_ZNSt3__16__treeIiNS_4lessIiEENS_9allocatorIiEEE4sizeB6v15007Ev CODE
 0001:000167b0 0000000fH .text$_ZNKSt3__116__tree_node_baseIPvE15__parent_unsafeB6v15007Ev CODE
 0001:000167c0 0000001eH .text$_ZNSt3__120__tree_is_left_childB6v15007IPNS_16__tree_node_baseIPvEEEEbT_ CODE
 0001:000167e0 000000dbH .text$_ZNSt3__118__tree_left_rotateIPNS_16__tree_node_baseIPvEEEEvT_ CODE
 0001:000168c0 000000c7H .text$_ZNSt3__119__tree_right_rotateIPNS_16__tree_node_baseIPvEEEEvT_ CODE
 0001:00016990 0000001fH .text$_ZNSt3__116__tree_node_baseIPvE12__set_parentB6v15007EPS2_ CODE
 0001:000169b0 00000019H .text$_ZNSt3__117__compressed_pairIyNS_4lessIiEEE5firstB6v15007Ev CODE
 0001:000169d0 00000019H .text$_ZNSt3__117__compressed_pairIPNS_11__tree_nodeIiPvEENS_22__tree_node_destructorINS_9allocatorIS3_EEEEE5firstB6v15007Ev CODE
 0001:000169f0 0000000bH .text$_ZNSt3__122__compressed_pair_elemIPNS_11__tree_nodeIiPvEELi0ELb0EE5__getB6v15007Ev CODE
 0001:00016a00 0000001dH .text$_ZNSt3__110unique_ptrINS_11__tree_nodeIiPvEENS_22__tree_node_destructorINS_9allocatorIS3_EEEEED2B6v15007Ev CODE
 0001:00016a20 0000006aH .text$_ZNSt3__110unique_ptrINS_11__tree_nodeIiPvEENS_22__tree_node_destructorINS_9allocatorIS3_EEEEE5resetB6v15007EPS3_ CODE
 0001:00016a90 00000087H .text$_ZNSt3__122__tree_node_destructorINS_9allocatorINS_11__tree_nodeIiPvEEEEEclB6v15007EPS4_ CODE
 0001:00016b20 00000012H .text$_ZNSt3__116allocator_traitsINS_9allocatorINS_11__tree_nodeIiPvEEEEE7destroyB6v15007IivvEEvRS5_PT_ CODE
 0001:00016b40 0000002dH .text$_ZNSt3__116allocator_traitsINS_9allocatorINS_11__tree_nodeIiPvEEEEE10deallocateB6v15007ERS5_PS4_y CODE
 0001:00016b70 00000043H .text$_ZNSt3__19allocatorINS_11__tree_nodeIiPvEEE10deallocateB6v15007EPS3_y CODE
 0001:00016bc0 0000001eH .text$_ZNSt3__115__tree_iteratorIiPNS_11__tree_nodeIiPvEExEC2B6v15007ES4_ CODE
 0001:00016be0 00000033H .text$_ZNSt3__14pairINS_15__tree_iteratorIiPNS_11__tree_nodeIiPvEExEEbEC2B6v15007IS6_RbLS3_0EEEOT_OT0_ CODE
 0001:00016c20 00000047H .text$_ZNSt3__14pairINS_21__tree_const_iteratorIiPNS_11__tree_nodeIiPvEExEEbEC2B6v15007INS_15__tree_iteratorIiS5_xEEbLS3_0EEEONS0_IT_T0_EE CODE
 0001:00016c70 00000023H .text$_ZNSt3__121__tree_const_iteratorIiPNS_11__tree_nodeIiPvEExEC1B6v15007ENS_15__tree_iteratorIiS4_xEE CODE
 0001:00016ca0 0000001eH .text$_ZNSt3__121__tree_const_iteratorIiPNS_11__tree_nodeIiPvEExEC2B6v15007ENS_15__tree_iteratorIiS4_xEE CODE
 0001:00016cc0 000000a0H .text$_ZNSt3__16__treeIiNS_4lessIiEENS_9allocatorIiEEE14__erase_uniqueIiEEyRKT_ CODE
 0001:00016d60 000000faH .text$_ZNSt3__16__treeIiNS_4lessIiEENS_9allocatorIiEEE4findIiEENS_15__tree_iteratorIiPNS_11__tree_nodeIiPvEExEERKT_ CODE
 0001:00016e60 00000029H .text$_ZNSt3__1eqB6v15007ERKNS_15__tree_iteratorIiPNS_11__tree_nodeIiPvEExEES7_ CODE
 0001:00016e90 0000002aH .text$_ZNSt3__16__treeIiNS_4lessIiEENS_9allocatorIiEEE3endB6v15007Ev CODE
 0001:00016ec0 00000092H .text$_ZNSt3__16__treeIiNS_4lessIiEENS_9allocatorIiEEE5eraseENS_21__tree_const_iteratorIiPNS_11__tree_nodeIiPvEExEE CODE
 0001:00016f60 0000009eH .text$_ZNSt3__16__treeIiNS_4lessIiEENS_9allocatorIiEEE13__lower_boundIiEENS_15__tree_iteratorIiPNS_11__tree_nodeIiPvEExEERKT_SB_PNS_15__tree_end_nodeIPNS_16__tree_node_baseIS9_EEEE CODE
 0001:00017000 00000029H .text$_ZNSt3__1neB6v15007ERKNS_15__tree_iteratorIiPNS_11__tree_nodeIiPvEExEES7_ CODE
 0001:00017030 0000001cH .text$_ZNKSt3__115__tree_iteratorIiPNS_11__tree_nodeIiPvEExEdeB6v15007Ev CODE
 0001:00017050 00000023H .text$_ZNSt3__115__tree_iteratorIiPNS_11__tree_nodeIiPvEExEC1B6v15007EPNS_15__tree_end_nodeIPNS_16__tree_node_baseIS2_EEEE CODE
 0001:00017080 0000001eH .text$_ZNSt3__115__tree_iteratorIiPNS_11__tree_nodeIiPvEExEC2B6v15007EPNS_15__tree_end_nodeIPNS_16__tree_node_baseIS2_EEEE CODE
 0001:000170a0 0000000eH .text$_ZNKSt3__115__tree_iteratorIiPNS_11__tree_nodeIiPvEExE8__get_npB6v15007Ev CODE
 0001:000170b0 0000000eH .text$_ZNKSt3__121__tree_const_iteratorIiPNS_11__tree_nodeIiPvEExE8__get_npB6v15007Ev CODE
 0001:000170c0 000000adH .text$_ZNSt3__16__treeIiNS_4lessIiEENS_9allocatorIiEEE21__remove_node_pointerEPNS_11__tree_nodeIiPvEE CODE
 0001:00017170 0000002bH .text$_ZNSt3__115__tree_iteratorIiPNS_11__tree_nodeIiPvEExEppB6v15007Ev CODE
 0001:000171a0 0000068bH .text$_ZNSt3__113__tree_removeIPNS_16__tree_node_baseIPvEEEEvT_S5_ CODE
 0001:00017830 0000007bH .text$_ZNSt3__116__tree_next_iterB6v15007IPNS_15__tree_end_nodeIPNS_16__tree_node_baseIPvEEEES5_EET_T0_ CODE
 0001:000178b0 00000029H .text$_ZNSt3__110__tree_minB6v15007IPNS_16__tree_node_baseIPvEEEET_S5_ CODE
 0001:000178e0 0000007cH .text$_ZNSt3__111__tree_nextIPNS_16__tree_node_baseIPvEEEET_S5_ CODE
 0001:00017960 0000001dH .text$_ZNKSt3__16__treeIiNS_4lessIiEENS_9allocatorIiEEE4sizeB6v15007Ev CODE
 0001:00017980 00000019H .text$_ZNKSt3__117__compressed_pairIyNS_4lessIiEEE5firstB6v15007Ev CODE
 0001:000179a0 00000035H .text$_ZNSt3__113unordered_setIiNS_4hashIiEENS_8equal_toIiEENS_9allocatorIiEEEC2B6v15007Ev CODE
 0001:000179e0 00000019H .text$_ZNSt3__112__hash_tableIiNS_4hashIiEENS_8equal_toIiEENS_9allocatorIiEEEC1Ev CODE
 0001:00017a00 00000007H .text$_ZNSt3__119__debug_db_insert_cB6v15007INS_13unordered_setIiNS_4hashIiEENS_8equal_toIiEENS_9allocatorIiEEEEEEvPT_ CODE
 0001:00017a10 00000083H .text$_ZNSt3__112__hash_tableIiNS_4hashIiEENS_8equal_toIiEENS_9allocatorIiEEEC2Ev CODE
 0001:00017aa0 00000019H .text$_ZNSt3__110unique_ptrIA_PNS_16__hash_node_baseIPNS_11__hash_nodeIiPvEEEENS_25__bucket_list_deallocatorINS_9allocatorIS7_EEEEEC1B6v15007ILb1EvEEv CODE
 0001:00017ac0 00000019H .text$_ZNSt3__117__compressed_pairINS_16__hash_node_baseIPNS_11__hash_nodeIiPvEEEENS_9allocatorIS4_EEEC1B6v15007ILb1EvEEv CODE
 0001:00017ae0 0000002dH .text$_ZNSt3__117__compressed_pairIyNS_4hashIiEEEC1B6v15007IiNS_18__default_init_tagEEEOT_OT0_ CODE
 0001:00017b10 0000002dH .text$_ZNSt3__117__compressed_pairIfNS_8equal_toIiEEEC1B6v15007IfNS_18__default_init_tagEEEOT_OT0_ CODE
 0001:00017b40 00000030H .text$_ZNSt3__110unique_ptrIA_PNS_16__hash_node_baseIPNS_11__hash_nodeIiPvEEEENS_25__bucket_list_deallocatorINS_9allocatorIS7_EEEEEC2B6v15007ILb1EvEEv CODE
 0001:00017b70 0000002dH .text$_ZNSt3__117__compressed_pairIPPNS_16__hash_node_baseIPNS_11__hash_nodeIiPvEEEENS_25__bucket_list_deallocatorINS_9allocatorIS7_EEEEEC1B6v15007INS_16__value_init_tagESF_EEOT_OT0_ CODE
 0001:00017ba0 0000003eH .text$_ZNSt3__117__compressed_pairIPPNS_16__hash_node_baseIPNS_11__hash_nodeIiPvEEEENS_25__bucket_list_deallocatorINS_9allocatorIS7_EEEEEC2B6v15007INS_16__value_init_tagESF_EEOT_OT0_ CODE
 0001:00017be0 0000001cH .text$_ZNSt3__122__compressed_pair_elemIPPNS_16__hash_node_baseIPNS_11__hash_nodeIiPvEEEELi0ELb0EEC2B6v15007ENS_16__value_init_tagE CODE
 0001:00017c00 0000001dH .text$_ZNSt3__122__compressed_pair_elemINS_25__bucket_list_deallocatorINS_9allocatorIPNS_16__hash_node_baseIPNS_11__hash_nodeIiPvEEEEEEEELi1ELb0EEC2B6v15007ENS_16__value_init_tagE CODE
 0001:00017c20 00000019H .text$_ZNSt3__125__bucket_list_deallocatorINS_9allocatorIPNS_16__hash_node_baseIPNS_11__hash_nodeIiPvEEEEEEEC1B6v15007Ev CODE
 0001:00017c40 00000038H .text$_ZNSt3__125__bucket_list_deallocatorINS_9allocatorIPNS_16__hash_node_baseIPNS_11__hash_nodeIiPvEEEEEEEC2B6v15007Ev CODE
 0001:00017c80 0000002dH .text$_ZNSt3__117__compressed_pairIyNS_9allocatorIPNS_16__hash_node_baseIPNS_11__hash_nodeIiPvEEEEEEEC1B6v15007IiNS_18__default_init_tagEEEOT_OT0_ CODE
 0001:00017cb0 0000003bH .text$_ZNSt3__117__compressed_pairIyNS_9allocatorIPNS_16__hash_node_baseIPNS_11__hash_nodeIiPvEEEEEEEC2B6v15007IiNS_18__default_init_tagEEEOT_OT0_ CODE
 0001:00017cf0 00000021H .text$_ZNSt3__122__compressed_pair_elemIyLi0ELb0EEC2B6v15007IivEEOT_ CODE
 0001:00017d20 0000001dH .text$_ZNSt3__122__compressed_pair_elemINS_9allocatorIPNS_16__hash_node_baseIPNS_11__hash_nodeIiPvEEEEEELi1ELb1EEC2B6v15007ENS_18__default_init_tagE CODE
 0001:00017d40 00000019H .text$_ZNSt3__19allocatorIPNS_16__hash_node_baseIPNS_11__hash_nodeIiPvEEEEEC2B6v15007Ev CODE
 0001:00017d60 00000007H .text$_ZNSt3__116__non_trivial_ifILb1ENS_9allocatorIPNS_16__hash_node_baseIPNS_11__hash_nodeIiPvEEEEEEEC2B6v15007Ev CODE
 0001:00017d70 00000030H .text$_ZNSt3__117__compressed_pairINS_16__hash_node_baseIPNS_11__hash_nodeIiPvEEEENS_9allocatorIS4_EEEC2B6v15007ILb1EvEEv CODE
 0001:00017da0 0000001dH .text$_ZNSt3__122__compressed_pair_elemINS_16__hash_node_baseIPNS_11__hash_nodeIiPvEEEELi0ELb0EEC2B6v15007ENS_16__value_init_tagE CODE
 0001:00017dc0 0000001dH .text$_ZNSt3__122__compressed_pair_elemINS_9allocatorINS_11__hash_nodeIiPvEEEELi1ELb1EEC2B6v15007ENS_16__value_init_tagE CODE
 0001:00017de0 00000019H .text$_ZNSt3__116__hash_node_baseIPNS_11__hash_nodeIiPvEEEC1B6v15007Ev CODE
 0001:00017e00 00000012H .text$_ZNSt3__116__hash_node_baseIPNS_11__hash_nodeIiPvEEEC2B6v15007Ev CODE
 0001:00017e20 00000019H .text$_ZNSt3__19allocatorINS_11__hash_nodeIiPvEEEC2B6v15007Ev CODE
 0001:00017e40 00000007H .text$_ZNSt3__116__non_trivial_ifILb1ENS_9allocatorINS_11__hash_nodeIiPvEEEEEC2B6v15007Ev CODE
 0001:00017e50 0000003bH .text$_ZNSt3__117__compressed_pairIyNS_4hashIiEEEC2B6v15007IiNS_18__default_init_tagEEEOT_OT0_ CODE
 0001:00017e90 00000011H .text$_ZNSt3__122__compressed_pair_elemINS_4hashIiEELi1ELb1EEC2B6v15007ENS_18__default_init_tagE CODE
 0001:00017eb0 0000003bH .text$_ZNSt3__117__compressed_pairIfNS_8equal_toIiEEEC2B6v15007IfNS_18__default_init_tagEEEOT_OT0_ CODE
 0001:00017ef0 00000023H .text$_ZNSt3__122__compressed_pair_elemIfLi0ELb0EEC2B6v15007IfvEEOT_ CODE
 0001:00017f20 00000011H .text$_ZNSt3__122__compressed_pair_elemINS_8equal_toIiEELi1ELb1EEC2B6v15007ENS_18__default_init_tagE CODE
 0001:00017f40 00000019H .text$_ZNSt3__113unordered_setIiNS_4hashIiEENS_8equal_toIiEENS_9allocatorIiEEED2B6v15007Ev CODE
 0001:00017f60 00000019H .text$_ZNSt3__112__hash_tableIiNS_4hashIiEENS_8equal_toIiEENS_9allocatorIiEEED1Ev CODE
 0001:00017f80 00000051H .text$_ZNSt3__112__hash_tableIiNS_4hashIiEENS_8equal_toIiEENS_9allocatorIiEEED2Ev CODE
 0001:00017fe0 00000093H .text$_ZNSt3__112__hash_tableIiNS_4hashIiEENS_8equal_toIiEENS_9allocatorIiEEE17__deallocate_nodeEPNS_16__hash_node_baseIPNS_11__hash_nodeIiPvEEEE CODE
 0001:00018080 00000007H .text$_ZNSt3__118__debug_db_erase_cB6v15007INS_12__hash_tableIiNS_4hashIiEENS_8equal_toIiEENS_9allocatorIiEEEEEEvPT_ CODE
 0001:00018090 00000019H .text$_ZNSt3__110unique_ptrIA_PNS_16__hash_node_baseIPNS_11__hash_nodeIiPvEEEENS_25__bucket_list_deallocatorINS_9allocatorIS7_EEEEED1B6v15007Ev CODE
 0001:000180b0 0000001dH .text$_ZNSt3__110unique_ptrIA_PNS_16__hash_node_baseIPNS_11__hash_nodeIiPvEEEENS_25__bucket_list_deallocatorINS_9allocatorIS7_EEEEED2B6v15007Ev CODE
 0001:000180d0 0000005fH .text$_ZNSt3__110unique_ptrIA_PNS_16__hash_node_baseIPNS_11__hash_nodeIiPvEEEENS_25__bucket_list_deallocatorINS_9allocatorIS7_EEEEE5resetB6v15007EDn CODE
 0001:00018130 0000002aH .text$_ZNSt3__16__treeIiNS_4lessIiEENS_9allocatorIiEEE5beginB6v15007Ev CODE
 0001:00018160 00000029H .text$_ZNSt3__1eqB6v15007ERKNS_21__tree_const_iteratorIiPNS_11__tree_nodeIiPvEExEES7_ CODE
 0001:00018190 00000019H .text$_ZNSt3__114priority_queueI4CellNS_6vectorIS1_NS_9allocatorIS1_EEEENS_4lessIS1_EEEC2B6v15007Ev CODE
 0001:000181b0 00000019H .text$_ZNSt3__16vectorI4CellNS_9allocatorIS1_EEEC1B6v15007Ev CODE
 0001:000181d0 00000060H .text$_ZNSt3__16vectorI4CellNS_9allocatorIS1_EEEC2B6v15007Ev CODE
 0001:00018230 0000002dH .text$_ZNSt3__117__compressed_pairIP4CellNS_9allocatorIS1_EEEC1B6v15007IDnNS_18__default_init_tagEEEOT_OT0_ CODE
 0001:00018260 00000007H .text$_ZNSt3__119__debug_db_insert_cB6v15007INS_6vectorI4CellNS_9allocatorIS2_EEEEEEvPT_ CODE
 0001:00018270 0000003bH .text$_ZNSt3__117__compressed_pairIP4CellNS_9allocatorIS1_EEEC2B6v15007IDnNS_18__default_init_tagEEEOT_OT0_ CODE
 0001:000182b0 0000001eH .text$_ZNSt3__122__compressed_pair_elemIP4CellLi0ELb0EEC2B6v15007IDnvEEOT_ CODE
 0001:000182d0 0000001dH .text$_ZNSt3__122__compressed_pair_elemINS_9allocatorI4CellEELi1ELb1EEC2B6v15007ENS_18__default_init_tagE CODE
 0001:000182f0 00000019H .text$_ZNSt3__19allocatorI4CellEC2B6v15007Ev CODE
 0001:00018310 00000007H .text$_ZNSt3__116__non_trivial_ifILb1ENS_9allocatorI4CellEEEC2B6v15007Ev CODE
 0001:00018320 00000060H .text$_ZNSt3__16vectorI4CellNS_9allocatorIS1_EEE9push_backB6v15007EOS1_ CODE
 0001:00018380 00000041H .text$_ZNSt3__19push_heapB6v15007INS_11__wrap_iterIP4CellEENS_4lessIS2_EEEEvT_S7_T0_ CODE
 0001:000183d0 00000025H .text$_ZNSt3__16vectorI4CellNS_9allocatorIS1_EEE5beginB6v15007Ev CODE
 0001:00018400 00000026H .text$_ZNSt3__16vectorI4CellNS_9allocatorIS1_EEE3endB6v15007Ev CODE
 0001:00018430 0000001dH .text$_ZNSt3__16vectorI4CellNS_9allocatorIS1_EEE9__end_capB6v15007Ev CODE
 0001:00018450 00000099H .text$_ZNSt3__16vectorI4CellNS_9allocatorIS1_EEE22__construct_one_at_endB6v15007IJS1_EEEvDpOT_ CODE
 0001:000184f0 000000eeH .text$_ZNSt3__16vectorI4CellNS_9allocatorIS1_EEE21__push_back_slow_pathIS1_EEvOT_ CODE
 0001:000185e0 00000019H .text$_ZNSt3__117__compressed_pairIP4CellNS_9allocatorIS1_EEE5firstB6v15007Ev CODE
 0001:00018600 0000000bH .text$_ZNSt3__122__compressed_pair_elemIP4CellLi0ELb0EE5__getB6v15007Ev CODE
 0001:00018610 0000002dH .text$_ZNSt3__16vectorI4CellNS_9allocatorIS1_EEE21_ConstructTransactionC1ERS4_y CODE
 0001:00018640 0000002dH .text$_ZNSt3__116allocator_traitsINS_9allocatorI4CellEEE9constructB6v15007IS2_JS2_EvEEvRS3_PT_DpOT0_ CODE
 0001:00018670 00000019H .text$_ZNSt3__16vectorI4CellNS_9allocatorIS1_EEE21_ConstructTransactionD1Ev CODE
 0001:00018690 00000046H .text$_ZNSt3__16vectorI4CellNS_9allocatorIS1_EEE21_ConstructTransactionC2ERS4_y CODE
 0001:000186e0 0000002cH .text$_ZNSt3__19allocatorI4CellE9constructB6v15007IS1_JS1_EEEvPT_DpOT0_ CODE
 0001:00018710 00000016H .text$_ZNSt3__16vectorI4CellNS_9allocatorIS1_EEE21_ConstructTransactionD2Ev CODE
 0001:00018730 000000a0H .text$_ZNKSt3__16vectorI4CellNS_9allocatorIS1_EEE11__recommendB6v15007Ey CODE
 0001:000187d0 00000037H .text$_ZNSt3__114__split_bufferI4CellRNS_9allocatorIS1_EEEC1EyyS4_ CODE
 0001:00018810 0000014cH .text$_ZNSt3__16vectorI4CellNS_9allocatorIS1_EEE26__swap_out_circular_bufferERNS_14__split_bufferIS1_RS3_EE CODE
 0001:00018960 00000019H .text$_ZNSt3__114__split_bufferI4CellRNS_9allocatorIS1_EEED1Ev CODE
 0001:00018980 00000059H .text$_ZNKSt3__16vectorI4CellNS_9allocatorIS1_EEE8max_sizeEv CODE
 0001:000189e0 00000016H .text$_ZNKSt3__16vectorI4CellNS_9allocatorIS1_EEE20__throw_length_errorB6v15007Ev CODE
 0001:00018a00 00000019H .text$_ZNSt3__116allocator_traitsINS_9allocatorI4CellEEE8max_sizeB6v15007IS3_vEEyRKS3_ CODE
 0001:00018a20 0000001dH .text$_ZNKSt3__16vectorI4CellNS_9allocatorIS1_EEE7__allocB6v15007Ev CODE
 0001:00018a40 00000011H .text$_ZNKSt3__19allocatorI4CellE8max_sizeB6v15007Ev CODE
 0001:00018a60 00000019H .text$_ZNKSt3__117__compressed_pairIP4CellNS_9allocatorIS1_EEE6secondB6v15007Ev CODE
 0001:00018a80 0000000bH .text$_ZNKSt3__122__compressed_pair_elemINS_9allocatorI4CellEELi1ELb1EE5__getB6v15007Ev CODE
 0001:00018a90 000000caH .text$_ZNSt3__114__split_bufferI4CellRNS_9allocatorIS1_EEEC2EyyS4_ CODE
 0001:00018b60 0000002dH .text$_ZNSt3__117__compressed_pairIP4CellRNS_9allocatorIS1_EEEC1B6v15007IDnS5_EEOT_OT0_ CODE
 0001:00018b90 0000004dH .text$_ZNSt3__119__allocate_at_leastB6v15007INS_9allocatorI4CellEEEENS_19__allocation_resultINS_16allocator_traitsIT_E7pointerEEERS6_y CODE
 0001:00018be0 0000001dH .text$_ZNSt3__114__split_bufferI4CellRNS_9allocatorIS1_EEE7__allocB6v15007Ev CODE
 0001:00018c00 0000001dH .text$_ZNSt3__114__split_bufferI4CellRNS_9allocatorIS1_EEE9__end_capB6v15007Ev CODE
 0001:00018c20 00000040H .text$_ZNSt3__117__compressed_pairIP4CellRNS_9allocatorIS1_EEEC2B6v15007IDnS5_EEOT_OT0_ CODE
 0001:00018c60 0000001eH .text$_ZNSt3__122__compressed_pair_elemIRNS_9allocatorI4CellEELi1ELb0EEC2B6v15007IS4_vEEOT_ CODE
 0001:00018c80 0000004eH .text$_ZNSt3__19allocatorI4CellE8allocateB6v15007Ey CODE
 0001:00018cd0 0000001dH .text$_ZNSt3__117__compressed_pairIP4CellRNS_9allocatorIS1_EEE6secondB6v15007Ev CODE
 0001:00018cf0 0000000eH .text$_ZNSt3__122__compressed_pair_elemIRNS_9allocatorI4CellEELi1ELb0EE5__getB6v15007Ev CODE
 0001:00018d00 00000019H .text$_ZNSt3__117__compressed_pairIP4CellRNS_9allocatorIS1_EEE5firstB6v15007Ev CODE
 0001:00018d20 0000006fH .text$_ZNSt3__142__uninitialized_allocator_move_if_noexceptB6v15007INS_9allocatorI4CellEENS_16reverse_iteratorIPS2_EES6_S2_vEET1_RT_T0_SA_S7_ CODE
 0001:00018d90 00000023H .text$_ZNSt3__116reverse_iteratorIP4CellEC1B6v15007ES2_ CODE
 0001:00018dc0 0000000fH .text$_ZNKSt3__116reverse_iteratorIP4CellE4baseB6v15007Ev CODE
 0001:00018dd0 0000003bH .text$_ZNSt3__14swapB6v15007IP4CellEENS_9enable_ifIXaasr21is_move_constructibleIT_EE5valuesr18is_move_assignableIS4_EE5valueEvE4typeERS4_S7_ CODE
 0001:00018e10 000000b3H .text$_ZNKSt3__16vectorI4CellNS_9allocatorIS1_EEE14__annotate_newB6v15007Ey CODE
 0001:00018ed0 00000007H .text$_ZNSt3__125__debug_db_invalidate_allB6v15007INS_6vectorI4CellNS_9allocatorIS2_EEEEEEvPT_ CODE
 0001:00018ee0 0000008bH .text$_ZNSt3__14moveB6v15007INS_16reverse_iteratorIP4CellEES4_EET0_T_S6_S5_ CODE
 0001:00018f70 0000019fH .text$_ZNSt3__16__moveB6v15007INS_17_ClassicAlgPolicyENS_16reverse_iteratorIP4CellEES5_S5_EENS_9enable_ifIXaaaasr21is_copy_constructibleIT0_EE5valuesr21is_copy_constructibleIT1_EE5valuesr21is_copy_constructibleIT2_EE5valueENS_4pairIS7_S9_EEE4typeES7_S8_S9_ CODE
 0001:00019110 0000011dH .text$_ZNSt3__111__move_implB6v15007INS_17_ClassicAlgPolicyEP4CellS3_Li0EEENS_4pairINS_16reverse_iteratorIT0_EENS5_IT1_EEEES7_S7_S9_ CODE
 0001:00019230 00000036H .text$_ZNSt3__113__unwrap_iterB6v15007INS_16reverse_iteratorIP4CellEENS_18__unwrap_iter_implIS4_Lb0EEELi0EEEDTclsrT0_8__unwrapclsr3stdE7declvalIT_EEEES8_ CODE
 0001:00019270 00000034H .text$_ZNSt3__19make_pairB6v15007INS_16reverse_iteratorIP4CellEES4_EENS_4pairINS_18__unwrap_ref_decayIT_E4typeENS6_IT0_E4typeEEEOS7_OSA_ CODE
 0001:000192b0 00000049H .text$_ZNSt3__113__rewrap_iterB6v15007INS_16reverse_iteratorIP4CellEES4_NS_18__unwrap_iter_implIS4_Lb0EEEEET_S7_T0_ CODE
 0001:00019300 00000019H .text$_ZNSt3__113__unwrap_iterB6v15007IP4CellNS_18__unwrap_iter_implIS2_Lb1EEELi0EEEDTclsrT0_8__unwrapclsr3stdE7declvalIT_EEEES6_ CODE
 0001:00019320 0000009aH .text$_ZNSt3__111__move_implB6v15007INS_17_ClassicAlgPolicyE4CellS2_vEENS_4pairIPT0_PT1_EES5_S5_S7_ CODE
 0001:000193c0 00000034H .text$_ZNSt3__19make_pairB6v15007IRNS_16reverse_iteratorIP4CellEES4_EENS_4pairINS_18__unwrap_ref_decayIT_E4typeENS7_IT0_E4typeEEEOS8_OSB_ CODE
 0001:00019400 0000003aH .text$_ZNSt3__113__rewrap_iterB6v15007IP4CellS2_NS_18__unwrap_iter_implIS2_Lb1EEEEET_S5_T0_ CODE
 0001:00019440 00000019H .text$_ZNSt3__118__unwrap_iter_implIP4CellLb1EE8__unwrapB6v15007ES2_ CODE
 0001:00019460 00000034H .text$_ZNSt3__19make_pairB6v15007IP4CellS2_EENS_4pairINS_18__unwrap_ref_decayIT_E4typeENS4_IT0_E4typeEEEOS5_OS8_ CODE
 0001:000194a0 0000002dH .text$_ZNSt3__14pairIP4CellS2_EC1B6v15007IS2_S2_LPv0EEEOT_OT0_ CODE
 0001:000194d0 00000032H .text$_ZNSt3__14pairIP4CellS2_EC2B6v15007IS2_S2_LPv0EEEOT_OT0_ CODE
 0001:00019510 0000002dH .text$_ZNSt3__14pairINS_16reverse_iteratorIP4CellEES4_EC1B6v15007IRS4_S4_LPv0EEEOT_OT0_ CODE
 0001:00019540 00000042H .text$_ZNSt3__14pairINS_16reverse_iteratorIP4CellEES4_EC2B6v15007IRS4_S4_LPv0EEEOT_OT0_ CODE
 0001:00019590 00000055H .text$_ZNSt3__118__unwrap_iter_implIP4CellLb1EE8__rewrapB6v15007ES2_S2_ CODE
 0001:000195f0 00000018H .text$_ZNSt3__118__unwrap_iter_implINS_16reverse_iteratorIP4CellEELb0EE8__unwrapB6v15007ES4_ CODE
 0001:00019610 0000002dH .text$_ZNSt3__14pairINS_16reverse_iteratorIP4CellEES4_EC1B6v15007IS4_S4_LPv0EEEOT_OT0_ CODE
 0001:00019640 00000042H .text$_ZNSt3__14pairINS_16reverse_iteratorIP4CellEES4_EC2B6v15007IS4_S4_LPv0EEEOT_OT0_ CODE
 0001:00019690 00000018H .text$_ZNSt3__118__unwrap_iter_implINS_16reverse_iteratorIP4CellEELb0EE8__rewrapB6v15007ES4_S4_ CODE
 0001:000196b0 00000026H .text$_ZNSt3__116reverse_iteratorIP4CellEC2B6v15007ES2_ CODE
 0001:000196e0 00000075H .text$_ZNSt3__114__split_bufferI4CellRNS_9allocatorIS1_EEED2Ev CODE
 0001:00019760 0000001dH .text$_ZNSt3__114__split_bufferI4CellRNS_9allocatorIS1_EEE5clearB6v15007Ev CODE
 0001:00019780 00000035H .text$_ZNKSt3__114__split_bufferI4CellRNS_9allocatorIS1_EEE8capacityB6v15007Ev CODE
 0001:000197c0 00000028H .text$_ZNSt3__114__split_bufferI4CellRNS_9allocatorIS1_EEE17__destruct_at_endB6v15007EPS1_ CODE
 0001:000197f0 0000007eH .text$_ZNSt3__114__split_bufferI4CellRNS_9allocatorIS1_EEE17__destruct_at_endB6v15007EPS1_NS_17integral_constantIbLb0EEE CODE
 0001:00019870 0000001dH .text$_ZNKSt3__114__split_bufferI4CellRNS_9allocatorIS1_EEE9__end_capB6v15007Ev CODE
 0001:00019890 00000019H .text$_ZNKSt3__117__compressed_pairIP4CellRNS_9allocatorIS1_EEE5firstB6v15007Ev CODE
 0001:000198b0 0000005aH .text$_ZNSt3__111__push_heapB6v15007INS_17_ClassicAlgPolicyENS_11__wrap_iterIP4CellEENS_4lessIS3_EEEEvT0_S8_RT1_ CODE
 0001:00019910 00000041H .text$_ZNSt3__1miB6v15007IP4CellS2_EEDTmicldtfp_4baseEcldtfp0_4baseEERKNS_11__wrap_iterIT_EERKNS4_IT0_EE CODE
 0001:00019960 0000018eH .text$_ZNSt3__19__sift_upB6v15007INS_17_ClassicAlgPolicyERNS_4lessI4CellEENS_11__wrap_iterIPS3_EEEEvT1_S9_OT0_NS_15iterator_traitsIS9_E15difference_typeE CODE
 0001:00019af0 0000000eH .text$_ZNKSt3__111__wrap_iterIP4CellE4baseB6v15007Ev CODE
 0001:00019b00 00000034H .text$_ZNKSt3__111__wrap_iterIP4CellEplB6v15007Ex CODE
 0001:00019b40 0000002cH .text$_ZNKSt3__14lessI4CellEclB6v15007ERKS1_S4_ CODE
 0001:00019b70 0000000eH .text$_ZNKSt3__111__wrap_iterIP4CellEdeB6v15007Ev CODE
 0001:00019b80 00000015H .text$_ZNSt3__111__wrap_iterIP4CellEmmB6v15007Ev CODE
 0001:00019ba0 0000001eH .text$_ZNSt3__18_IterOpsINS_17_ClassicAlgPolicyEE11__iter_moveB6v15007IRNS_11__wrap_iterIP4CellEEEENS_9enable_ifIXsr12is_referenceIDTdeclsr3stdE7declvalIRT_EEEEE5valueEDTclsr3stdE4movedeclsr3stdE7declvalISB_EEEEE4typeEOSA_ CODE
 0001:00019bc0 00000025H .text$_ZNSt3__111__wrap_iterIP4CellEpLB6v15007Ex CODE
 0001:00019bf0 00000029H .text$_ZNK4CellltERKS_  CODE
 0001:00019c20 00000001H .text$_ZNSt3__18_IterOpsINS_17_ClassicAlgPolicyEE25__validate_iter_referenceB6v15007IRNS_11__wrap_iterIP4CellEEEEvv CODE
 0001:00019c30 0000002dH .text$_ZNSt3__111__wrap_iterIP4CellEC1B6v15007EPKvS2_ CODE
 0001:00019c60 00000023H .text$_ZNSt3__111__wrap_iterIP4CellEC2B6v15007EPKvS2_ CODE
 0001:00019c90 0000001aH .text$_ZNKSt3__16vectorI4CellNS_9allocatorIS1_EEE5emptyB6v15007Ev CODE
 0001:00019cb0 0000000eH .text$_ZNKSt3__16vectorI4CellNS_9allocatorIS1_EEE5frontB6v15007Ev CODE
 0001:00019cc0 0000005aH .text$_ZNSt3__18pop_heapB6v15007INS_11__wrap_iterIP4CellEENS_4lessIS2_EEEEvT_S7_T0_ CODE
 0001:00019d20 00000021H .text$_ZNSt3__16vectorI4CellNS_9allocatorIS1_EEE8pop_backEv CODE
 0001:00019d50 0000015eH .text$_ZNSt3__110__pop_heapB6v15007INS_17_ClassicAlgPolicyENS_4lessI4CellEENS_11__wrap_iterIPS3_EEEEvT1_S8_RT0_NS_15iterator_traitsIS8_E15difference_typeE CODE
 0001:00019eb0 00000168H .text$_ZNSt3__117__floyd_sift_downINS_17_ClassicAlgPolicyERNS_4lessI4CellEENS_11__wrap_iterIPS3_EEEET1_S9_OT0_NS_15iterator_traitsIS9_E15difference_typeE CODE
 0001:0001a020 0000003fH .text$_ZNSt3__1eqB6v15007IP4CellEEbRKNS_11__wrap_iterIT_EES7_ CODE
 0001:0001a060 00000015H .text$_ZNSt3__111__wrap_iterIP4CellEppB6v15007Ev CODE
 0001:0001a080 00000063H .text$_ZNSt3__16vectorI4CellNS_9allocatorIS1_EEE17__destruct_at_endB6v15007EPS1_ CODE
 0001:0001a0f0 00000012H .text$_ZNSt3__16vectorI4CellNS_9allocatorIS1_EEE27__invalidate_iterators_pastB6v15007EPS1_ CODE
 0001:0001a110 000000b3H .text$_ZNKSt3__16vectorI4CellNS_9allocatorIS1_EEE17__annotate_shrinkB6v15007Ey CODE
 0001:0001a1d0 0000012dH .text$_ZNSt3__16vectorINS0_IiNS_9allocatorIiEEEENS1_IS3_EEEC2ERKS5_ CODE
 0001:0001a300 00000011H .text$_ZNSt3__116allocator_traitsINS_9allocatorINS_6vectorIiNS1_IiEEEEEEE37select_on_container_copy_constructionB6v15007IS5_vvEES5_RKS5_ CODE
 0001:0001a320 0000002dH .text$_ZNSt3__117__compressed_pairIPNS_6vectorIiNS_9allocatorIiEEEENS2_IS4_EEEC1B6v15007IDnS6_EEOT_OT0_ CODE
 0001:0001a350 00000099H .text$_ZNSt3__16vectorINS0_IiNS_9allocatorIiEEEENS1_IS3_EEE18__construct_at_endIPS3_EENS_9enable_ifIXsr27__is_cpp17_forward_iteratorIT_EE5valueEvE4typeES9_S9_y CODE
 0001:0001a3f0 0000003cH .text$_ZNSt3__117__compressed_pairIPNS_6vectorIiNS_9allocatorIiEEEENS2_IS4_EEEC2B6v15007IDnS6_EEOT_OT0_ CODE
 0001:0001a430 00000012H .text$_ZNSt3__122__compressed_pair_elemINS_9allocatorINS_6vectorIiNS1_IiEEEEEELi1ELb1EEC2B6v15007IS5_vEEOT_ CODE
 0001:0001a450 0000010cH .text$_ZNSt3__130__uninitialized_allocator_copyB6v15007INS_9allocatorINS_6vectorIiNS1_IiEEEEEEPS4_S6_S6_EET2_RT_T0_T1_S7_ CODE
 0001:0001a560 0000002dH .text$_ZNSt3__116allocator_traitsINS_9allocatorINS_6vectorIiNS1_IiEEEEEEE9constructB6v15007IS4_JRS4_EvEEvRS5_PT_DpOT0_ CODE
 0001:0001a590 00000037H .text$_ZNSt3__129_AllocatorDestroyRangeReverseINS_9allocatorINS_6vectorIiNS1_IiEEEEEEPS4_EC1B6v15007ERS5_RS6_S9_ CODE
 0001:0001a5d0 0000005cH .text$_ZNKSt3__129_AllocatorDestroyRangeReverseINS_9allocatorINS_6vectorIiNS1_IiEEEEEEPS4_EclB6v15007Ev CODE
 0001:0001a630 00000028H .text$_ZNSt3__19allocatorINS_6vectorIiNS0_IiEEEEE9constructB6v15007IS3_JRS3_EEEvPT_DpOT0_ CODE
 0001:0001a660 0000003aH .text$_ZNSt3__129_AllocatorDestroyRangeReverseINS_9allocatorINS_6vectorIiNS1_IiEEEEEEPS4_EC2B6v15007ERS5_RS6_S9_ CODE
 0001:0001a6a0 00000064H .text$_ZNSt3__119__allocator_destroyB6v15007INS_9allocatorINS_6vectorIiNS1_IiEEEEEENS_16reverse_iteratorIPS4_EES8_EEvRT_T0_T1_ CODE
 0001:0001a710 00000023H .text$_ZNSt3__116reverse_iteratorIPNS_6vectorIiNS_9allocatorIiEEEEEC1B6v15007ES5_ CODE
 0001:0001a740 0000003fH .text$_ZNSt3__1neB6v15007IPNS_6vectorIiNS_9allocatorIiEEEES5_EEbRKNS_16reverse_iteratorIT_EERKNS6_IT0_EE CODE
 0001:0001a780 00000019H .text$_ZNSt3__112__to_addressB6v15007INS_16reverse_iteratorIPNS_6vectorIiNS_9allocatorIiEEEEEEvEENS_5decayIDTclsr19__to_address_helperIT_EE6__callcl7declvalIRKS9_EEEEE4typeESB_ CODE
 0001:0001a7a0 00000017H .text$_ZNSt3__116reverse_iteratorIPNS_6vectorIiNS_9allocatorIiEEEEEppB6v15007Ev CODE
 0001:0001a7c0 0000000fH .text$_ZNKSt3__116reverse_iteratorIPNS_6vectorIiNS_9allocatorIiEEEEE4baseB6v15007Ev CODE
 0001:0001a7d0 00000036H .text$_ZNSt3__119__to_address_helperINS_16reverse_iteratorIPNS_6vectorIiNS_9allocatorIiEEEEEEvE6__callB6v15007ERKS7_ CODE
 0001:0001a810 00000019H .text$_ZNKSt3__116reverse_iteratorIPNS_6vectorIiNS_9allocatorIiEEEEEptB6v15007Ev CODE
 0001:0001a830 00000027H .text$_ZNKSt3__116reverse_iteratorIPNS_6vectorIiNS_9allocatorIiEEEEEdeB6v15007Ev CODE
 0001:0001a860 00000026H .text$_ZNSt3__116reverse_iteratorIPNS_6vectorIiNS_9allocatorIiEEEEEC2B6v15007ES5_ CODE
 0001:0001a890 00000019H .text$_ZNSt3__15queueI5StateNS_5dequeIS1_NS_9allocatorIS1_EEEEEC2B6v15007Ev CODE
 0001:0001a8b0 00000019H .text$_ZNSt3__15dequeI5StateNS_9allocatorIS1_EEEC1B6v15007Ev CODE
 0001:0001a8d0 00000019H .text$_ZNSt3__15dequeI5StateNS_9allocatorIS1_EEEC2B6v15007Ev CODE
 0001:0001a8f0 00000053H .text$_ZNSt3__112__deque_baseI5StateNS_9allocatorIS1_EEEC2Ev CODE
 0001:0001a950 00000019H .text$_ZNSt3__114__split_bufferIP5StateNS_9allocatorIS2_EEEC1Ev CODE
 0001:0001a970 0000002dH .text$_ZNSt3__117__compressed_pairIyNS_9allocatorI5StateEEEC1B6v15007IiNS_18__default_init_tagEEEOT_OT0_ CODE
 0001:0001a9a0 00000054H .text$_ZNSt3__114__split_bufferIP5StateNS_9allocatorIS2_EEEC2Ev CODE
 0001:0001aa00 0000002dH .text$_ZNSt3__117__compressed_pairIPP5StateNS_9allocatorIS2_EEEC1B6v15007IDnNS_18__default_init_tagEEEOT_OT0_ CODE
 0001:0001aa30 0000003bH .text$_ZNSt3__117__compressed_pairIPP5StateNS_9allocatorIS2_EEEC2B6v15007IDnNS_18__default_init_tagEEEOT_OT0_ CODE
 0001:0001aa70 0000001eH .text$_ZNSt3__122__compressed_pair_elemIPP5StateLi0ELb0EEC2B6v15007IDnvEEOT_ CODE
 0001:0001aa90 0000001dH .text$_ZNSt3__122__compressed_pair_elemINS_9allocatorIP5StateEELi1ELb1EEC2B6v15007ENS_18__default_init_tagE CODE
 0001:0001aab0 00000019H .text$_ZNSt3__19allocatorIP5StateEC2B6v15007Ev CODE
 0001:0001aad0 00000007H .text$_ZNSt3__116__non_trivial_ifILb1ENS_9allocatorIP5StateEEEC2B6v15007Ev CODE
 0001:0001aae0 0000003bH .text$_ZNSt3__117__compressed_pairIyNS_9allocatorI5StateEEEC2B6v15007IiNS_18__default_init_tagEEEOT_OT0_ CODE
 0001:0001ab20 0000001dH .text$_ZNSt3__122__compressed_pair_elemINS_9allocatorI5StateEELi1ELb1EEC2B6v15007ENS_18__default_init_tagE CODE
 0001:0001ab40 00000019H .text$_ZNSt3__19allocatorI5StateEC2B6v15007Ev CODE
 0001:0001ab60 00000007H .text$_ZNSt3__116__non_trivial_ifILb1ENS_9allocatorI5StateEEEC2B6v15007Ev CODE
 0001:0001ab70 0000008eH .text$_ZNSt3__15dequeI5StateNS_9allocatorIS1_EEE9push_backEOS1_ CODE
 0001:0001ac00 00000048H .text$_ZNKSt3__15dequeI5StateNS_9allocatorIS1_EEE12__back_spareB6v15007Ev CODE
 0001:0001ac50 000003a0H .text$_ZNSt3__15dequeI5StateNS_9allocatorIS1_EEE19__add_back_capacityEv CODE
 0001:0001aff0 0000002dH .text$_ZNSt3__116allocator_traitsINS_9allocatorI5StateEEE9constructB6v15007IS2_JS2_EvEEvRS3_PT_DpOT0_ CODE
 0001:0001b020 0000004fH .text$_ZNKSt3__15dequeI5StateNS_9allocatorIS1_EEE10__capacityB6v15007Ev CODE
 0001:0001b070 0000001dH .text$_ZNKSt3__112__deque_baseI5StateNS_9allocatorIS1_EEE4sizeB6v15007Ev CODE
 0001:0001b090 00000019H .text$_ZNKSt3__117__compressed_pairIyNS_9allocatorI5StateEEE5firstB6v15007Ev CODE
 0001:0001b0b0 0000000fH .text$_ZNKSt3__15dequeI5StateNS_9allocatorIS1_EEE13__front_spareB6v15007Ev CODE
 0001:0001b0c0 000002a2H .text$_ZNSt3__114__split_bufferIP5StateNS_9allocatorIS2_EEE9push_backB6v15007ERKS2_ CODE
 0001:0001b370 00000030H .text$_ZNKSt3__114__split_bufferIP5StateNS_9allocatorIS2_EEE12__back_spareB6v15007Ev CODE
 0001:0001b3a0 000002a2H .text$_ZNSt3__114__split_bufferIP5StateNS_9allocatorIS2_EEE9push_backEOS2_ CODE
 0001:0001b650 00000023H .text$_ZNSt3__116allocator_traitsINS_9allocatorI5StateEEE8allocateB6v15007ERS3_y CODE
 0001:0001b680 000002aaH .text$_ZNSt3__114__split_bufferIP5StateNS_9allocatorIS2_EEE10push_frontEOS2_ CODE
 0001:0001b930 00000037H .text$_ZNSt3__114__split_bufferIP5StateRNS_9allocatorIS2_EEEC1EyyS5_ CODE
 0001:0001b970 0000002dH .text$_ZNSt3__122__allocator_destructorINS_9allocatorI5StateEEEC1B6v15007ERS3_y CODE
 0001:0001b9a0 0000002dH .text$_ZNSt3__110unique_ptrIP5StateNS_22__allocator_destructorINS_9allocatorIS1_EEEEEC1B6v15007ILb1EvEES2_NS_16__dependent_typeINS_27__unique_ptr_deleter_sfinaeIS6_EEXT_EE20__good_rval_ref_typeE CODE
 0001:0001b9d0 000002a2H .text$_ZNSt3__114__split_bufferIP5StateRNS_9allocatorIS2_EEE9push_backEOS2_ CODE
 0001:0001bc80 0000001bH .text$_ZNKSt3__110unique_ptrIP5StateNS_22__allocator_destructorINS_9allocatorIS1_EEEEE3getB6v15007Ev CODE
 0001:0001bca0 0000003bH .text$_ZNSt3__110unique_ptrIP5StateNS_22__allocator_destructorINS_9allocatorIS1_EEEEE7releaseB6v15007Ev CODE
 0001:0001bce0 000002aaH .text$_ZNSt3__114__split_bufferIP5StateRNS_9allocatorIS2_EEE10push_frontERKS2_ CODE
 0001:0001bf90 0000003bH .text$_ZNSt3__14swapB6v15007IPP5StateEENS_9enable_ifIXaasr21is_move_constructibleIT_EE5valuesr18is_move_assignableIS5_EE5valueEvE4typeERS5_S8_ CODE
 0001:0001bfd0 0000001dH .text$_ZNSt3__114__split_bufferIP5StateNS_9allocatorIS2_EEE9__end_capB6v15007Ev CODE
 0001:0001bff0 0000001dH .text$_ZNSt3__114__split_bufferIP5StateRNS_9allocatorIS2_EEE9__end_capB6v15007Ev CODE
 0001:0001c010 00000019H .text$_ZNSt3__110unique_ptrIP5StateNS_22__allocator_destructorINS_9allocatorIS1_EEEEED1B6v15007Ev CODE
 0001:0001c030 00000019H .text$_ZNSt3__114__split_bufferIP5StateRNS_9allocatorIS2_EEED1Ev CODE
 0001:0001c050 00000036H .text$_ZNSt3__14moveB6v15007IPP5StateS3_EET0_T_S5_S4_ CODE
 0001:0001c090 00000133H .text$_ZNSt3__114__split_bufferIP5StateRNS_9allocatorIS2_EEE18__construct_at_endINS_13move_iteratorIPS2_EEEENS_9enable_ifIXsr27__is_cpp17_forward_iteratorIT_EE5valueEvE4typeESC_SC_ CODE
 0001:0001c1d0 00000023H .text$_ZNSt3__113move_iteratorIPP5StateEC1B6v15007ES3_ CODE
 0001:0001c200 0000002dH .text$_ZNSt3__116allocator_traitsINS_9allocatorIP5StateEEE9constructB6v15007IS3_JRKS3_EvEEvRS4_PT_DpOT0_ CODE
 0001:0001c230 000000b3H .text$_ZNSt3__16__moveB6v15007INS_17_ClassicAlgPolicyEPP5StateS4_S4_EENS_9enable_ifIXaaaasr21is_copy_constructibleIT0_EE5valuesr21is_copy_constructibleIT1_EE5valuesr21is_copy_constructibleIT2_EE5valueENS_4pairIS6_S8_EEE4typeES6_S7_S8_ CODE
 0001:0001c2f0 0000009dH .text$_ZNSt3__111__move_implB6v15007INS_17_ClassicAlgPolicyEP5StateS3_vEENS_4pairIPT0_PT1_EES6_S6_S8_ CODE
 0001:0001c390 00000019H .text$_ZNSt3__113__unwrap_iterB6v15007IPP5StateNS_18__unwrap_iter_implIS3_Lb1EEELi0EEEDTclsrT0_8__unwrapclsr3stdE7declvalIT_EEEES7_ CODE
 0001:0001c3b0 00000034H .text$_ZNSt3__19make_pairB6v15007IPP5StateS3_EENS_4pairINS_18__unwrap_ref_decayIT_E4typeENS5_IT0_E4typeEEEOS6_OS9_ CODE
 0001:0001c3f0 0000003aH .text$_ZNSt3__113__rewrap_iterB6v15007IPP5StateS3_NS_18__unwrap_iter_implIS3_Lb1EEEEET_S6_T0_ CODE
 0001:0001c430 00000019H .text$_ZNSt3__118__unwrap_iter_implIPP5StateLb1EE8__unwrapB6v15007ES3_ CODE
 0001:0001c450 0000002dH .text$_ZNSt3__14pairIPP5StateS3_EC1B6v15007IS3_S3_LPv0EEEOT_OT0_ CODE
 0001:0001c480 00000032H .text$_ZNSt3__14pairIPP5StateS3_EC2B6v15007IS3_S3_LPv0EEEOT_OT0_ CODE
 0001:0001c4c0 0000004cH .text$_ZNSt3__118__unwrap_iter_implIPP5StateLb1EE8__rewrapB6v15007ES3_S3_ CODE
 0001:0001c510 0000003cH .text$_ZNSt3__18distanceB6v15007INS_13move_iteratorIPP5StateEEEENS_15iterator_traitsIT_E15difference_typeES7_S7_ CODE
 0001:0001c550 0000002dH .text$_ZNSt3__114__split_bufferIP5StateRNS_9allocatorIS2_EEE21_ConstructTransactionC1EPPS2_y CODE
 0001:0001c580 0000002dH .text$_ZNSt3__116allocator_traitsINS_9allocatorIP5StateEEE9constructB6v15007IS3_JS3_EvEEvRS4_PT_DpOT0_ CODE
 0001:0001c5b0 0000001dH .text$_ZNSt3__114__split_bufferIP5StateRNS_9allocatorIS2_EEE7__allocB6v15007Ev CODE
 0001:0001c5d0 0000000eH .text$_ZNKSt3__113move_iteratorIPP5StateEdeB6v15007Ev CODE
 0001:0001c5e0 00000015H .text$_ZNSt3__113move_iteratorIPP5StateEppB6v15007Ev CODE
 0001:0001c600 00000019H .text$_ZNSt3__114__split_bufferIP5StateRNS_9allocatorIS2_EEE21_ConstructTransactionD1Ev CODE
 0001:0001c620 00000028H .text$_ZNSt3__110__distanceB6v15007INS_13move_iteratorIPP5StateEEEENS_15iterator_traitsIT_E15difference_typeES7_S7_NS_26random_access_iterator_tagE CODE
 0001:0001c650 0000003bH .text$_ZNSt3__1miB6v15007IPP5StateS3_EEDTmicldtfp_4baseEcldtfp0_4baseEERKNS_13move_iteratorIT_EERKNS5_IT0_EE CODE
 0001:0001c690 0000000eH .text$_ZNKSt3__113move_iteratorIPP5StateE4baseB6v15007Ev CODE
 0001:0001c6a0 00000047H .text$_ZNSt3__114__split_bufferIP5StateRNS_9allocatorIS2_EEE21_ConstructTransactionC2EPPS2_y CODE
 0001:0001c6f0 00000026H .text$_ZNSt3__19allocatorIP5StateE9constructB6v15007IS2_JS2_EEEvPT_DpOT0_ CODE
 0001:0001c720 0000001dH .text$_ZNSt3__117__compressed_pairIPP5StateRNS_9allocatorIS2_EEE6secondB6v15007Ev CODE
 0001:0001c740 0000000eH .text$_ZNSt3__122__compressed_pair_elemIRNS_9allocatorIP5StateEELi1ELb0EE5__getB6v15007Ev CODE
 0001:0001c750 00000015H .text$_ZNSt3__114__split_bufferIP5StateRNS_9allocatorIS2_EEE21_ConstructTransactionD2Ev CODE
 0001:0001c770 0000001eH .text$_ZNSt3__113move_iteratorIPP5StateEC2B6v15007ES3_ CODE
 0001:0001c790 00000026H .text$_ZNSt3__19allocatorIP5StateE9constructB6v15007IS2_JRKS2_EEEvPT_DpOT0_ CODE
 0001:0001c7c0 00000051H .text$_ZNSt3__19allocatorI5StateE8allocateB6v15007Ey CODE
 0001:0001c820 00000019H .text$_ZNSt3__116allocator_traitsINS_9allocatorI5StateEEE8max_sizeB6v15007IS3_vEEyRKS3_ CODE
 0001:0001c840 00000011H .text$_ZNKSt3__19allocatorI5StateE8max_sizeB6v15007Ev CODE
 0001:0001c860 0000002dH .text$_ZNSt3__113move_backwardB6v15007IPP5StateS3_EET0_T_S5_S4_ CODE
 0001:0001c890 0000006aH .text$_ZNSt3__115__move_backwardB6v15007INS_17_ClassicAlgPolicyEPP5StateS4_EET1_T0_S6_S5_ CODE
 0001:0001c900 00000072H .text$_ZNSt3__120__move_backward_implB6v15007INS_17_ClassicAlgPolicyEP5StateS3_EENS_9enable_ifIXaasr7is_sameINS_12remove_constIT0_E4typeET1_EE5valuesr28is_trivially_move_assignableIS9_EE5valueEPS9_E4typeEPS6_SD_SA_ CODE
 0001:0001c980 000000d0H .text$_ZNSt3__114__split_bufferIP5StateRNS_9allocatorIS2_EEEC2EyyS5_ CODE
 0001:0001ca50 0000002dH .text$_ZNSt3__117__compressed_pairIPP5StateRNS_9allocatorIS2_EEEC1B6v15007IDnS6_EEOT_OT0_ CODE
 0001:0001ca80 0000004dH .text$_ZNSt3__119__allocate_at_leastB6v15007INS_9allocatorIP5StateEEEENS_19__allocation_resultINS_16allocator_traitsIT_E7pointerEEERS7_y CODE
 0001:0001cad0 00000040H .text$_ZNSt3__117__compressed_pairIPP5StateRNS_9allocatorIS2_EEEC2B6v15007IDnS6_EEOT_OT0_ CODE
 0001:0001cb10 0000001eH .text$_ZNSt3__122__compressed_pair_elemIRNS_9allocatorIP5StateEELi1ELb0EEC2B6v15007IS5_vEEOT_ CODE
 0001:0001cb30 00000051H .text$_ZNSt3__19allocatorIP5StateE8allocateB6v15007Ey CODE
 0001:0001cb90 00000019H .text$_ZNSt3__116allocator_traitsINS_9allocatorIP5StateEEE8max_sizeB6v15007IS4_vEEyRKS4_ CODE
 0001:0001cbb0 00000011H .text$_ZNKSt3__19allocatorIP5StateE8max_sizeB6v15007Ev CODE
 0001:0001cbd0 0000002cH .text$_ZNSt3__122__allocator_destructorINS_9allocatorI5StateEEEC2B6v15007ERS3_y CODE
 0001:0001cc00 0000003aH .text$_ZNSt3__110unique_ptrIP5StateNS_22__allocator_destructorINS_9allocatorIS1_EEEEEC2B6v15007ILb1EvEES2_NS_16__dependent_typeINS_27__unique_ptr_deleter_sfinaeIS6_EEXT_EE20__good_rval_ref_typeE CODE
 0001:0001cc40 0000002dH .text$_ZNSt3__117__compressed_pairIP5StateNS_22__allocator_destructorINS_9allocatorIS1_EEEEEC1B6v15007IRS2_S6_EEOT_OT0_ CODE
 0001:0001cc70 00000040H .text$_ZNSt3__117__compressed_pairIP5StateNS_22__allocator_destructorINS_9allocatorIS1_EEEEEC2B6v15007IRS2_S6_EEOT_OT0_ CODE
 0001:0001ccb0 00000021H .text$_ZNSt3__122__compressed_pair_elemIP5StateLi0ELb0EEC2B6v15007IRS2_vEEOT_ CODE
 0001:0001cce0 00000029H .text$_ZNSt3__122__compressed_pair_elemINS_22__allocator_destructorINS_9allocatorI5StateEEEELi1ELb0EEC2B6v15007IS5_vEEOT_ CODE
 0001:0001cd10 00000019H .text$_ZNKSt3__117__compressed_pairIP5StateNS_22__allocator_destructorINS_9allocatorIS1_EEEEE5firstB6v15007Ev CODE
 0001:0001cd30 0000000bH .text$_ZNKSt3__122__compressed_pair_elemIP5StateLi0ELb0EE5__getB6v15007Ev CODE
 0001:0001cd40 00000019H .text$_ZNSt3__117__compressed_pairIP5StateNS_22__allocator_destructorINS_9allocatorIS1_EEEEE5firstB6v15007Ev CODE
 0001:0001cd60 0000000bH .text$_ZNSt3__122__compressed_pair_elemIP5StateLi0ELb0EE5__getB6v15007Ev CODE
 0001:0001cd70 00000019H .text$_ZNSt3__117__compressed_pairIPP5StateNS_9allocatorIS2_EEE5firstB6v15007Ev CODE
 0001:0001cd90 0000000bH .text$_ZNSt3__122__compressed_pair_elemIPP5StateLi0ELb0EE5__getB6v15007Ev CODE
 0001:0001cda0 00000019H .text$_ZNSt3__117__compressed_pairIPP5StateRNS_9allocatorIS2_EEE5firstB6v15007Ev CODE
 0001:0001cdc0 0000001dH .text$_ZNSt3__110unique_ptrIP5StateNS_22__allocator_destructorINS_9allocatorIS1_EEEEED2B6v15007Ev CODE
 0001:0001cde0 0000006aH .text$_ZNSt3__110unique_ptrIP5StateNS_22__allocator_destructorINS_9allocatorIS1_EEEEE5resetB6v15007ES2_ CODE
 0001:0001ce50 0000001dH .text$_ZNSt3__117__compressed_pairIP5StateNS_22__allocator_destructorINS_9allocatorIS1_EEEEE6secondB6v15007Ev CODE
 0001:0001ce70 0000002aH .text$_ZNSt3__122__allocator_destructorINS_9allocatorI5StateEEEclB6v15007EPS2_ CODE
 0001:0001cea0 0000000bH .text$_ZNSt3__122__compressed_pair_elemINS_22__allocator_destructorINS_9allocatorI5StateEEEELi1ELb0EE5__getB6v15007Ev CODE
 0001:0001ceb0 00000075H .text$_ZNSt3__114__split_bufferIP5StateRNS_9allocatorIS2_EEED2Ev CODE
 0001:0001cf30 0000001dH .text$_ZNSt3__114__split_bufferIP5StateRNS_9allocatorIS2_EEE5clearB6v15007Ev CODE
 0001:0001cf50 0000002fH .text$_ZNKSt3__114__split_bufferIP5StateRNS_9allocatorIS2_EEE8capacityB6v15007Ev CODE
 0001:0001cf80 00000028H .text$_ZNSt3__114__split_bufferIP5StateRNS_9allocatorIS2_EEE17__destruct_at_endB6v15007EPS2_ CODE
 0001:0001cfb0 0000007eH .text$_ZNSt3__114__split_bufferIP5StateRNS_9allocatorIS2_EEE17__destruct_at_endB6v15007EPS2_NS_17integral_constantIbLb0EEE CODE
 0001:0001d030 0000001dH .text$_ZNKSt3__114__split_bufferIP5StateRNS_9allocatorIS2_EEE9__end_capB6v15007Ev CODE
 0001:0001d050 00000019H .text$_ZNKSt3__117__compressed_pairIPP5StateRNS_9allocatorIS2_EEE5firstB6v15007Ev CODE
 0001:0001d070 00000028H .text$_ZNSt3__19allocatorI5StateE9constructB6v15007IS1_JS1_EEEvPT_DpOT0_ CODE
 0001:0001d0a0 00000023H .text$_ZN5StateC1EOS_   CODE
 0001:0001d0d0 00000039H .text$_ZN5StateC2EOS_   CODE
 0001:0001d110 00000023H .text$_ZNSt3__16vectorINS0_IiNS_9allocatorIiEEEENS1_IS3_EEEC1B6v15007EOS5_ CODE
 0001:0001d140 000000ecH .text$_ZNSt3__16vectorINS0_IiNS_9allocatorIiEEEENS1_IS3_EEEC2B6v15007EOS5_ CODE
 0001:0001d230 00000024H .text$_ZNKSt3__15dequeI5StateNS_9allocatorIS1_EEE5emptyB6v15007Ev CODE
 0001:0001d260 0000003dH .text$_ZNSt3__15dequeI5StateNS_9allocatorIS1_EEE5frontEv CODE
 0001:0001d2a0 0000009bH .text$_ZNSt3__15dequeI5StateNS_9allocatorIS1_EEE9pop_frontEv CODE
 0001:0001d340 0000000bH .text$_ZNSt3__112__to_addressB6v15007I5StateEEPT_S3_ CODE
 0001:0001d350 000000afH .text$_ZNSt3__15dequeI5StateNS_9allocatorIS1_EEE26__maybe_remove_front_spareB6v15007Eb CODE
 0001:0001d400 0000001cH .text$_ZNKSt3__15dequeI5StateNS_9allocatorIS1_EEE20__front_spare_blocksB6v15007Ev CODE
 0001:0001d420 00000028H .text$_ZNSt3__16vectorINS0_IiNS_9allocatorIiEEEENS1_IS3_EEE19__copy_assign_allocB6v15007ERKS5_ CODE
 0001:0001d450 0000018fH .text$_ZNSt3__16vectorINS0_IiNS_9allocatorIiEEEENS1_IS3_EEE6assignIPS3_EENS_9enable_ifIXaasr27__is_cpp17_forward_iteratorIT_EE5valuesr16is_constructibleIS3_NS_15iterator_traitsIS9_E9referenceEEE5valueEvE4typeES9_S9_ CODE
 0001:0001d5e0 00000017H .text$_ZNSt3__16vectorINS0_IiNS_9allocatorIiEEEENS1_IS3_EEE19__copy_assign_allocB6v15007ERKS5_NS_17integral_constantIbLb0EEE CODE
 0001:0001d600 00000028H .text$_ZNSt3__18distanceB6v15007IPNS_6vectorIiNS_9allocatorIiEEEEEENS_15iterator_traitsIT_E15difference_typeES7_S7_ CODE
 0001:0001d630 00000058H .text$_ZNSt3__17advanceB6v15007IPNS_6vectorIiNS_9allocatorIiEEEEyyvEEvRT_T0_ CODE
 0001:0001d690 00000036H .text$_ZNSt3__14copyB6v15007IPNS_6vectorIiNS_9allocatorIiEEEES5_EET0_T_S7_S6_ CODE
 0001:0001d6d0 00000063H .text$_ZNSt3__16vectorINS0_IiNS_9allocatorIiEEEENS1_IS3_EEE17__destruct_at_endB6v15007EPS3_ CODE
 0001:0001d740 000000a0H .text$_ZNKSt3__16vectorINS0_IiNS_9allocatorIiEEEENS1_IS3_EEE11__recommendB6v15007Ey CODE
 0001:0001d7e0 0000002dH .text$_ZNSt3__110__distanceB6v15007IPNS_6vectorIiNS_9allocatorIiEEEEEENS_15iterator_traitsIT_E15difference_typeES7_S7_NS_26random_access_iterator_tagE CODE
 0001:0001d810 0000000bH .text$_ZNSt3__121__convert_to_integralB6v15007Ey CODE
 0001:0001d820 0000002aH .text$_ZNSt3__19__advanceB6v15007IPNS_6vectorIiNS_9allocatorIiEEEEEEvRT_NS_15iterator_traitsIS6_E15difference_typeENS_26random_access_iterator_tagE CODE
 0001:0001d850 000000ccH .text$_ZNSt3__16__copyB6v15007IPNS_6vectorIiNS_9allocatorIiEEEES5_S5_Li0EEENS_4pairIT_T1_EES7_T0_S8_ CODE
 0001:0001d920 0000005cH .text$_ZNSt3__114__unwrap_rangeB6v15007IPNS_6vectorIiNS_9allocatorIiEEEES5_EENS_4pairIT0_S7_EET_S9_ CODE
 0001:0001d980 00000083H .text$_ZNSt3__111__copy_implB6v15007IPNS_6vectorIiNS_9allocatorIiEEEES5_S5_EENS_4pairIT_T1_EES7_T0_S8_ CODE
 0001:0001da10 00000019H .text$_ZNSt3__113__unwrap_iterB6v15007IPNS_6vectorIiNS_9allocatorIiEEEENS_18__unwrap_iter_implIS5_Lb1EEELi0EEEDTclsrT0_8__unwrapclsr3stdE7declvalIT_EEEES9_ CODE
 0001:0001da30 00000034H .text$_ZNSt3__19make_pairB6v15007IPNS_6vectorIiNS_9allocatorIiEEEES5_EENS_4pairINS_18__unwrap_ref_decayIT_E4typeENS7_IT0_E4typeEEEOS8_OSB_ CODE
 0001:0001da70 00000023H .text$_ZNSt3__114__rewrap_rangeB6v15007IPNS_6vectorIiNS_9allocatorIiEEEES5_EET_S6_T0_ CODE
 0001:0001daa0 0000003aH .text$_ZNSt3__113__rewrap_iterB6v15007IPNS_6vectorIiNS_9allocatorIiEEEES5_NS_18__unwrap_iter_implIS5_Lb1EEEEET_S8_T0_ CODE
 0001:0001dae0 00000057H .text$_ZNSt3__16vectorIiNS_9allocatorIiEEEaSB6v15007ERKS3_ CODE
 0001:0001db40 0000002dH .text$_ZNSt3__14pairIPNS_6vectorIiNS_9allocatorIiEEEES5_EC1B6v15007IS5_S5_LPv0EEEOT_OT0_ CODE
 0001:0001db70 00000028H .text$_ZNSt3__16vectorIiNS_9allocatorIiEEE19__copy_assign_allocB6v15007ERKS3_ CODE
 0001:0001dba0 0000018fH .text$_ZNSt3__16vectorIiNS_9allocatorIiEEE6assignIPiEENS_9enable_ifIXaasr27__is_cpp17_forward_iteratorIT_EE5valuesr16is_constructibleIiNS_15iterator_traitsIS7_E9referenceEEE5valueEvE4typeES7_S7_ CODE
 0001:0001dd30 00000017H .text$_ZNSt3__16vectorIiNS_9allocatorIiEEE19__copy_assign_allocB6v15007ERKS3_NS_17integral_constantIbLb0EEE CODE
 0001:0001dd50 00000028H .text$_ZNSt3__18distanceB6v15007IPiEENS_15iterator_traitsIT_E15difference_typeES3_S3_ CODE
 0001:0001dd80 00000058H .text$_ZNSt3__17advanceB6v15007IPiyyvEEvRT_T0_ CODE
 0001:0001dde0 00000036H .text$_ZNSt3__14copyB6v15007IPiS1_EET0_T_S3_S2_ CODE
 0001:0001de20 00000063H .text$_ZNSt3__16vectorIiNS_9allocatorIiEEE17__destruct_at_endB6v15007EPi CODE
 0001:0001de90 00000087H .text$_ZNSt3__16vectorIiNS_9allocatorIiEEE13__vdeallocateEv CODE
 0001:0001df20 000000a0H .text$_ZNKSt3__16vectorIiNS_9allocatorIiEEE11__recommendB6v15007Ey CODE
 0001:0001dfc0 00000007H .text$_ZNSt3__125__debug_db_invalidate_allB6v15007INS_6vectorIiNS_9allocatorIiEEEEEEvPT_ CODE
 0001:0001dfd0 00000027H .text$_ZNSt3__110__distanceB6v15007IPiEENS_15iterator_traitsIT_E15difference_typeES3_S3_NS_26random_access_iterator_tagE CODE
 0001:0001e000 0000002aH .text$_ZNSt3__19__advanceB6v15007IPiEEvRT_NS_15iterator_traitsIS2_E15difference_typeENS_26random_access_iterator_tagE CODE
 0001:0001e030 000000ccH .text$_ZNSt3__16__copyB6v15007IPiS1_S1_Li0EEENS_4pairIT_T1_EES3_T0_S4_ CODE
 0001:0001e100 0000005cH .text$_ZNSt3__114__unwrap_rangeB6v15007IPiS1_EENS_4pairIT0_S3_EET_S5_ CODE
 0001:0001e160 000000a9H .text$_ZNSt3__111__copy_implB6v15007IiivEENS_4pairIPT_PT0_EES3_S3_S5_ CODE
 0001:0001e210 00000034H .text$_ZNSt3__19make_pairB6v15007IPiS1_EENS_4pairINS_18__unwrap_ref_decayIT_E4typeENS3_IT0_E4typeEEEOS4_OS7_ CODE
 0001:0001e250 00000023H .text$_ZNSt3__114__rewrap_rangeB6v15007IPiS1_EET_S2_T0_ CODE
 0001:0001e280 0000002dH .text$_ZNSt3__14pairIPiS1_EC1B6v15007IS1_S1_LPv0EEEOT_OT0_ CODE
 0001:0001e2b0 00000032H .text$_ZNSt3__14pairIPiS1_EC2B6v15007IS1_S1_LPv0EEEOT_OT0_ CODE
 0001:0001e2f0 00000012H .text$_ZNSt3__16vectorIiNS_9allocatorIiEEE27__invalidate_iterators_pastB6v15007EPi CODE
 0001:0001e310 000000b6H .text$_ZNKSt3__16vectorIiNS_9allocatorIiEEE17__annotate_shrinkB6v15007Ey CODE
 0001:0001e3d0 00000053H .text$_ZNSt3__16vectorIiNS_9allocatorIiEEE5clearB6v15007Ev CODE
 0001:0001e430 00000032H .text$_ZNSt3__14pairIPNS_6vectorIiNS_9allocatorIiEEEES5_EC2B6v15007IS5_S5_LPv0EEEOT_OT0_ CODE
 0001:0001e470 00000019H .text$_ZNSt3__118__unwrap_iter_implIPNS_6vectorIiNS_9allocatorIiEEEELb1EE8__unwrapB6v15007ES5_ CODE
 0001:0001e490 00000055H .text$_ZNSt3__118__unwrap_iter_implIPNS_6vectorIiNS_9allocatorIiEEEELb1EE8__rewrapB6v15007ES5_S5_ CODE
 0001:0001e4f0 00000012H .text$_ZNSt3__16vectorINS0_IiNS_9allocatorIiEEEENS1_IS3_EEE27__invalidate_iterators_pastB6v15007EPS3_ CODE
 0001:0001e510 000000ebH .text$_ZNSt3__16vectorINS_3setIiNS_4lessIiEENS_9allocatorIiEEEENS4_IS6_EEEC2Ey CODE
 0001:0001e600 0000002dH .text$_ZNSt3__117__compressed_pairIPNS_3setIiNS_4lessIiEENS_9allocatorIiEEEENS4_IS6_EEEC1B6v15007IDnNS_18__default_init_tagEEEOT_OT0_ CODE
 0001:0001e630 00000034H .text$_ZNSt3__118__make_transactionB6v15007INS_6vectorINS_3setIiNS_4lessIiEENS_9allocatorIiEEEENS5_IS7_EEE16__destroy_vectorEEENS_13__transactionIT_EESC_ CODE
 0001:0001e670 00000023H .text$_ZNSt3__16vectorINS_3setIiNS_4lessIiEENS_9allocatorIiEEEENS4_IS6_EEE16__destroy_vectorC1ERS8_ CODE
 0001:0001e6a0 00000007H .text$_ZNSt3__119__debug_db_insert_cB6v15007INS_6vectorINS_3setIiNS_4lessIiEENS_9allocatorIiEEEENS5_IS7_EEEEEEvPT_ CODE
 0001:0001e6b0 000000a6H .text$_ZNSt3__16vectorINS_3setIiNS_4lessIiEENS_9allocatorIiEEEENS4_IS6_EEE11__vallocateB6v15007Ey CODE
 0001:0001e760 000000cbH .text$_ZNSt3__16vectorINS_3setIiNS_4lessIiEENS_9allocatorIiEEEENS4_IS6_EEE18__construct_at_endEy CODE
 0001:0001e830 0000000fH .text$_ZNSt3__113__transactionINS_6vectorINS_3setIiNS_4lessIiEENS_9allocatorIiEEEENS5_IS7_EEE16__destroy_vectorEE10__completeB6v15007Ev CODE
 0001:0001e840 00000019H .text$_ZNSt3__113__transactionINS_6vectorINS_3setIiNS_4lessIiEENS_9allocatorIiEEEENS5_IS7_EEE16__destroy_vectorEED1B6v15007Ev CODE
 0001:0001e860 0000003bH .text$_ZNSt3__117__compressed_pairIPNS_3setIiNS_4lessIiEENS_9allocatorIiEEEENS4_IS6_EEEC2B6v15007IDnNS_18__default_init_tagEEEOT_OT0_ CODE
 0001:0001e8a0 0000001eH .text$_ZNSt3__122__compressed_pair_elemIPNS_3setIiNS_4lessIiEENS_9allocatorIiEEEELi0ELb0EEC2B6v15007IDnvEEOT_ CODE
 0001:0001e8c0 0000001dH .text$_ZNSt3__122__compressed_pair_elemINS_9allocatorINS_3setIiNS_4lessIiEENS1_IiEEEEEELi1ELb1EEC2B6v15007ENS_18__default_init_tagE CODE
 0001:0001e8e0 00000019H .text$_ZNSt3__19allocatorINS_3setIiNS_4lessIiEENS0_IiEEEEEC2B6v15007Ev CODE
 0001:0001e900 00000007H .text$_ZNSt3__116__non_trivial_ifILb1ENS_9allocatorINS_3setIiNS_4lessIiEENS1_IiEEEEEEEC2B6v15007Ev CODE
 0001:0001e910 00000023H .text$_ZNSt3__113__transactionINS_6vectorINS_3setIiNS_4lessIiEENS_9allocatorIiEEEENS5_IS7_EEE16__destroy_vectorEEC1B6v15007ESA_ CODE
 0001:0001e940 00000022H .text$_ZNSt3__113__transactionINS_6vectorINS_3setIiNS_4lessIiEENS_9allocatorIiEEEENS5_IS7_EEE16__destroy_vectorEEC2B6v15007ESA_ CODE
 0001:0001e970 0000001eH .text$_ZNSt3__16vectorINS_3setIiNS_4lessIiEENS_9allocatorIiEEEENS4_IS6_EEE16__destroy_vectorC2ERS8_ CODE
 0001:0001e990 00000059H .text$_ZNKSt3__16vectorINS_3setIiNS_4lessIiEENS_9allocatorIiEEEENS4_IS6_EEE8max_sizeEv CODE
 0001:0001e9f0 00000016H .text$_ZNKSt3__16vectorINS_3setIiNS_4lessIiEENS_9allocatorIiEEEENS4_IS6_EEE20__throw_length_errorB6v15007Ev CODE
 0001:0001ea10 0000004dH .text$_ZNSt3__119__allocate_at_leastB6v15007INS_9allocatorINS_3setIiNS_4lessIiEENS1_IiEEEEEEEENS_19__allocation_resultINS_16allocator_traitsIT_E7pointerEEERSA_y CODE
 0001:0001ea60 0000001dH .text$_ZNSt3__16vectorINS_3setIiNS_4lessIiEENS_9allocatorIiEEEENS4_IS6_EEE7__allocB6v15007Ev CODE
 0001:0001ea80 0000001dH .text$_ZNSt3__16vectorINS_3setIiNS_4lessIiEENS_9allocatorIiEEEENS4_IS6_EEE9__end_capB6v15007Ev CODE
 0001:0001eaa0 000000b3H .text$_ZNKSt3__16vectorINS_3setIiNS_4lessIiEENS_9allocatorIiEEEENS4_IS6_EEE14__annotate_newB6v15007Ey CODE
 0001:0001eb60 00000019H .text$_ZNSt3__116allocator_traitsINS_9allocatorINS_3setIiNS_4lessIiEENS1_IiEEEEEEE8max_sizeB6v15007IS7_vEEyRKS7_ CODE
 0001:0001eb80 0000001dH .text$_ZNKSt3__16vectorINS_3setIiNS_4lessIiEENS_9allocatorIiEEEENS4_IS6_EEE7__allocB6v15007Ev CODE
 0001:0001eba0 00000011H .text$_ZNKSt3__19allocatorINS_3setIiNS_4lessIiEENS0_IiEEEEE8max_sizeB6v15007Ev CODE
 0001:0001ebc0 00000019H .text$_ZNKSt3__117__compressed_pairIPNS_3setIiNS_4lessIiEENS_9allocatorIiEEEENS4_IS6_EEE6secondB6v15007Ev CODE
 0001:0001ebe0 0000000bH .text$_ZNKSt3__122__compressed_pair_elemINS_9allocatorINS_3setIiNS_4lessIiEENS1_IiEEEEEELi1ELb1EE5__getB6v15007Ev CODE
 0001:0001ebf0 0000004eH .text$_ZNSt3__19allocatorINS_3setIiNS_4lessIiEENS0_IiEEEEE8allocateB6v15007Ey CODE
 0001:0001ec40 00000019H .text$_ZNSt3__117__compressed_pairIPNS_3setIiNS_4lessIiEENS_9allocatorIiEEEENS4_IS6_EEE6secondB6v15007Ev CODE
 0001:0001ec60 0000000bH .text$_ZNSt3__122__compressed_pair_elemINS_9allocatorINS_3setIiNS_4lessIiEENS1_IiEEEEEELi1ELb1EE5__getB6v15007Ev CODE
 0001:0001ec70 00000019H .text$_ZNSt3__117__compressed_pairIPNS_3setIiNS_4lessIiEENS_9allocatorIiEEEENS4_IS6_EEE5firstB6v15007Ev CODE
 0001:0001ec90 0000000bH .text$_ZNSt3__122__compressed_pair_elemIPNS_3setIiNS_4lessIiEENS_9allocatorIiEEEELi0ELb0EE5__getB6v15007Ev CODE
 0001:0001eca0 00000021H .text$_ZNKSt3__16vectorINS_3setIiNS_4lessIiEENS_9allocatorIiEEEENS4_IS6_EEE31__annotate_contiguous_containerB6v15007EPKvSA_SA_SA_ CODE
 0001:0001ecd0 0000001cH .text$_ZNKSt3__16vectorINS_3setIiNS_4lessIiEENS_9allocatorIiEEEENS4_IS6_EEE4dataB6v15007Ev CODE
 0001:0001ecf0 00000035H .text$_ZNKSt3__16vectorINS_3setIiNS_4lessIiEENS_9allocatorIiEEEENS4_IS6_EEE8capacityB6v15007Ev CODE
 0001:0001ed30 0000000bH .text$_ZNSt3__112__to_addressB6v15007INS_3setIiNS_4lessIiEENS_9allocatorIiEEEEEEPT_S8_ CODE
 0001:0001ed40 0000001dH .text$_ZNKSt3__16vectorINS_3setIiNS_4lessIiEENS_9allocatorIiEEEENS4_IS6_EEE9__end_capB6v15007Ev CODE
 0001:0001ed60 00000019H .text$_ZNKSt3__117__compressed_pairIPNS_3setIiNS_4lessIiEENS_9allocatorIiEEEENS4_IS6_EEE5firstB6v15007Ev CODE
 0001:0001ed80 0000000bH .text$_ZNKSt3__122__compressed_pair_elemIPNS_3setIiNS_4lessIiEENS_9allocatorIiEEEELi0ELb0EE5__getB6v15007Ev CODE
 0001:0001ed90 0000002dH .text$_ZNSt3__16vectorINS_3setIiNS_4lessIiEENS_9allocatorIiEEEENS4_IS6_EEE21_ConstructTransactionC1ERS8_y CODE
 0001:0001edc0 00000023H .text$_ZNSt3__116allocator_traitsINS_9allocatorINS_3setIiNS_4lessIiEENS1_IiEEEEEEE9constructB6v15007IS6_JEvEEvRS7_PT_DpOT0_ CODE
 0001:0001edf0 00000019H .text$_ZNSt3__16vectorINS_3setIiNS_4lessIiEENS_9allocatorIiEEEENS4_IS6_EEE21_ConstructTransactionD1Ev CODE
 0001:0001ee10 00000046H .text$_ZNSt3__16vectorINS_3setIiNS_4lessIiEENS_9allocatorIiEEEENS4_IS6_EEE21_ConstructTransactionC2ERS8_y CODE
 0001:0001ee60 0000001eH .text$_ZNSt3__19allocatorINS_3setIiNS_4lessIiEENS0_IiEEEEE9constructB6v15007IS5_JEEEvPT_DpOT0_ CODE
 0001:0001ee80 00000019H .text$_ZNSt3__13setIiNS_4lessIiEENS_9allocatorIiEEEC1B6v15007Ev CODE
 0001:0001eea0 0000001eH .text$_ZNSt3__13setIiNS_4lessIiEENS_9allocatorIiEEEC2B6v15007Ev CODE
 0001:0001eec0 00000023H .text$_ZNSt3__16__treeIiNS_4lessIiEENS_9allocatorIiEEEC1ERKS2_ CODE
 0001:0001eef0 0000007aH .text$_ZNSt3__16__treeIiNS_4lessIiEENS_9allocatorIiEEEC2ERKS2_ CODE
 0001:0001ef70 00000019H .text$_ZNSt3__117__compressed_pairINS_15__tree_end_nodeIPNS_16__tree_node_baseIPvEEEENS_9allocatorINS_11__tree_nodeIiS3_EEEEEC1B6v15007ILb1EvEEv CODE
 0001:0001ef90 0000002dH .text$_ZNSt3__117__compressed_pairIyNS_4lessIiEEEC1B6v15007IiRKS2_EEOT_OT0_ CODE
 0001:0001efc0 00000030H .text$_ZNSt3__117__compressed_pairINS_15__tree_end_nodeIPNS_16__tree_node_baseIPvEEEENS_9allocatorINS_11__tree_nodeIiS3_EEEEEC2B6v15007ILb1EvEEv CODE
 0001:0001eff0 0000001dH .text$_ZNSt3__122__compressed_pair_elemINS_15__tree_end_nodeIPNS_16__tree_node_baseIPvEEEELi0ELb0EEC2B6v15007ENS_16__value_init_tagE CODE
 0001:0001f010 0000001dH .text$_ZNSt3__122__compressed_pair_elemINS_9allocatorINS_11__tree_nodeIiPvEEEELi1ELb1EEC2B6v15007ENS_16__value_init_tagE CODE
 0001:0001f030 00000019H .text$_ZNSt3__115__tree_end_nodeIPNS_16__tree_node_baseIPvEEEC1B6v15007Ev CODE
 0001:0001f050 00000012H .text$_ZNSt3__115__tree_end_nodeIPNS_16__tree_node_baseIPvEEEC2B6v15007Ev CODE
 0001:0001f070 00000019H .text$_ZNSt3__19allocatorINS_11__tree_nodeIiPvEEEC2B6v15007Ev CODE
 0001:0001f090 00000007H .text$_ZNSt3__116__non_trivial_ifILb1ENS_9allocatorINS_11__tree_nodeIiPvEEEEEC2B6v15007Ev CODE
 0001:0001f0a0 0000003cH .text$_ZNSt3__117__compressed_pairIyNS_4lessIiEEEC2B6v15007IiRKS2_EEOT_OT0_ CODE
 0001:0001f0e0 00000012H .text$_ZNSt3__122__compressed_pair_elemINS_4lessIiEELi1ELb1EEC2B6v15007IRKS2_vEEOT_ CODE
 0001:0001f100 00000016H .text$_ZNSt3__16vectorINS_3setIiNS_4lessIiEENS_9allocatorIiEEEENS4_IS6_EEE21_ConstructTransactionD2Ev CODE
 0001:0001f120 0000003fH .text$_ZNSt3__113__transactionINS_6vectorINS_3setIiNS_4lessIiEENS_9allocatorIiEEEENS5_IS7_EEE16__destroy_vectorEED2B6v15007Ev CODE
 0001:0001f160 0000008cH .text$_ZNSt3__16vectorINS_3setIiNS_4lessIiEENS_9allocatorIiEEEENS4_IS6_EEE16__destroy_vectorclB6v15007Ev CODE
 0001:0001f1f0 000000c3H .text$_ZNKSt3__16vectorINS_3setIiNS_4lessIiEENS_9allocatorIiEEEENS4_IS6_EEE17__annotate_deleteB6v15007Ev CODE
 0001:0001f2c0 00000007H .text$_ZNSt3__118__debug_db_erase_cB6v15007INS_6vectorINS_3setIiNS_4lessIiEENS_9allocatorIiEEEENS5_IS7_EEEEEEvPT_ CODE
 0001:0001f2d0 0000001cH .text$_ZNSt3__16vectorINS_3setIiNS_4lessIiEENS_9allocatorIiEEEENS4_IS6_EEE7__clearB6v15007Ev CODE
 0001:0001f2f0 0000002dH .text$_ZNSt3__116allocator_traitsINS_9allocatorINS_3setIiNS_4lessIiEENS1_IiEEEEEEE10deallocateB6v15007ERS7_PS6_y CODE
 0001:0001f320 0000001fH .text$_ZNKSt3__16vectorINS_3setIiNS_4lessIiEENS_9allocatorIiEEEENS4_IS6_EEE4sizeB6v15007Ev CODE
 0001:0001f340 00000086H .text$_ZNSt3__16vectorINS_3setIiNS_4lessIiEENS_9allocatorIiEEEENS4_IS6_EEE22__base_destruct_at_endB6v15007EPS6_ CODE
 0001:0001f3d0 00000023H .text$_ZNSt3__116allocator_traitsINS_9allocatorINS_3setIiNS_4lessIiEENS1_IiEEEEEEE7destroyB6v15007IS6_vEEvRS7_PT_ CODE
 0001:0001f400 0000001eH .text$_ZNSt3__19allocatorINS_3setIiNS_4lessIiEENS0_IiEEEEE7destroyB6v15007EPS5_ CODE
 0001:0001f420 00000019H .text$_ZNSt3__13setIiNS_4lessIiEENS_9allocatorIiEEED1B6v15007Ev CODE
 0001:0001f440 00000019H .text$_ZNSt3__13setIiNS_4lessIiEENS_9allocatorIiEEED2B6v15007Ev CODE
 0001:0001f460 00000019H .text$_ZNSt3__16__treeIiNS_4lessIiEENS_9allocatorIiEEED1Ev CODE
 0001:0001f480 0000002bH .text$_ZNSt3__16__treeIiNS_4lessIiEENS_9allocatorIiEEED2Ev CODE
 0001:0001f4b0 00000098H .text$_ZNSt3__16__treeIiNS_4lessIiEENS_9allocatorIiEEE7destroyEPNS_11__tree_nodeIiPvEE CODE
 0001:0001f550 00000043H .text$_ZNSt3__19allocatorINS_3setIiNS_4lessIiEENS0_IiEEEEE10deallocateB6v15007EPS5_y CODE
 0001:0001f5a0 0000003aH .text$_ZNSt3__16vectorINS_3setIiNS_4lessIiEENS_9allocatorIiEEEENS4_IS6_EEED2B6v15007Ev CODE
 0001:0001f5e0 000000f5H .text$_ZNSt3__16vectorINS0_INS_3setIiNS_4lessIiEENS_9allocatorIiEEEENS4_IS6_EEEENS4_IS8_EEEC2EyRKS8_ CODE
 0001:0001f6e0 0000002dH .text$_ZNSt3__117__compressed_pairIPNS_6vectorINS_3setIiNS_4lessIiEENS_9allocatorIiEEEENS5_IS7_EEEENS5_IS9_EEEC1B6v15007IDnNS_18__default_init_tagEEEOT_OT0_ CODE
 0001:0001f710 00000034H .text$_ZNSt3__118__make_transactionB6v15007INS_6vectorINS1_INS_3setIiNS_4lessIiEENS_9allocatorIiEEEENS5_IS7_EEEENS5_IS9_EEE16__destroy_vectorEEENS_13__transactionIT_EESE_ CODE
 0001:0001f750 00000023H .text$_ZNSt3__16vectorINS0_INS_3setIiNS_4lessIiEENS_9allocatorIiEEEENS4_IS6_EEEENS4_IS8_EEE16__destroy_vectorC1ERSA_ CODE
 0001:0001f780 00000007H .text$_ZNSt3__119__debug_db_insert_cB6v15007INS_6vectorINS1_INS_3setIiNS_4lessIiEENS_9allocatorIiEEEENS5_IS7_EEEENS5_IS9_EEEEEEvPT_ CODE
 0001:0001f790 000000a6H .text$_ZNSt3__16vectorINS0_INS_3setIiNS_4lessIiEENS_9allocatorIiEEEENS4_IS6_EEEENS4_IS8_EEE11__vallocateB6v15007Ey CODE
 0001:0001f840 000000e1H .text$_ZNSt3__16vectorINS0_INS_3setIiNS_4lessIiEENS_9allocatorIiEEEENS4_IS6_EEEENS4_IS8_EEE18__construct_at_endEyRKS8_ CODE
 0001:0001f930 0000000fH .text$_ZNSt3__113__transactionINS_6vectorINS1_INS_3setIiNS_4lessIiEENS_9allocatorIiEEEENS5_IS7_EEEENS5_IS9_EEE16__destroy_vectorEE10__completeB6v15007Ev CODE
 0001:0001f940 00000019H .text$_ZNSt3__113__transactionINS_6vectorINS1_INS_3setIiNS_4lessIiEENS_9allocatorIiEEEENS5_IS7_EEEENS5_IS9_EEE16__destroy_vectorEED1B6v15007Ev CODE
 0001:0001f960 0000003bH .text$_ZNSt3__117__compressed_pairIPNS_6vectorINS_3setIiNS_4lessIiEENS_9allocatorIiEEEENS5_IS7_EEEENS5_IS9_EEEC2B6v15007IDnNS_18__default_init_tagEEEOT_OT0_ CODE
 0001:0001f9a0 0000001eH .text$_ZNSt3__122__compressed_pair_elemIPNS_6vectorINS_3setIiNS_4lessIiEENS_9allocatorIiEEEENS5_IS7_EEEELi0ELb0EEC2B6v15007IDnvEEOT_ CODE
 0001:0001f9c0 0000001dH .text$_ZNSt3__122__compressed_pair_elemINS_9allocatorINS_6vectorINS_3setIiNS_4lessIiEENS1_IiEEEENS1_IS7_EEEEEELi1ELb1EEC2B6v15007ENS_18__default_init_tagE CODE
 0001:0001f9e0 00000019H .text$_ZNSt3__19allocatorINS_6vectorINS_3setIiNS_4lessIiEENS0_IiEEEENS0_IS6_EEEEEC2B6v15007Ev CODE
 0001:0001fa00 00000007H .text$_ZNSt3__116__non_trivial_ifILb1ENS_9allocatorINS_6vectorINS_3setIiNS_4lessIiEENS1_IiEEEENS1_IS7_EEEEEEEC2B6v15007Ev CODE
 0001:0001fa10 00000023H .text$_ZNSt3__113__transactionINS_6vectorINS1_INS_3setIiNS_4lessIiEENS_9allocatorIiEEEENS5_IS7_EEEENS5_IS9_EEE16__destroy_vectorEEC1B6v15007ESC_ CODE
 0001:0001fa40 00000022H .text$_ZNSt3__113__transactionINS_6vectorINS1_INS_3setIiNS_4lessIiEENS_9allocatorIiEEEENS5_IS7_EEEENS5_IS9_EEE16__destroy_vectorEEC2B6v15007ESC_ CODE
 0001:0001fa70 0000001eH .text$_ZNSt3__16vectorINS0_INS_3setIiNS_4lessIiEENS_9allocatorIiEEEENS4_IS6_EEEENS4_IS8_EEE16__destroy_vectorC2ERSA_ CODE
 0001:0001fa90 00000059H .text$_ZNKSt3__16vectorINS0_INS_3setIiNS_4lessIiEENS_9allocatorIiEEEENS4_IS6_EEEENS4_IS8_EEE8max_sizeEv CODE
 0001:0001faf0 00000016H .text$_ZNKSt3__16vectorINS0_INS_3setIiNS_4lessIiEENS_9allocatorIiEEEENS4_IS6_EEEENS4_IS8_EEE20__throw_length_errorB6v15007Ev CODE
 0001:0001fb10 0000004dH .text$_ZNSt3__119__allocate_at_leastB6v15007INS_9allocatorINS_6vectorINS_3setIiNS_4lessIiEENS1_IiEEEENS1_IS7_EEEEEEEENS_19__allocation_resultINS_16allocator_traitsIT_E7pointerEEERSD_y CODE
 0001:0001fb60 0000001dH .text$_ZNSt3__16vectorINS0_INS_3setIiNS_4lessIiEENS_9allocatorIiEEEENS4_IS6_EEEENS4_IS8_EEE7__allocB6v15007Ev CODE
 0001:0001fb80 0000001dH .text$_ZNSt3__16vectorINS0_INS_3setIiNS_4lessIiEENS_9allocatorIiEEEENS4_IS6_EEEENS4_IS8_EEE9__end_capB6v15007Ev CODE
 0001:0001fba0 000000b3H .text$_ZNKSt3__16vectorINS0_INS_3setIiNS_4lessIiEENS_9allocatorIiEEEENS4_IS6_EEEENS4_IS8_EEE14__annotate_newB6v15007Ey CODE
 0001:0001fc60 00000019H .text$_ZNSt3__116allocator_traitsINS_9allocatorINS_6vectorINS_3setIiNS_4lessIiEENS1_IiEEEENS1_IS7_EEEEEEE8max_sizeB6v15007ISA_vEEyRKSA_ CODE
 0001:0001fc80 0000001dH .text$_ZNKSt3__16vectorINS0_INS_3setIiNS_4lessIiEENS_9allocatorIiEEEENS4_IS6_EEEENS4_IS8_EEE7__allocB6v15007Ev CODE
 0001:0001fca0 00000011H .text$_ZNKSt3__19allocatorINS_6vectorINS_3setIiNS_4lessIiEENS0_IiEEEENS0_IS6_EEEEE8max_sizeB6v15007Ev CODE
 0001:0001fcc0 00000019H .text$_ZNKSt3__117__compressed_pairIPNS_6vectorINS_3setIiNS_4lessIiEENS_9allocatorIiEEEENS5_IS7_EEEENS5_IS9_EEE6secondB6v15007Ev CODE
 0001:0001fce0 0000000bH .text$_ZNKSt3__122__compressed_pair_elemINS_9allocatorINS_6vectorINS_3setIiNS_4lessIiEENS1_IiEEEENS1_IS7_EEEEEELi1ELb1EE5__getB6v15007Ev CODE
 0001:0001fcf0 0000004eH .text$_ZNSt3__19allocatorINS_6vectorINS_3setIiNS_4lessIiEENS0_IiEEEENS0_IS6_EEEEE8allocateB6v15007Ey CODE
 0001:0001fd40 00000019H .text$_ZNSt3__117__compressed_pairIPNS_6vectorINS_3setIiNS_4lessIiEENS_9allocatorIiEEEENS5_IS7_EEEENS5_IS9_EEE6secondB6v15007Ev CODE
 0001:0001fd60 0000000bH .text$_ZNSt3__122__compressed_pair_elemINS_9allocatorINS_6vectorINS_3setIiNS_4lessIiEENS1_IiEEEENS1_IS7_EEEEEELi1ELb1EE5__getB6v15007Ev CODE
 0001:0001fd70 00000019H .text$_ZNSt3__117__compressed_pairIPNS_6vectorINS_3setIiNS_4lessIiEENS_9allocatorIiEEEENS5_IS7_EEEENS5_IS9_EEE5firstB6v15007Ev CODE
 0001:0001fd90 0000000bH .text$_ZNSt3__122__compressed_pair_elemIPNS_6vectorINS_3setIiNS_4lessIiEENS_9allocatorIiEEEENS5_IS7_EEEELi0ELb0EE5__getB6v15007Ev CODE
 0001:0001fda0 00000021H .text$_ZNKSt3__16vectorINS0_INS_3setIiNS_4lessIiEENS_9allocatorIiEEEENS4_IS6_EEEENS4_IS8_EEE31__annotate_contiguous_containerB6v15007EPKvSC_SC_SC_ CODE
 0001:0001fdd0 0000001cH .text$_ZNKSt3__16vectorINS0_INS_3setIiNS_4lessIiEENS_9allocatorIiEEEENS4_IS6_EEEENS4_IS8_EEE4dataB6v15007Ev CODE
 0001:0001fdf0 00000035H .text$_ZNKSt3__16vectorINS0_INS_3setIiNS_4lessIiEENS_9allocatorIiEEEENS4_IS6_EEEENS4_IS8_EEE8capacityB6v15007Ev CODE
 0001:0001fe30 0000000bH .text$_ZNSt3__112__to_addressB6v15007INS_6vectorINS_3setIiNS_4lessIiEENS_9allocatorIiEEEENS5_IS7_EEEEEEPT_SB_ CODE
 0001:0001fe40 0000001dH .text$_ZNKSt3__16vectorINS0_INS_3setIiNS_4lessIiEENS_9allocatorIiEEEENS4_IS6_EEEENS4_IS8_EEE9__end_capB6v15007Ev CODE
 0001:0001fe60 00000019H .text$_ZNKSt3__117__compressed_pairIPNS_6vectorINS_3setIiNS_4lessIiEENS_9allocatorIiEEEENS5_IS7_EEEENS5_IS9_EEE5firstB6v15007Ev CODE
 0001:0001fe80 0000000bH .text$_ZNKSt3__122__compressed_pair_elemIPNS_6vectorINS_3setIiNS_4lessIiEENS_9allocatorIiEEEENS5_IS7_EEEELi0ELb0EE5__getB6v15007Ev CODE
 0001:0001fe90 0000002dH .text$_ZNSt3__16vectorINS0_INS_3setIiNS_4lessIiEENS_9allocatorIiEEEENS4_IS6_EEEENS4_IS8_EEE21_ConstructTransactionC1ERSA_y CODE
 0001:0001fec0 0000002dH .text$_ZNSt3__116allocator_traitsINS_9allocatorINS_6vectorINS_3setIiNS_4lessIiEENS1_IiEEEENS1_IS7_EEEEEEE9constructB6v15007IS9_JRKS9_EvEEvRSA_PT_DpOT0_ CODE
 0001:0001fef0 00000019H .text$_ZNSt3__16vectorINS0_INS_3setIiNS_4lessIiEENS_9allocatorIiEEEENS4_IS6_EEEENS4_IS8_EEE21_ConstructTransactionD1Ev CODE
 0001:0001ff10 00000046H .text$_ZNSt3__16vectorINS0_INS_3setIiNS_4lessIiEENS_9allocatorIiEEEENS4_IS6_EEEENS4_IS8_EEE21_ConstructTransactionC2ERSA_y CODE
 0001:0001ff60 00000028H .text$_ZNSt3__19allocatorINS_6vectorINS_3setIiNS_4lessIiEENS0_IiEEEENS0_IS6_EEEEE9constructB6v15007IS8_JRKS8_EEEvPT_DpOT0_ CODE
 0001:0001ff90 00000023H .text$_ZNSt3__16vectorINS_3setIiNS_4lessIiEENS_9allocatorIiEEEENS4_IS6_EEEC1ERKS8_ CODE
 0001:0001ffc0 0000012dH .text$_ZNSt3__16vectorINS_3setIiNS_4lessIiEENS_9allocatorIiEEEENS4_IS6_EEEC2ERKS8_ CODE
 0001:000200f0 00000011H .text$_ZNSt3__116allocator_traitsINS_9allocatorINS_3setIiNS_4lessIiEENS1_IiEEEEEEE37select_on_container_copy_constructionB6v15007IS7_vvEES7_RKS7_ CODE
 0001:00020110 0000002dH .text$_ZNSt3__117__compressed_pairIPNS_3setIiNS_4lessIiEENS_9allocatorIiEEEENS4_IS6_EEEC1B6v15007IDnS8_EEOT_OT0_ CODE
 0001:00020140 00000099H .text$_ZNSt3__16vectorINS_3setIiNS_4lessIiEENS_9allocatorIiEEEENS4_IS6_EEE18__construct_at_endIPS6_EENS_9enable_ifIXsr27__is_cpp17_forward_iteratorIT_EE5valueEvE4typeESC_SC_y CODE
 0001:000201e0 0000003cH .text$_ZNSt3__117__compressed_pairIPNS_3setIiNS_4lessIiEENS_9allocatorIiEEEENS4_IS6_EEEC2B6v15007IDnS8_EEOT_OT0_ CODE
 0001:00020220 00000012H .text$_ZNSt3__122__compressed_pair_elemINS_9allocatorINS_3setIiNS_4lessIiEENS1_IiEEEEEELi1ELb1EEC2B6v15007IS7_vEEOT_ CODE
 0001:00020240 0000010cH .text$_ZNSt3__130__uninitialized_allocator_copyB6v15007INS_9allocatorINS_3setIiNS_4lessIiEENS1_IiEEEEEEPS6_S8_S8_EET2_RT_T0_T1_S9_ CODE
 0001:00020350 0000002dH .text$_ZNSt3__116allocator_traitsINS_9allocatorINS_3setIiNS_4lessIiEENS1_IiEEEEEEE9constructB6v15007IS6_JRS6_EvEEvRS7_PT_DpOT0_ CODE
 0001:00020380 00000037H .text$_ZNSt3__129_AllocatorDestroyRangeReverseINS_9allocatorINS_3setIiNS_4lessIiEENS1_IiEEEEEEPS6_EC1B6v15007ERS7_RS8_SB_ CODE
 0001:000203c0 0000005cH .text$_ZNKSt3__129_AllocatorDestroyRangeReverseINS_9allocatorINS_3setIiNS_4lessIiEENS1_IiEEEEEEPS6_EclB6v15007Ev CODE
 0001:00020420 00000028H .text$_ZNSt3__19allocatorINS_3setIiNS_4lessIiEENS0_IiEEEEE9constructB6v15007IS5_JRS5_EEEvPT_DpOT0_ CODE
 0001:00020450 00000023H .text$_ZNSt3__13setIiNS_4lessIiEENS_9allocatorIiEEEC1B6v15007ERKS5_ CODE
 0001:00020480 00000089H .text$_ZNSt3__13setIiNS_4lessIiEENS_9allocatorIiEEEC2B6v15007ERKS5_ CODE
 0001:00020510 00000023H .text$_ZNSt3__16__treeIiNS_4lessIiEENS_9allocatorIiEEEC1ERKS5_ CODE
 0001:00020540 00000082H .text$_ZNSt3__13setIiNS_4lessIiEENS_9allocatorIiEEE6insertB6v15007INS_21__tree_const_iteratorIiPNS_11__tree_nodeIiPvEExEEEEvT_SD_ CODE
 0001:000205d0 00000022H .text$_ZNKSt3__13setIiNS_4lessIiEENS_9allocatorIiEEE5beginB6v15007Ev CODE
 0001:00020600 00000022H .text$_ZNKSt3__13setIiNS_4lessIiEENS_9allocatorIiEEE3endB6v15007Ev CODE
 0001:00020630 000000aaH .text$_ZNSt3__16__treeIiNS_4lessIiEENS_9allocatorIiEEEC2ERKS5_ CODE
 0001:000206e0 00000011H .text$_ZNSt3__116allocator_traitsINS_9allocatorINS_11__tree_nodeIiPvEEEEE37select_on_container_copy_constructionB6v15007IS5_vvEES5_RKS5_ CODE
 0001:00020700 0000001dH .text$_ZNKSt3__16__treeIiNS_4lessIiEENS_9allocatorIiEEE12__node_allocB6v15007Ev CODE
 0001:00020720 0000002dH .text$_ZNSt3__117__compressed_pairINS_15__tree_end_nodeIPNS_16__tree_node_baseIPvEEEENS_9allocatorINS_11__tree_nodeIiS3_EEEEEC1B6v15007INS_18__default_init_tagESA_EEOT_OT0_ CODE
 0001:00020750 0000001dH .text$_ZNKSt3__16__treeIiNS_4lessIiEENS_9allocatorIiEEE10value_compB6v15007Ev CODE
 0001:00020770 00000019H .text$_ZNKSt3__117__compressed_pairINS_15__tree_end_nodeIPNS_16__tree_node_baseIPvEEEENS_9allocatorINS_11__tree_nodeIiS3_EEEEE6secondB6v15007Ev CODE
 0001:00020790 0000000bH .text$_ZNKSt3__122__compressed_pair_elemINS_9allocatorINS_11__tree_nodeIiPvEEEELi1ELb1EE5__getB6v15007Ev CODE
 0001:000207a0 0000003bH .text$_ZNSt3__117__compressed_pairINS_15__tree_end_nodeIPNS_16__tree_node_baseIPvEEEENS_9allocatorINS_11__tree_nodeIiS3_EEEEEC2B6v15007INS_18__default_init_tagESA_EEOT_OT0_ CODE
 0001:000207e0 0000001dH .text$_ZNSt3__122__compressed_pair_elemINS_15__tree_end_nodeIPNS_16__tree_node_baseIPvEEEELi0ELb0EEC2B6v15007ENS_18__default_init_tagE CODE
 0001:00020800 00000012H .text$_ZNSt3__122__compressed_pair_elemINS_9allocatorINS_11__tree_nodeIiPvEEEELi1ELb1EEC2B6v15007IS5_vEEOT_ CODE
 0001:00020820 00000019H .text$_ZNKSt3__117__compressed_pairIyNS_4lessIiEEE6secondB6v15007Ev CODE
 0001:00020840 0000000bH .text$_ZNKSt3__122__compressed_pair_elemINS_4lessIiEELi1ELb1EE5__getB6v15007Ev CODE
 0001:00020850 00000022H .text$_ZNKSt3__13setIiNS_4lessIiEENS_9allocatorIiEEE4cendB6v15007Ev CODE
 0001:00020880 00000066H .text$_ZNSt3__16__treeIiNS_4lessIiEENS_9allocatorIiEEE15__insert_uniqueB6v15007ENS_21__tree_const_iteratorIiPNS_11__tree_nodeIiPvEExEERKi CODE
 0001:000208f0 0000015bH .text$_ZNSt3__16__treeIiNS_4lessIiEENS_9allocatorIiEEE30__emplace_hint_unique_key_argsIiJRKiEEENS_4pairINS_15__tree_iteratorIiPNS_11__tree_nodeIiPvEExEEbEENS_21__tree_const_iteratorIiSE_xEERKT_DpOT0_ CODE
 0001:00020a50 000003efH .text$_ZNSt3__16__treeIiNS_4lessIiEENS_9allocatorIiEEE12__find_equalIiEERPNS_16__tree_node_baseIPvEENS_21__tree_const_iteratorIiPNS_11__tree_nodeIiS8_EExEERPNS_15__tree_end_nodeISA_EESB_RKT_ CODE
 0001:00020e40 0000002bH .text$_ZNSt3__121__tree_const_iteratorIiPNS_11__tree_nodeIiPvEExEmmB6v15007Ev CODE
 0001:00020e70 00000052H .text$_ZNSt3__14nextB6v15007INS_21__tree_const_iteratorIiPNS_11__tree_nodeIiPvEExEEEENS_9enable_ifIXsr25__is_cpp17_input_iteratorIT_EE5valueES8_E4typeES8_NS_15iterator_traitsIS8_E15difference_typeE CODE
 0001:00020ed0 0000007dH .text$_ZNSt3__116__tree_prev_iterB6v15007IPNS_16__tree_node_baseIPvEEPNS_15__tree_end_nodeIS4_EEEET_T0_ CODE
 0001:00020f50 0000002bH .text$_ZNSt3__110__tree_maxB6v15007IPNS_16__tree_node_baseIPvEEEET_S5_ CODE
 0001:00020f80 00000058H .text$_ZNSt3__17advanceB6v15007INS_21__tree_const_iteratorIiPNS_11__tree_nodeIiPvEExEExxvEEvRT_T0_ CODE
 0001:00020fe0 0000000bH .text$_ZNSt3__121__convert_to_integralB6v15007Ex CODE
 0001:00020ff0 0000008aH .text$_ZNSt3__19__advanceB6v15007INS_21__tree_const_iteratorIiPNS_11__tree_nodeIiPvEExEEEEvRT_NS_15iterator_traitsIS7_E15difference_typeENS_26bidirectional_iterator_tagE CODE
 0001:00021080 0000002aH .text$_ZNKSt3__16__treeIiNS_4lessIiEENS_9allocatorIiEEE5beginB6v15007Ev CODE
 0001:000210b0 0000000bH .text$_ZNKSt3__16__treeIiNS_4lessIiEENS_9allocatorIiEEE12__begin_nodeB6v15007Ev CODE
 0001:000210c0 00000023H .text$_ZNSt3__121__tree_const_iteratorIiPNS_11__tree_nodeIiPvEExEC1B6v15007EPNS_15__tree_end_nodeIPNS_16__tree_node_baseIS2_EEEE CODE
 0001:000210f0 0000001eH .text$_ZNSt3__121__tree_const_iteratorIiPNS_11__tree_nodeIiPvEExEC2B6v15007EPNS_15__tree_end_nodeIPNS_16__tree_node_baseIS2_EEEE CODE
 0001:00021110 0000002aH .text$_ZNKSt3__16__treeIiNS_4lessIiEENS_9allocatorIiEEE3endB6v15007Ev CODE
 0001:00021140 0000003aH .text$_ZNSt3__129_AllocatorDestroyRangeReverseINS_9allocatorINS_3setIiNS_4lessIiEENS1_IiEEEEEEPS6_EC2B6v15007ERS7_RS8_SB_ CODE
 0001:00021180 00000064H .text$_ZNSt3__119__allocator_destroyB6v15007INS_9allocatorINS_3setIiNS_4lessIiEENS1_IiEEEEEENS_16reverse_iteratorIPS6_EESA_EEvRT_T0_T1_ CODE
 0001:000211f0 00000023H .text$_ZNSt3__116reverse_iteratorIPNS_3setIiNS_4lessIiEENS_9allocatorIiEEEEEC1B6v15007ES7_ CODE
 0001:00021220 0000003fH .text$_ZNSt3__1neB6v15007IPNS_3setIiNS_4lessIiEENS_9allocatorIiEEEES7_EEbRKNS_16reverse_iteratorIT_EERKNS8_IT0_EE CODE
 0001:00021260 00000019H .text$_ZNSt3__112__to_addressB6v15007INS_16reverse_iteratorIPNS_3setIiNS_4lessIiEENS_9allocatorIiEEEEEEvEENS_5decayIDTclsr19__to_address_helperIT_EE6__callcl7declvalIRKSB_EEEEE4typeESD_ CODE
 0001:00021280 00000017H .text$_ZNSt3__116reverse_iteratorIPNS_3setIiNS_4lessIiEENS_9allocatorIiEEEEEppB6v15007Ev CODE
 0001:000212a0 0000000fH .text$_ZNKSt3__116reverse_iteratorIPNS_3setIiNS_4lessIiEENS_9allocatorIiEEEEE4baseB6v15007Ev CODE
 0001:000212b0 00000036H .text$_ZNSt3__119__to_address_helperINS_16reverse_iteratorIPNS_3setIiNS_4lessIiEENS_9allocatorIiEEEEEEvE6__callB6v15007ERKS9_ CODE
 0001:000212f0 00000019H .text$_ZNKSt3__116reverse_iteratorIPNS_3setIiNS_4lessIiEENS_9allocatorIiEEEEEptB6v15007Ev CODE
 0001:00021310 00000027H .text$_ZNKSt3__116reverse_iteratorIPNS_3setIiNS_4lessIiEENS_9allocatorIiEEEEEdeB6v15007Ev CODE
 0001:00021340 00000026H .text$_ZNSt3__116reverse_iteratorIPNS_3setIiNS_4lessIiEENS_9allocatorIiEEEEEC2B6v15007ES7_ CODE
 0001:00021370 00000016H .text$_ZNSt3__16vectorINS0_INS_3setIiNS_4lessIiEENS_9allocatorIiEEEENS4_IS6_EEEENS4_IS8_EEE21_ConstructTransactionD2Ev CODE
 0001:00021390 0000003fH .text$_ZNSt3__113__transactionINS_6vectorINS1_INS_3setIiNS_4lessIiEENS_9allocatorIiEEEENS5_IS7_EEEENS5_IS9_EEE16__destroy_vectorEED2B6v15007Ev CODE
 0001:000213d0 0000008cH .text$_ZNSt3__16vectorINS0_INS_3setIiNS_4lessIiEENS_9allocatorIiEEEENS4_IS6_EEEENS4_IS8_EEE16__destroy_vectorclB6v15007Ev CODE
 0001:00021460 000000c3H .text$_ZNKSt3__16vectorINS0_INS_3setIiNS_4lessIiEENS_9allocatorIiEEEENS4_IS6_EEEENS4_IS8_EEE17__annotate_deleteB6v15007Ev CODE
 0001:00021530 00000007H .text$_ZNSt3__118__debug_db_erase_cB6v15007INS_6vectorINS1_INS_3setIiNS_4lessIiEENS_9allocatorIiEEEENS5_IS7_EEEENS5_IS9_EEEEEEvPT_ CODE
 0001:00021540 0000001cH .text$_ZNSt3__16vectorINS0_INS_3setIiNS_4lessIiEENS_9allocatorIiEEEENS4_IS6_EEEENS4_IS8_EEE7__clearB6v15007Ev CODE
 0001:00021560 0000002dH .text$_ZNSt3__116allocator_traitsINS_9allocatorINS_6vectorINS_3setIiNS_4lessIiEENS1_IiEEEENS1_IS7_EEEEEEE10deallocateB6v15007ERSA_PS9_y CODE
 0001:00021590 0000001fH .text$_ZNKSt3__16vectorINS0_INS_3setIiNS_4lessIiEENS_9allocatorIiEEEENS4_IS6_EEEENS4_IS8_EEE4sizeB6v15007Ev CODE
 0001:000215b0 00000086H .text$_ZNSt3__16vectorINS0_INS_3setIiNS_4lessIiEENS_9allocatorIiEEEENS4_IS6_EEEENS4_IS8_EEE22__base_destruct_at_endB6v15007EPS8_ CODE
 0001:00021640 00000023H .text$_ZNSt3__116allocator_traitsINS_9allocatorINS_6vectorINS_3setIiNS_4lessIiEENS1_IiEEEENS1_IS7_EEEEEEE7destroyB6v15007IS9_vEEvRSA_PT_ CODE
 0001:00021670 0000001eH .text$_ZNSt3__19allocatorINS_6vectorINS_3setIiNS_4lessIiEENS0_IiEEEENS0_IS6_EEEEE7destroyB6v15007EPS8_ CODE
 0001:00021690 00000043H .text$_ZNSt3__19allocatorINS_6vectorINS_3setIiNS_4lessIiEENS0_IiEEEENS0_IS6_EEEEE10deallocateB6v15007EPS8_y CODE
 0001:000216e0 0000003aH .text$_ZNSt3__16vectorINS0_INS_3setIiNS_4lessIiEENS_9allocatorIiEEEENS4_IS6_EEEENS4_IS8_EEED2B6v15007Ev CODE
 0001:00021720 000001f2H .text                   CODE
 0001:00021920 0000004cH .text$_ZN6TForm3D0Ev    CODE
 0001:00021970 00000161H .text                   CODE
 0001:00021ae0 0000004cH .text$_ZN6TForm2D0Ev    CODE
 0001:00021b30 00004046H .text                   CODE
 0001:00025b80 000000d2H .text$_ZN6System8Sysutils11ERangeErrorC3ENS_13UnicodeStringE CODE
 0001:00025c60 0000004cH .text$_ZN6System8Sysutils11ERangeErrorD0Ev CODE
 0001:00025cb0 0000005bH .text$_ZN6System11WideCharLenIwEEiPKT_ CODE
 0001:00025d10 0000005bH .text$_ZN6System11WideCharLenIDsEEiPKT_ CODE
 0001:00025d70 00000059H .text$_ZN6System11AnsiStringTILt0EEC2EPKci CODE
 0001:00025dd0 000000e9H .text$_ZN6System11AnsiStringTILt0EED2Ev CODE
 0001:00025ec0 00000030H .text$_ZN6System11AnsiStringTILt0EEC2Ev CODE
 0001:00025ef0 0000002aH .text$_ZN6System13UnicodeStringC2ILt0EEERKNS_11AnsiStringTIXT_EEE CODE
 0001:00025f20 000000d2H .text$_ZN6System8Sysutils9EIntErrorC3ENS_13UnicodeStringE CODE
 0001:00026000 000000d2H .text$_ZN6System8Sysutils9EExternalC3ENS_13UnicodeStringE CODE
 0001:000260e0 0000004cH .text$_ZN6System8Sysutils9EIntErrorD0Ev CODE
 0001:00026130 0000004cH .text$_ZN6System8Sysutils9EExternalD0Ev CODE
 0001:00026180 00000023H .text$_ZN6System11AnsiStringTILt0EEC2ERKS1_ CODE
 0001:000261b0 00000012H .text$_ZN6System14AnsiStringBaseC2Ev CODE
 0001:000261d0 00001a48H .text                   CODE
 0001:00027c20 0000000bH .text$_ZN6System15DelphiInterfaceINS_10IInterfaceEEadEv CODE
 0001:00027c30 0000004dH .text$_ZN6System15DelphiInterfaceINS_10IInterfaceEED2Ev CODE
 0001:00027c80 00000029H .text$_ZNSt3__110lock_guardINS_5mutexEEC2B6v15007ERS1_ CODE
 0001:00027cb0 00000035H .text$_ZNSt3__113unordered_mapIPN6System7Typinfo9TTypeInfoEPSt9type_infoNS_4hashIS4_EENS_8equal_toIS4_EENS_9allocatorINS_4pairIKS4_S6_EEEEEC2B6v15007Ev CODE
 0001:00027cf0 00000019H .text$_ZNSt3__113unordered_mapIPN6System7Typinfo9TTypeInfoEPSt9type_infoNS_4hashIS4_EENS_8equal_toIS4_EENS_9allocatorINS_4pairIKS4_S6_EEEEED2B6v15007Ev CODE
 0001:00027d10 00000084H .text$_ZNSt3__113unordered_mapIPN6System7Typinfo9TTypeInfoEPSt9type_infoNS_4hashIS4_EENS_8equal_toIS4_EENS_9allocatorINS_4pairIKS4_S6_EEEEEixERSD_ CODE
 0001:00027da0 0000004aH .text$_ZN6System11AnsiStringTILt65001EEC2ERKNS_13UnicodeStringE CODE
 0001:00027df0 00000098H .text$_ZNK6System11AnsiStringTILt65001EEplERKS1_ CODE
 0001:00027e90 0000004aH .text$_ZN6System11AnsiStringTILt65001EEC2EPKc CODE
 0001:00027ee0 00000030H .text$_ZN6System11AnsiStringTILt65001EEC2Ev CODE
 0001:00027f10 0000002cH .text$_ZN6System11AnsiStringTILt65001EEaSERKS1_ CODE
 0001:00027f40 00000019H .text$_ZN6System11AnsiStringTILt65001EED2Ev CODE
 0001:00027f60 00000030H .text$_ZN10__cxxabiv117__class_type_infoC2Ev CODE
 0001:00027f90 00000043H .text$_ZNK6System11AnsiStringTILt65001EE5c_strEv CODE
 0001:00027fe0 0000001cH .text$_ZNSt3__110lock_guardINS_5mutexEED2B6v15007Ev CODE
 0001:00028000 00000030H .text$_ZN10__cxxabiv116__shim_type_infoC2Ev CODE
 0001:00028030 00000083H .text$_ZNSt3__112__hash_tableINS_17__hash_value_typeIPN6System7Typinfo9TTypeInfoEPSt9type_infoEENS_22__unordered_map_hasherIS5_S8_NS_4hashIS5_EENS_8equal_toIS5_EELb1EEENS_21__unordered_map_equalIS5_S8_SD_SB_Lb1EEENS_9allocatorIS8_EEEC2Ev CODE
 0001:000280c0 00000007H .text$_ZNSt3__119__debug_db_insert_cB6v15007INS_13unordered_mapIPN6System7Typinfo9TTypeInfoEPSt9type_infoNS_4hashIS5_EENS_8equal_toIS5_EENS_9allocatorINS_4pairIKS5_S7_EEEEEEEEvPT_ CODE
 0001:000280d0 00000030H .text$_ZNSt3__110unique_ptrIA_PNS_16__hash_node_baseIPNS_11__hash_nodeINS_17__hash_value_typeIPN6System7Typinfo9TTypeInfoEPSt9type_infoEEPvEEEENS_25__bucket_list_deallocatorINS_9allocatorISF_EEEEEC2B6v15007ILb1EvEEv CODE
 0001:00028100 00000030H .text$_ZNSt3__117__compressed_pairINS_16__hash_node_baseIPNS_11__hash_nodeINS_17__hash_value_typeIPN6System7Typinfo9TTypeInfoEPSt9type_infoEEPvEEEENS_9allocatorISC_EEEC2B6v15007ILb1EvEEv CODE
 0001:00028130 0000003bH .text$_ZNSt3__117__compressed_pairIyNS_22__unordered_map_hasherIPN6System7Typinfo9TTypeInfoENS_17__hash_value_typeIS5_PSt9type_infoEENS_4hashIS5_EENS_8equal_toIS5_EELb1EEEEC2B6v15007IiNS_18__default_init_tagEEEOT_OT0_ CODE
 0001:00028170 0000003bH .text$_ZNSt3__117__compressed_pairIfNS_21__unordered_map_equalIPN6System7Typinfo9TTypeInfoENS_17__hash_value_typeIS5_PSt9type_infoEENS_8equal_toIS5_EENS_4hashIS5_EELb1EEEEC2B6v15007IfNS_18__default_init_tagEEEOT_OT0_ CODE
 0001:000281b0 0000003eH .text$_ZNSt3__117__compressed_pairIPPNS_16__hash_node_baseIPNS_11__hash_nodeINS_17__hash_value_typeIPN6System7Typinfo9TTypeInfoEPSt9type_infoEEPvEEEENS_25__bucket_list_deallocatorINS_9allocatorISF_EEEEEC2B6v15007INS_16__value_init_tagESN_EEOT_OT0_ CODE
 0001:000281f0 0000001cH .text$_ZNSt3__122__compressed_pair_elemIPPNS_16__hash_node_baseIPNS_11__hash_nodeINS_17__hash_value_typeIPN6System7Typinfo9TTypeInfoEPSt9type_infoEEPvEEEELi0ELb0EEC2B6v15007ENS_16__value_init_tagE CODE
 0001:00028210 0000001dH .text$_ZNSt3__122__compressed_pair_elemINS_25__bucket_list_deallocatorINS_9allocatorIPNS_16__hash_node_baseIPNS_11__hash_nodeINS_17__hash_value_typeIPN6System7Typinfo9TTypeInfoEPSt9type_infoEEPvEEEEEEEELi1ELb0EEC2B6v15007ENS_16__value_init_tagE CODE
 0001:00028230 00000038H .text$_ZNSt3__125__bucket_list_deallocatorINS_9allocatorIPNS_16__hash_node_baseIPNS_11__hash_nodeINS_17__hash_value_typeIPN6System7Typinfo9TTypeInfoEPSt9type_infoEEPvEEEEEEEC2B6v15007Ev CODE
 0001:00028270 0000003bH .text$_ZNSt3__117__compressed_pairIyNS_9allocatorIPNS_16__hash_node_baseIPNS_11__hash_nodeINS_17__hash_value_typeIPN6System7Typinfo9TTypeInfoEPSt9type_infoEEPvEEEEEEEC2B6v15007IiNS_18__default_init_tagEEEOT_OT0_ CODE
 0001:000282b0 0000001dH .text$_ZNSt3__122__compressed_pair_elemINS_9allocatorIPNS_16__hash_node_baseIPNS_11__hash_nodeINS_17__hash_value_typeIPN6System7Typinfo9TTypeInfoEPSt9type_infoEEPvEEEEEELi1ELb1EEC2B6v15007ENS_18__default_init_tagE CODE
 0001:000282d0 00000019H .text$_ZNSt3__19allocatorIPNS_16__hash_node_baseIPNS_11__hash_nodeINS_17__hash_value_typeIPN6System7Typinfo9TTypeInfoEPSt9type_infoEEPvEEEEEC2B6v15007Ev CODE
 0001:000282f0 00000007H .text$_ZNSt3__116__non_trivial_ifILb1ENS_9allocatorIPNS_16__hash_node_baseIPNS_11__hash_nodeINS_17__hash_value_typeIPN6System7Typinfo9TTypeInfoEPSt9type_infoEEPvEEEEEEEC2B6v15007Ev CODE
 0001:00028300 0000001dH .text$_ZNSt3__122__compressed_pair_elemINS_16__hash_node_baseIPNS_11__hash_nodeINS_17__hash_value_typeIPN6System7Typinfo9TTypeInfoEPSt9type_infoEEPvEEEELi0ELb0EEC2B6v15007ENS_16__value_init_tagE CODE
 0001:00028320 0000001dH .text$_ZNSt3__122__compressed_pair_elemINS_9allocatorINS_11__hash_nodeINS_17__hash_value_typeIPN6System7Typinfo9TTypeInfoEPSt9type_infoEEPvEEEELi1ELb1EEC2B6v15007ENS_16__value_init_tagE CODE
 0001:00028340 00000012H .text$_ZNSt3__116__hash_node_baseIPNS_11__hash_nodeINS_17__hash_value_typeIPN6System7Typinfo9TTypeInfoEPSt9type_infoEEPvEEEC2B6v15007Ev CODE
 0001:00028360 00000019H .text$_ZNSt3__19allocatorINS_11__hash_nodeINS_17__hash_value_typeIPN6System7Typinfo9TTypeInfoEPSt9type_infoEEPvEEEC2B6v15007Ev CODE
 0001:00028380 00000007H .text$_ZNSt3__116__non_trivial_ifILb1ENS_9allocatorINS_11__hash_nodeINS_17__hash_value_typeIPN6System7Typinfo9TTypeInfoEPSt9type_infoEEPvEEEEEC2B6v15007Ev CODE
 0001:00028390 0000001dH .text$_ZNSt3__122__compressed_pair_elemINS_22__unordered_map_hasherIPN6System7Typinfo9TTypeInfoENS_17__hash_value_typeIS5_PSt9type_infoEENS_4hashIS5_EENS_8equal_toIS5_EELb1EEELi1ELb1EEC2B6v15007ENS_18__default_init_tagE CODE
 0001:000283b0 00000007H .text$_ZNSt3__122__unordered_map_hasherIPN6System7Typinfo9TTypeInfoENS_17__hash_value_typeIS4_PSt9type_infoEENS_4hashIS4_EENS_8equal_toIS4_EELb1EEC2B6v15007Ev CODE
 0001:000283c0 0000001dH .text$_ZNSt3__122__compressed_pair_elemINS_21__unordered_map_equalIPN6System7Typinfo9TTypeInfoENS_17__hash_value_typeIS5_PSt9type_infoEENS_8equal_toIS5_EENS_4hashIS5_EELb1EEELi1ELb1EEC2B6v15007ENS_18__default_init_tagE CODE
 0001:000283e0 00000007H .text$_ZNSt3__121__unordered_map_equalIPN6System7Typinfo9TTypeInfoENS_17__hash_value_typeIS4_PSt9type_infoEENS_8equal_toIS4_EENS_4hashIS4_EELb1EEC2B6v15007Ev CODE
 0001:000283f0 00000051H .text$_ZNSt3__112__hash_tableINS_17__hash_value_typeIPN6System7Typinfo9TTypeInfoEPSt9type_infoEENS_22__unordered_map_hasherIS5_S8_NS_4hashIS5_EENS_8equal_toIS5_EELb1EEENS_21__unordered_map_equalIS5_S8_SD_SB_Lb1EEENS_9allocatorIS8_EEED2Ev CODE
 0001:00028450 000000adH .text$_ZNSt3__112__hash_tableINS_17__hash_value_typeIPN6System7Typinfo9TTypeInfoEPSt9type_infoEENS_22__unordered_map_hasherIS5_S8_NS_4hashIS5_EENS_8equal_toIS5_EELb1EEENS_21__unordered_map_equalIS5_S8_SD_SB_Lb1EEENS_9allocatorIS8_EEE17__deallocate_nodeEPNS_16__hash_node_baseIPNS_11__hash_nodeIS8_PvEEEE CODE
 0001:00028500 00000019H .text$_ZNSt3__117__compressed_pairINS_16__hash_node_baseIPNS_11__hash_nodeINS_17__hash_value_typeIPN6System7Typinfo9TTypeInfoEPSt9type_infoEEPvEEEENS_9allocatorISC_EEE5firstB6v15007Ev CODE
 0001:00028520 00000007H .text$_ZNSt3__118__debug_db_erase_cB6v15007INS_12__hash_tableINS_17__hash_value_typeIPN6System7Typinfo9TTypeInfoEPSt9type_infoEENS_22__unordered_map_hasherIS6_S9_NS_4hashIS6_EENS_8equal_toIS6_EELb1EEENS_21__unordered_map_equalIS6_S9_SE_SC_Lb1EEENS_9allocatorIS9_EEEEEEvPT_ CODE
 0001:00028530 0000001dH .text$_ZNSt3__110unique_ptrIA_PNS_16__hash_node_baseIPNS_11__hash_nodeINS_17__hash_value_typeIPN6System7Typinfo9TTypeInfoEPSt9type_infoEEPvEEEENS_25__bucket_list_deallocatorINS_9allocatorISF_EEEEED2B6v15007Ev CODE
 0001:00028550 0000001dH .text$_ZNSt3__112__hash_tableINS_17__hash_value_typeIPN6System7Typinfo9TTypeInfoEPSt9type_infoEENS_22__unordered_map_hasherIS5_S8_NS_4hashIS5_EENS_8equal_toIS5_EELb1EEENS_21__unordered_map_equalIS5_S8_SD_SB_Lb1EEENS_9allocatorIS8_EEE12__node_allocB6v15007Ev CODE
 0001:00028570 00000019H .text$_ZNSt3__116__hash_node_baseIPNS_11__hash_nodeINS_17__hash_value_typeIPN6System7Typinfo9TTypeInfoEPSt9type_infoEEPvEEE8__upcastB6v15007Ev CODE
 0001:00028590 00000012H .text$_ZNSt3__116allocator_traitsINS_9allocatorINS_11__hash_nodeINS_17__hash_value_typeIPN6System7Typinfo9TTypeInfoEPSt9type_infoEEPvEEEEE7destroyB6v15007INS_4pairIKS7_S9_EEvvEEvRSD_PT_ CODE
 0001:000285b0 00000019H .text$_ZNSt3__122__hash_key_value_typesINS_17__hash_value_typeIPN6System7Typinfo9TTypeInfoEPSt9type_infoEEE9__get_ptrB6v15007ERS8_ CODE
 0001:000285d0 0000002dH .text$_ZNSt3__116allocator_traitsINS_9allocatorINS_11__hash_nodeINS_17__hash_value_typeIPN6System7Typinfo9TTypeInfoEPSt9type_infoEEPvEEEEE10deallocateB6v15007ERSD_PSC_y CODE
 0001:00028600 00000019H .text$_ZNSt3__117__compressed_pairINS_16__hash_node_baseIPNS_11__hash_nodeINS_17__hash_value_typeIPN6System7Typinfo9TTypeInfoEPSt9type_infoEEPvEEEENS_9allocatorISC_EEE6secondB6v15007Ev CODE
 0001:00028620 0000000bH .text$_ZNSt3__122__compressed_pair_elemINS_9allocatorINS_11__hash_nodeINS_17__hash_value_typeIPN6System7Typinfo9TTypeInfoEPSt9type_infoEEPvEEEELi1ELb1EE5__getB6v15007Ev CODE
 0001:00028630 0000000bH .text$_ZNSt3__114pointer_traitsIPNS_16__hash_node_baseIPNS_11__hash_nodeINS_17__hash_value_typeIPN6System7Typinfo9TTypeInfoEPSt9type_infoEEPvEEEEE10pointer_toB6v15007ERSE_ CODE
 0001:00028640 00000019H .text$_ZNSt3__117__hash_value_typeIPN6System7Typinfo9TTypeInfoEPSt9type_infoE11__get_valueB6v15007Ev CODE
 0001:00028660 00000019H .text$_ZNSt3__17launderB6v15007INS_4pairIKPN6System7Typinfo9TTypeInfoEPSt9type_infoEEEEPT_SB_ CODE
 0001:00028680 0000000bH .text$_ZNSt3__19__launderB6v15007INS_4pairIKPN6System7Typinfo9TTypeInfoEPSt9type_infoEEEEPT_SB_ CODE
 0001:00028690 0000003fH .text$_ZNSt3__19allocatorINS_11__hash_nodeINS_17__hash_value_typeIPN6System7Typinfo9TTypeInfoEPSt9type_infoEEPvEEE10deallocateB6v15007EPSB_y CODE
 0001:000286d0 0000000bH .text$_ZNSt3__122__compressed_pair_elemINS_16__hash_node_baseIPNS_11__hash_nodeINS_17__hash_value_typeIPN6System7Typinfo9TTypeInfoEPSt9type_infoEEPvEEEELi0ELb0EE5__getB6v15007Ev CODE
 0001:000286e0 0000005fH .text$_ZNSt3__110unique_ptrIA_PNS_16__hash_node_baseIPNS_11__hash_nodeINS_17__hash_value_typeIPN6System7Typinfo9TTypeInfoEPSt9type_infoEEPvEEEENS_25__bucket_list_deallocatorINS_9allocatorISF_EEEEE5resetB6v15007EDn CODE
 0001:00028740 00000019H .text$_ZNSt3__117__compressed_pairIPPNS_16__hash_node_baseIPNS_11__hash_nodeINS_17__hash_value_typeIPN6System7Typinfo9TTypeInfoEPSt9type_infoEEPvEEEENS_25__bucket_list_deallocatorINS_9allocatorISF_EEEEE5firstB6v15007Ev CODE
 0001:00028760 0000001dH .text$_ZNSt3__117__compressed_pairIPPNS_16__hash_node_baseIPNS_11__hash_nodeINS_17__hash_value_typeIPN6System7Typinfo9TTypeInfoEPSt9type_infoEEPvEEEENS_25__bucket_list_deallocatorINS_9allocatorISF_EEEEE6secondB6v15007Ev CODE
 0001:00028780 0000004eH .text$_ZNSt3__125__bucket_list_deallocatorINS_9allocatorIPNS_16__hash_node_baseIPNS_11__hash_nodeINS_17__hash_value_typeIPN6System7Typinfo9TTypeInfoEPSt9type_infoEEPvEEEEEEEclB6v15007EPSG_ CODE
 0001:000287d0 0000000bH .text$_ZNSt3__122__compressed_pair_elemIPPNS_16__hash_node_baseIPNS_11__hash_nodeINS_17__hash_value_typeIPN6System7Typinfo9TTypeInfoEPSt9type_infoEEPvEEEELi0ELb0EE5__getB6v15007Ev CODE
 0001:000287e0 0000000bH .text$_ZNSt3__122__compressed_pair_elemINS_25__bucket_list_deallocatorINS_9allocatorIPNS_16__hash_node_baseIPNS_11__hash_nodeINS_17__hash_value_typeIPN6System7Typinfo9TTypeInfoEPSt9type_infoEEPvEEEEEEEELi1ELb0EE5__getB6v15007Ev CODE
 0001:000287f0 0000002dH .text$_ZNSt3__116allocator_traitsINS_9allocatorIPNS_16__hash_node_baseIPNS_11__hash_nodeINS_17__hash_value_typeIPN6System7Typinfo9TTypeInfoEPSt9type_infoEEPvEEEEEEE10deallocateB6v15007ERSH_PSG_y CODE
 0001:00028820 00000019H .text$_ZNSt3__125__bucket_list_deallocatorINS_9allocatorIPNS_16__hash_node_baseIPNS_11__hash_nodeINS_17__hash_value_typeIPN6System7Typinfo9TTypeInfoEPSt9type_infoEEPvEEEEEEE7__allocB6v15007Ev CODE
 0001:00028840 00000019H .text$_ZNSt3__125__bucket_list_deallocatorINS_9allocatorIPNS_16__hash_node_baseIPNS_11__hash_nodeINS_17__hash_value_typeIPN6System7Typinfo9TTypeInfoEPSt9type_infoEEPvEEEEEEE4sizeB6v15007Ev CODE
 0001:00028860 0000003fH .text$_ZNSt3__19allocatorIPNS_16__hash_node_baseIPNS_11__hash_nodeINS_17__hash_value_typeIPN6System7Typinfo9TTypeInfoEPSt9type_infoEEPvEEEEE10deallocateB6v15007EPSF_y CODE
 0001:000288a0 00000019H .text$_ZNSt3__117__compressed_pairIyNS_9allocatorIPNS_16__hash_node_baseIPNS_11__hash_nodeINS_17__hash_value_typeIPN6System7Typinfo9TTypeInfoEPSt9type_infoEEPvEEEEEEE6secondB6v15007Ev CODE
 0001:000288c0 0000000bH .text$_ZNSt3__122__compressed_pair_elemINS_9allocatorIPNS_16__hash_node_baseIPNS_11__hash_nodeINS_17__hash_value_typeIPN6System7Typinfo9TTypeInfoEPSt9type_infoEEPvEEEEEELi1ELb1EE5__getB6v15007Ev CODE
 0001:000288d0 00000019H .text$_ZNSt3__117__compressed_pairIyNS_9allocatorIPNS_16__hash_node_baseIPNS_11__hash_nodeINS_17__hash_value_typeIPN6System7Typinfo9TTypeInfoEPSt9type_infoEEPvEEEEEEE5firstB6v15007Ev CODE
 0001:000288f0 0000076cH .text$_ZNSt3__112__hash_tableINS_17__hash_value_typeIPN6System7Typinfo9TTypeInfoEPSt9type_infoEENS_22__unordered_map_hasherIS5_S8_NS_4hashIS5_EENS_8equal_toIS5_EELb1EEENS_21__unordered_map_equalIS5_S8_SD_SB_Lb1EEENS_9allocatorIS8_EEE25__emplace_unique_key_argsIS5_JRKNS_21piecewise_construct_tENS_5tupleIJRKS5_EEENSO_IJEEEEEENS_4pairINS_15__hash_iteratorIPNS_11__hash_nodeIS8_PvEEEEbEERKT_DpOT0_ CODE
 0001:00029060 00000022H .text$_ZNSt3__116forward_as_tupleB6v15007IJRKPN6System7Typinfo9TTypeInfoEEEENS_5tupleIJDpOT_EEESA_ CODE
 0001:00029090 00000006H .text$_ZNSt3__116forward_as_tupleB6v15007IJEEENS_5tupleIJDpOT_EEES4_ CODE
 0001:000290a0 00000028H .text$_ZNKSt3__115__hash_iteratorIPNS_11__hash_nodeINS_17__hash_value_typeIPN6System7Typinfo9TTypeInfoEPSt9type_infoEEPvEEEptB6v15007Ev CODE
 0001:000290d0 0000001dH .text$_ZNSt3__112__hash_tableINS_17__hash_value_typeIPN6System7Typinfo9TTypeInfoEPSt9type_infoEENS_22__unordered_map_hasherIS5_S8_NS_4hashIS5_EENS_8equal_toIS5_EELb1EEENS_21__unordered_map_equalIS5_S8_SD_SB_Lb1EEENS_9allocatorIS8_EEE13hash_functionB6v15007Ev CODE
 0001:000290f0 00000026H .text$_ZNKSt3__122__unordered_map_hasherIPN6System7Typinfo9TTypeInfoENS_17__hash_value_typeIS4_PSt9type_infoEENS_4hashIS4_EENS_8equal_toIS4_EELb1EEclB6v15007ERKS4_ CODE
 0001:00029120 00000021H .text$_ZNKSt3__112__hash_tableINS_17__hash_value_typeIPN6System7Typinfo9TTypeInfoEPSt9type_infoEENS_22__unordered_map_hasherIS5_S8_NS_4hashIS5_EENS_8equal_toIS5_EELb1EEENS_21__unordered_map_equalIS5_S8_SD_SB_Lb1EEENS_9allocatorIS8_EEE12bucket_countB6v15007Ev CODE
 0001:00029150 0000002cH .text$_ZNKSt3__110unique_ptrIA_PNS_16__hash_node_baseIPNS_11__hash_nodeINS_17__hash_value_typeIPN6System7Typinfo9TTypeInfoEPSt9type_infoEEPvEEEENS_25__bucket_list_deallocatorINS_9allocatorISF_EEEEEixB6v15007Ey CODE
 0001:00029180 0000000fH .text$_ZNKSt3__116__hash_node_baseIPNS_11__hash_nodeINS_17__hash_value_typeIPN6System7Typinfo9TTypeInfoEPSt9type_infoEEPvEEE6__hashB6v15007Ev CODE
 0001:00029190 0000001dH .text$_ZNSt3__112__hash_tableINS_17__hash_value_typeIPN6System7Typinfo9TTypeInfoEPSt9type_infoEENS_22__unordered_map_hasherIS5_S8_NS_4hashIS5_EENS_8equal_toIS5_EELb1EEENS_21__unordered_map_equalIS5_S8_SD_SB_Lb1EEENS_9allocatorIS8_EEE6key_eqB6v15007Ev CODE
 0001:000291b0 00000043H .text$_ZNKSt3__121__unordered_map_equalIPN6System7Typinfo9TTypeInfoENS_17__hash_value_typeIS4_PSt9type_infoEENS_8equal_toIS4_EENS_4hashIS4_EELb1EEclB6v15007ERKS8_RKS4_ CODE
 0001:00029200 000001a9H .text$_ZNSt3__112__hash_tableINS_17__hash_value_typeIPN6System7Typinfo9TTypeInfoEPSt9type_infoEENS_22__unordered_map_hasherIS5_S8_NS_4hashIS5_EENS_8equal_toIS5_EELb1EEENS_21__unordered_map_equalIS5_S8_SD_SB_Lb1EEENS_9allocatorIS8_EEE21__construct_node_hashIRKNS_21piecewise_construct_tEJNS_5tupleIJRKS5_EEENSO_IJEEEEEENS_10unique_ptrINS_11__hash_nodeIS8_PvEENS_22__hash_node_destructorINSH_ISW_EEEEEEyOT_DpOT0_ CODE
 0001:000293b0 0000001dH .text$_ZNSt3__112__hash_tableINS_17__hash_value_typeIPN6System7Typinfo9TTypeInfoEPSt9type_infoEENS_22__unordered_map_hasherIS5_S8_NS_4hashIS5_EENS_8equal_toIS5_EELb1EEENS_21__unordered_map_equalIS5_S8_SD_SB_Lb1EEENS_9allocatorIS8_EEE4sizeB6v15007Ev CODE
 0001:000293d0 0000001dH .text$_ZNSt3__112__hash_tableINS_17__hash_value_typeIPN6System7Typinfo9TTypeInfoEPSt9type_infoEENS_22__unordered_map_hasherIS5_S8_NS_4hashIS5_EENS_8equal_toIS5_EELb1EEENS_21__unordered_map_equalIS5_S8_SD_SB_Lb1EEENS_9allocatorIS8_EEE15max_load_factorB6v15007Ev CODE
 0001:000293f0 00000023H .text$_ZNSt3__112__hash_tableINS_17__hash_value_typeIPN6System7Typinfo9TTypeInfoEPSt9type_infoEENS_22__unordered_map_hasherIS5_S8_NS_4hashIS5_EENS_8equal_toIS5_EELb1EEENS_21__unordered_map_equalIS5_S8_SD_SB_Lb1EEENS_9allocatorIS8_EEE15__rehash_uniqueB6v15007Ey CODE
 0001:00029420 00000019H .text$_ZNSt3__116__hash_node_baseIPNS_11__hash_nodeINS_17__hash_value_typeIPN6System7Typinfo9TTypeInfoEPSt9type_infoEEPvEEE5__ptrB6v15007Ev CODE
 0001:00029440 0000001bH .text$_ZNKSt3__110unique_ptrINS_11__hash_nodeINS_17__hash_value_typeIPN6System7Typinfo9TTypeInfoEPSt9type_infoEEPvEENS_22__hash_node_destructorINS_9allocatorISB_EEEEEptB6v15007Ev CODE
 0001:00029460 0000001bH .text$_ZNKSt3__110unique_ptrINS_11__hash_nodeINS_17__hash_value_typeIPN6System7Typinfo9TTypeInfoEPSt9type_infoEEPvEENS_22__hash_node_destructorINS_9allocatorISB_EEEEE3getB6v15007Ev CODE
 0001:00029480 0000003bH .text$_ZNSt3__110unique_ptrINS_11__hash_nodeINS_17__hash_value_typeIPN6System7Typinfo9TTypeInfoEPSt9type_infoEEPvEENS_22__hash_node_destructorINS_9allocatorISB_EEEEE7releaseB6v15007Ev CODE
 0001:000294c0 0000001dH .text$_ZNSt3__110unique_ptrINS_11__hash_nodeINS_17__hash_value_typeIPN6System7Typinfo9TTypeInfoEPSt9type_infoEEPvEENS_22__hash_node_destructorINS_9allocatorISB_EEEEED2B6v15007Ev CODE
 0001:000294e0 00000024H .text$_ZNSt3__115__hash_iteratorIPNS_11__hash_nodeINS_17__hash_value_typeIPN6System7Typinfo9TTypeInfoEPSt9type_infoEEPvEEEC2B6v15007EPNS_16__hash_node_baseISC_EEPKv CODE
 0001:00029510 00000033H .text$_ZNSt3__14pairINS_15__hash_iteratorIPNS_11__hash_nodeINS_17__hash_value_typeIPN6System7Typinfo9TTypeInfoEPSt9type_infoEEPvEEEEbEC2B6v15007ISE_RbLSB_0EEEOT_OT0_ CODE
 0001:00029550 00000019H .text$_ZNSt3__117__compressed_pairIyNS_22__unordered_map_hasherIPN6System7Typinfo9TTypeInfoENS_17__hash_value_typeIS5_PSt9type_infoEENS_4hashIS5_EENS_8equal_toIS5_EELb1EEEE6secondB6v15007Ev CODE
 0001:00029570 0000000bH .text$_ZNSt3__122__compressed_pair_elemINS_22__unordered_map_hasherIPN6System7Typinfo9TTypeInfoENS_17__hash_value_typeIS5_PSt9type_infoEENS_4hashIS5_EENS_8equal_toIS5_EELb1EEELi1ELb1EE5__getB6v15007Ev CODE
 0001:00029580 0000004aH .text$_ZNKSt3__14hashIPN6System7Typinfo9TTypeInfoEEclB6v15007ES4_ CODE
 0001:000295d0 00000501H .text$_ZNSt3__121__murmur2_or_cityhashIyLy64EEclEPKvy CODE
 0001:00029ae0 0000019dH .text$_ZNSt3__121__murmur2_or_cityhashIyLy64EE18__hash_len_0_to_16EPKcy CODE
 0001:00029c80 0000010cH .text$_ZNSt3__121__murmur2_or_cityhashIyLy64EE19__hash_len_17_to_32EPKcy CODE
 0001:00029d90 00000339H .text$_ZNSt3__121__murmur2_or_cityhashIyLy64EE19__hash_len_33_to_64EPKcy CODE
 0001:0002a0d0 0000001eH .text$_ZNSt3__110__loadwordB6v15007IyEET_PKv CODE
 0001:0002a0f0 00000095H .text$_ZNSt3__121__murmur2_or_cityhashIyLy64EE13__hash_len_16Eyy CODE
 0001:0002a190 000000b0H .text$_ZNSt3__121__murmur2_or_cityhashIyLy64EE29__weak_hash_len_32_with_seedsEPKcyy CODE
 0001:0002a240 00000058H .text$_ZNSt3__121__murmur2_or_cityhashIyLy64EE8__rotateEyi CODE
 0001:0002a2a0 0000002dH .text$_ZNSt3__14pairIyyEaSB6v15007EOS1_ CODE
 0001:0002a2d0 0000003bH .text$_ZNSt3__14swapB6v15007IyEENS_9enable_ifIXaasr21is_move_constructibleIT_EE5valuesr18is_move_assignableIS2_EE5valueEvE4typeERS2_S5_ CODE
 0001:0002a310 00000016H .text$_ZNSt3__121__murmur2_or_cityhashIyLy64EE11__shift_mixEy CODE
 0001:0002a330 00000037H .text$_ZNSt3__121__murmur2_or_cityhashIyLy64EE22__rotate_by_at_least_1Eyi CODE
 0001:0002a370 0000001dH .text$_ZNSt3__110__loadwordB6v15007IjEET_PKv CODE
 0001:0002a390 0000011aH .text$_ZNSt3__121__murmur2_or_cityhashIyLy64EE29__weak_hash_len_32_with_seedsEyyyyyy CODE
 0001:0002a4b0 00000032H .text$_ZNSt3__14pairIyyEC2B6v15007IyyLPv0EEEOT_OT0_ CODE
 0001:0002a4f0 00000019H .text$_ZNKSt3__110unique_ptrIA_PNS_16__hash_node_baseIPNS_11__hash_nodeINS_17__hash_value_typeIPN6System7Typinfo9TTypeInfoEPSt9type_infoEEPvEEEENS_25__bucket_list_deallocatorINS_9allocatorISF_EEEEE11get_deleterB6v15007Ev CODE
 0001:0002a510 0000001bH .text$_ZNKSt3__125__bucket_list_deallocatorINS_9allocatorIPNS_16__hash_node_baseIPNS_11__hash_nodeINS_17__hash_value_typeIPN6System7Typinfo9TTypeInfoEPSt9type_infoEEPvEEEEEEE4sizeB6v15007Ev CODE
 0001:0002a530 0000001dH .text$_ZNKSt3__117__compressed_pairIPPNS_16__hash_node_baseIPNS_11__hash_nodeINS_17__hash_value_typeIPN6System7Typinfo9TTypeInfoEPSt9type_infoEEPvEEEENS_25__bucket_list_deallocatorINS_9allocatorISF_EEEEE6secondB6v15007Ev CODE
 0001:0002a550 0000000bH .text$_ZNKSt3__122__compressed_pair_elemINS_25__bucket_list_deallocatorINS_9allocatorIPNS_16__hash_node_baseIPNS_11__hash_nodeINS_17__hash_value_typeIPN6System7Typinfo9TTypeInfoEPSt9type_infoEEPvEEEEEEEELi1ELb0EE5__getB6v15007Ev CODE
 0001:0002a560 00000019H .text$_ZNKSt3__117__compressed_pairIyNS_9allocatorIPNS_16__hash_node_baseIPNS_11__hash_nodeINS_17__hash_value_typeIPN6System7Typinfo9TTypeInfoEPSt9type_infoEEPvEEEEEEE5firstB6v15007Ev CODE
 0001:0002a580 00000019H .text$_ZNKSt3__117__compressed_pairIPPNS_16__hash_node_baseIPNS_11__hash_nodeINS_17__hash_value_typeIPN6System7Typinfo9TTypeInfoEPSt9type_infoEEPvEEEENS_25__bucket_list_deallocatorINS_9allocatorISF_EEEEE5firstB6v15007Ev CODE
 0001:0002a5a0 0000000bH .text$_ZNKSt3__122__compressed_pair_elemIPPNS_16__hash_node_baseIPNS_11__hash_nodeINS_17__hash_value_typeIPN6System7Typinfo9TTypeInfoEPSt9type_infoEEPvEEEELi0ELb0EE5__getB6v15007Ev CODE
 0001:0002a5b0 00000019H .text$_ZNSt3__117__compressed_pairIfNS_21__unordered_map_equalIPN6System7Typinfo9TTypeInfoENS_17__hash_value_typeIS5_PSt9type_infoEENS_8equal_toIS5_EENS_4hashIS5_EELb1EEEE6secondB6v15007Ev CODE
 0001:0002a5d0 0000000bH .text$_ZNSt3__122__compressed_pair_elemINS_21__unordered_map_equalIPN6System7Typinfo9TTypeInfoENS_17__hash_value_typeIS5_PSt9type_infoEENS_8equal_toIS5_EENS_4hashIS5_EELb1EEELi1ELb1EE5__getB6v15007Ev CODE
 0001:0002a5e0 0000002eH .text$_ZNKSt3__18equal_toIPN6System7Typinfo9TTypeInfoEEclB6v15007ERKS4_S7_ CODE
 0001:0002a610 00000019H .text$_ZNKSt3__117__hash_value_typeIPN6System7Typinfo9TTypeInfoEPSt9type_infoE11__get_valueB6v15007Ev CODE
 0001:0002a630 00000019H .text$_ZNSt3__17launderB6v15007IKNS_4pairIKPN6System7Typinfo9TTypeInfoEPSt9type_infoEEEEPT_SC_ CODE
 0001:0002a650 0000000bH .text$_ZNSt3__19__launderB6v15007IKNS_4pairIKPN6System7Typinfo9TTypeInfoEPSt9type_infoEEEEPT_SC_ CODE
 0001:0002a660 00000023H .text$_ZNSt3__116allocator_traitsINS_9allocatorINS_11__hash_nodeINS_17__hash_value_typeIPN6System7Typinfo9TTypeInfoEPSt9type_infoEEPvEEEEE8allocateB6v15007ERSD_y CODE
 0001:0002a690 00000033H .text$_ZNSt3__122__hash_node_destructorINS_9allocatorINS_11__hash_nodeINS_17__hash_value_typeIPN6System7Typinfo9TTypeInfoEPSt9type_infoEEPvEEEEEC2B6v15007ERSD_b CODE
 0001:0002a6d0 0000003aH .text$_ZNSt3__110unique_ptrINS_11__hash_nodeINS_17__hash_value_typeIPN6System7Typinfo9TTypeInfoEPSt9type_infoEEPvEENS_22__hash_node_destructorINS_9allocatorISB_EEEEEC2B6v15007ILb1EvEEPSB_NS_16__dependent_typeINS_27__unique_ptr_deleter_sfinaeISF_EEXT_EE20__good_rval_ref_typeE CODE
 0001:0002a710 00000046H .text$_ZNSt3__116allocator_traitsINS_9allocatorINS_11__hash_nodeINS_17__hash_value_typeIPN6System7Typinfo9TTypeInfoEPSt9type_infoEEPvEEEEE9constructB6v15007INS_4pairIKS7_S9_EEJRKNS_21piecewise_construct_tENS_5tupleIJRSH_EEENSM_IJEEEEvEEvRSD_PT_DpOT0_ CODE
 0001:0002a760 00000019H .text$_ZNSt3__110unique_ptrINS_11__hash_nodeINS_17__hash_value_typeIPN6System7Typinfo9TTypeInfoEPSt9type_infoEEPvEENS_22__hash_node_destructorINS_9allocatorISB_EEEEE11get_deleterB6v15007Ev CODE
 0001:0002a780 00000051H .text$_ZNSt3__19allocatorINS_11__hash_nodeINS_17__hash_value_typeIPN6System7Typinfo9TTypeInfoEPSt9type_infoEEPvEEE8allocateB6v15007Ey CODE
 0001:0002a7e0 00000019H .text$_ZNSt3__116allocator_traitsINS_9allocatorINS_11__hash_nodeINS_17__hash_value_typeIPN6System7Typinfo9TTypeInfoEPSt9type_infoEEPvEEEEE8max_sizeB6v15007ISD_vEEyRKSD_ CODE
 0001:0002a800 00000011H .text$_ZNKSt3__19allocatorINS_11__hash_nodeINS_17__hash_value_typeIPN6System7Typinfo9TTypeInfoEPSt9type_infoEEPvEEE8max_sizeB6v15007Ev CODE
 0001:0002a820 00000040H .text$_ZNSt3__117__compressed_pairIPNS_11__hash_nodeINS_17__hash_value_typeIPN6System7Typinfo9TTypeInfoEPSt9type_infoEEPvEENS_22__hash_node_destructorINS_9allocatorISB_EEEEEC2B6v15007IRSC_SG_EEOT_OT0_ CODE
 0001:0002a860 00000021H .text$_ZNSt3__122__compressed_pair_elemIPNS_11__hash_nodeINS_17__hash_value_typeIPN6System7Typinfo9TTypeInfoEPSt9type_infoEEPvEELi0ELb0EEC2B6v15007IRSC_vEEOT_ CODE
 0001:0002a890 00000029H .text$_ZNSt3__122__compressed_pair_elemINS_22__hash_node_destructorINS_9allocatorINS_11__hash_nodeINS_17__hash_value_typeIPN6System7Typinfo9TTypeInfoEPSt9type_infoEEPvEEEEEELi1ELb0EEC2B6v15007ISF_vEEOT_ CODE
 0001:0002a8c0 0000004bH .text$_ZNSt3__19allocatorINS_11__hash_nodeINS_17__hash_value_typeIPN6System7Typinfo9TTypeInfoEPSt9type_infoEEPvEEE9constructB6v15007INS_4pairIKS6_S8_EEJRKNS_21piecewise_construct_tENS_5tupleIJRSF_EEENSK_IJEEEEEEvPT_DpOT0_ CODE
 0001:0002a910 00000057H .text$_ZNSt3__14pairIKPN6System7Typinfo9TTypeInfoEPSt9type_infoEC2B6v15007IJRS5_EJEEENS_21piecewise_construct_tENS_5tupleIJDpT_EEENSC_IJDpT0_EEE CODE
 0001:0002a970 00000060H .text$_ZNSt3__14pairIKPN6System7Typinfo9TTypeInfoEPSt9type_infoEC2B6v15007IJRS5_EJEJLy0EEJEEENS_21piecewise_construct_tERNS_5tupleIJDpT_EEERNSC_IJDpT0_EEENS_15__tuple_indicesIJXspT1_EEEENSL_IJXspT2_EEEE CODE
 0001:0002a9d0 00000019H .text$_ZNSt3__13getB6v15007ILy0EJRKPN6System7Typinfo9TTypeInfoEEEERNS_13tuple_elementIXT_ENS_5tupleIJDpT0_EEEE4typeERSB_ CODE
 0001:0002a9f0 0000000eH .text$_ZNSt3__112__tuple_leafILy0ERKPN6System7Typinfo9TTypeInfoELb0EE3getB6v15007Ev CODE
 0001:0002aa00 0000001dH .text$_ZNSt3__117__compressed_pairIPNS_11__hash_nodeINS_17__hash_value_typeIPN6System7Typinfo9TTypeInfoEPSt9type_infoEEPvEENS_22__hash_node_destructorINS_9allocatorISB_EEEEE6secondB6v15007Ev CODE
 0001:0002aa20 0000000bH .text$_ZNSt3__122__compressed_pair_elemINS_22__hash_node_destructorINS_9allocatorINS_11__hash_nodeINS_17__hash_value_typeIPN6System7Typinfo9TTypeInfoEPSt9type_infoEEPvEEEEEELi1ELb0EE5__getB6v15007Ev CODE
 0001:0002aa30 00000019H .text$_ZNSt3__117__compressed_pairIyNS_22__unordered_map_hasherIPN6System7Typinfo9TTypeInfoENS_17__hash_value_typeIS5_PSt9type_infoEENS_4hashIS5_EENS_8equal_toIS5_EELb1EEEE5firstB6v15007Ev CODE
 0001:0002aa50 00000019H .text$_ZNSt3__117__compressed_pairIfNS_21__unordered_map_equalIPN6System7Typinfo9TTypeInfoENS_17__hash_value_typeIS5_PSt9type_infoEENS_8equal_toIS5_EENS_4hashIS5_EELb1EEEE5firstB6v15007Ev CODE
 0001:0002aa70 00000255H .text$_ZNSt3__112__hash_tableINS_17__hash_value_typeIPN6System7Typinfo9TTypeInfoEPSt9type_infoEENS_22__unordered_map_hasherIS5_S8_NS_4hashIS5_EENS_8equal_toIS5_EELb1EEENS_21__unordered_map_equalIS5_S8_SD_SB_Lb1EEENS_9allocatorIS8_EEE8__rehashILb1EEEvy CODE
 0001:0002acd0 000002c2H .text$_ZNSt3__112__hash_tableINS_17__hash_value_typeIPN6System7Typinfo9TTypeInfoEPSt9type_infoEENS_22__unordered_map_hasherIS5_S8_NS_4hashIS5_EENS_8equal_toIS5_EELb1EEENS_21__unordered_map_equalIS5_S8_SD_SB_Lb1EEENS_9allocatorIS8_EEE11__do_rehashILb1EEEvy CODE
 0001:0002afa0 00000007H .text$_ZNSt3__125__debug_db_invalidate_allB6v15007INS_12__hash_tableINS_17__hash_value_typeIPN6System7Typinfo9TTypeInfoEPSt9type_infoEENS_22__unordered_map_hasherIS6_S9_NS_4hashIS6_EENS_8equal_toIS6_EELb1EEENS_21__unordered_map_equalIS6_S9_SE_SC_Lb1EEENS_9allocatorIS9_EEEEEEvPT_ CODE
 0001:0002afb0 00000019H .text$_ZNSt3__110unique_ptrIA_PNS_16__hash_node_baseIPNS_11__hash_nodeINS_17__hash_value_typeIPN6System7Typinfo9TTypeInfoEPSt9type_infoEEPvEEEENS_25__bucket_list_deallocatorINS_9allocatorISF_EEEEE11get_deleterB6v15007Ev CODE
 0001:0002afd0 0000006aH .text$_ZNSt3__110unique_ptrIA_PNS_16__hash_node_baseIPNS_11__hash_nodeINS_17__hash_value_typeIPN6System7Typinfo9TTypeInfoEPSt9type_infoEEPvEEEENS_25__bucket_list_deallocatorINS_9allocatorISF_EEEEE5resetB6v15007IPSF_EENS_9enable_ifIXsr28_CheckArrayPointerConversionIT_EE5valueEvE4typeESP_ CODE
 0001:0002b040 00000023H .text$_ZNSt3__116allocator_traitsINS_9allocatorIPNS_16__hash_node_baseIPNS_11__hash_nodeINS_17__hash_value_typeIPN6System7Typinfo9TTypeInfoEPSt9type_infoEEPvEEEEEEE8allocateB6v15007ERSH_y CODE
 0001:0002b070 00000051H .text$_ZNSt3__19allocatorIPNS_16__hash_node_baseIPNS_11__hash_nodeINS_17__hash_value_typeIPN6System7Typinfo9TTypeInfoEPSt9type_infoEEPvEEEEE8allocateB6v15007Ey CODE
 0001:0002b0d0 00000019H .text$_ZNSt3__116allocator_traitsINS_9allocatorIPNS_16__hash_node_baseIPNS_11__hash_nodeINS_17__hash_value_typeIPN6System7Typinfo9TTypeInfoEPSt9type_infoEEPvEEEEEEE8max_sizeB6v15007ISH_vEEyRKSH_ CODE
 0001:0002b0f0 00000011H .text$_ZNKSt3__19allocatorIPNS_16__hash_node_baseIPNS_11__hash_nodeINS_17__hash_value_typeIPN6System7Typinfo9TTypeInfoEPSt9type_infoEEPvEEEEE8max_sizeB6v15007Ev CODE
 0001:0002b110 00000019H .text$_ZNKSt3__117__compressed_pairIPNS_11__hash_nodeINS_17__hash_value_typeIPN6System7Typinfo9TTypeInfoEPSt9type_infoEEPvEENS_22__hash_node_destructorINS_9allocatorISB_EEEEE5firstB6v15007Ev CODE
 0001:0002b130 0000000bH .text$_ZNKSt3__122__compressed_pair_elemIPNS_11__hash_nodeINS_17__hash_value_typeIPN6System7Typinfo9TTypeInfoEPSt9type_infoEEPvEELi0ELb0EE5__getB6v15007Ev CODE
 0001:0002b140 00000019H .text$_ZNSt3__117__compressed_pairIPNS_11__hash_nodeINS_17__hash_value_typeIPN6System7Typinfo9TTypeInfoEPSt9type_infoEEPvEENS_22__hash_node_destructorINS_9allocatorISB_EEEEE5firstB6v15007Ev CODE
 0001:0002b160 0000000bH .text$_ZNSt3__122__compressed_pair_elemIPNS_11__hash_nodeINS_17__hash_value_typeIPN6System7Typinfo9TTypeInfoEPSt9type_infoEEPvEELi0ELb0EE5__getB6v15007Ev CODE
 0001:0002b170 0000006aH .text$_ZNSt3__110unique_ptrINS_11__hash_nodeINS_17__hash_value_typeIPN6System7Typinfo9TTypeInfoEPSt9type_infoEEPvEENS_22__hash_node_destructorINS_9allocatorISB_EEEEE5resetB6v15007EPSB_ CODE
 0001:0002b1e0 00000089H .text$_ZNSt3__122__hash_node_destructorINS_9allocatorINS_11__hash_nodeINS_17__hash_value_typeIPN6System7Typinfo9TTypeInfoEPSt9type_infoEEPvEEEEEclB6v15007EPSC_ CODE
 0001:0002b270 00000040H .text$_ZNSt3__15tupleIJRKPN6System7Typinfo9TTypeInfoEEEC2B6v15007INS_4_AndELi0EEES6_ CODE
 0001:0002b2b0 00000039H .text$_ZNSt3__112__tuple_implINS_15__tuple_indicesIJLy0EEEEJRKPN6System7Typinfo9TTypeInfoEEEC2B6v15007IJLy0EEJS8_EJEJEJS8_EEENS1_IJXspT_EEEENS_13__tuple_typesIJDpT0_EEENS1_IJXspT1_EEEENSC_IJDpT2_EEEDpOT3_ CODE
 0001:0002b2f0 0000001eH .text$_ZNSt3__112__tuple_leafILy0ERKPN6System7Typinfo9TTypeInfoELb0EEC2B6v15007IS6_vEEOT_ CODE
 0001:0002b310 0000000bH .text$_ZNSt3__114pointer_traitsIPNS_17__hash_value_typeIPN6System7Typinfo9TTypeInfoEPSt9type_infoEEE10pointer_toB6v15007ERS8_ CODE
 0001:0002b320 00002dd6H .text                   CODE
 0001:0002e100 0000005bH .text$_ZN6System8_CharLenIwEEiPKT_ CODE
 0001:0002e160 0000005bH .text$_ZN6System8_CharLenIDsEEiPKT_ CODE
 0001:0002e1c0 00000023H .text$_ZN6System14AnsiStringBaseC2ILt0EEEONS_11AnsiStringTIXT_EEE CODE
 0001:0002e1f0 0000004dH .text$_ZNK6System14AnsiStringBase8CodePageEv CODE
 0001:0002e240 0000003aH .text$_ZNK6System14AnsiStringBaseixEi CODE
 0001:0002e280 00000a7cH .text                   CODE
 0002:00000000 00000008H .rdata$.refptr._MINGW_INSTALL_DEBUG_MATHERR DATA
 0002:00000008 00000008H .rdata$.refptr.__dyn_tls_init_callback DATA
 0002:00000010 00000008H .rdata$.refptr.__globallocalestatus DATA
 0002:00000018 00000008H .rdata$.refptr.__image_base__ DATA
 0002:00000020 00000008H .rdata$.refptr.__imp___winitenv DATA
 0002:00000028 00000008H .rdata$.refptr.__mingw_app_type DATA
 0002:00000030 00000008H .rdata$.refptr.__mingw_initltsdrot_force DATA
 0002:00000038 00000008H .rdata$.refptr.__mingw_initltsdyn_force DATA
 0002:00000040 00000008H .rdata$.refptr.__mingw_initltssuo_force DATA
 0002:00000048 00000008H .rdata$.refptr.__mingw_oldexcpt_handler DATA
 0002:00000050 00000008H .rdata$.refptr.__native_startup_lock DATA
 0002:00000058 00000008H .rdata$.refptr.__native_startup_state DATA
 0002:00000060 00000008H .rdata$.refptr.__xc_a   DATA
 0002:00000068 00000008H .rdata$.refptr.__xc_z   DATA
 0002:00000070 00000008H .rdata$.refptr.__xi_a   DATA
 0002:00000078 00000008H .rdata$.refptr.__xi_z   DATA
 0002:00000080 00000008H .rdata$.refptr._commode DATA
 0002:00000088 00000008H .rdata$.refptr._dowildcard DATA
 0002:00000090 00000008H .rdata$.refptr._fmode   DATA
 0002:00000098 00000008H .rdata$.refptr._hInstance DATA
 0002:000000a0 00000008H .rdata$.refptr._newmode DATA
 0002:000000a8 000059f6H .rdata                  DATA
 0002:00005aa0 00000008H .rdata$.refptr.Form1    DATA
 0002:00005aa8 00000008H .rdata$.refptr.Form2    DATA
 0002:00005ab0 00000008H .rdata$.refptr.Form3    DATA
 0002:00005ab8 00000008H .rdata$.refptr._ZTRN6System8Sysutils9ExceptionE DATA
 0002:00005ac0 00000008H .rdata$.refptr._ZTV6TForm1 DATA
 0002:00005ac8 00000008H .rdata$.refptr._ZTV6TForm2 DATA
 0002:00005ad0 00000008H .rdata$.refptr._ZTV6TForm3 DATA
 0002:00005ad8 00000008H .rdata$.refptr._ZTVN6System8Sysutils9ExceptionE DATA
 0002:00005ae0 00000980H .rdata                  DATA
 0002:00006460 00000032H .rdata$_ZTR6TForm1      DATA
 0002:00006492 00000011H .rdata$_ZTSSt12length_error DATA
 0002:000064a3 00000010H .rdata$_ZTSSt11logic_error DATA
 0002:000064b3 0000000dH .rdata$_ZTSSt9exception DATA
 0002:000064c0 00000010H .rdata$_ZTISt9exception DATA
 0002:000064d0 00000018H .rdata$_ZTISt11logic_error DATA
 0002:000064e8 00000018H .rdata$_ZTISt12length_error DATA
 0002:00006500 00000019H .rdata$_ZTSSt20bad_array_new_length DATA
 0002:00006519 0000000dH .rdata$_ZTSSt9bad_alloc DATA
 0002:00006528 00000018H .rdata$_ZTISt9bad_alloc DATA
 0002:00006540 00000018H .rdata$_ZTISt20bad_array_new_length DATA
 0002:00006558 0000001cH .rdata$_ZTSNSt3__117bad_function_callE DATA
 0002:00006578 00000018H .rdata$_ZTINSt3__117bad_function_callE DATA
 0002:00006590 00000028H .rdata$_ZTVNSt3__117bad_function_callE DATA
 0002:000065b8 00000023H .rdata$_ZTSNSt3__110__function6__baseIFbiiEEE DATA
 0002:000065e0 00000010H .rdata$_ZTINSt3__110__function6__baseIFbiiEEE DATA
 0002:000065f0 00000058H .rdata$_ZTVNSt3__110__function6__baseIFbiiEEE DATA
 0002:00006650 00000507H .rdata                  DATA
 0002:00006b60 00000032H .rdata$_ZTR6TForm3      DATA
 0002:00006ba0 000004cfH .rdata                  DATA
 0002:00007070 00000032H .rdata$_ZTR6TForm2      DATA
 0002:000070a2 00000012H .rdata                  DATA
 0002:000070b8 00000008H .rdata$.refptr.__imp__tzset DATA
 0002:000070c0 00000008H .rdata$.refptr.__mingw_module_is_dll DATA
 0002:000070c8 00000008H .rdata$.refptr.__CTOR_LIST__ DATA
 0002:000070d0 00000038H .rdata                  DATA
 0002:00007108 00000008H .rdata$.refptr._CRT_MT  DATA
 0002:00007110 00000255H .rdata                  DATA
 0002:00007368 00000008H .rdata$.refptr.__RUNTIME_PSEUDO_RELOC_LIST_END__ DATA
 0002:00007370 00000008H .rdata$.refptr.__RUNTIME_PSEUDO_RELOC_LIST__ DATA
 0002:00007378 00000008H .rdata$.refptr._ZN6System10_init_instE DATA
 0002:00007380 00000008H .rdata$.refptr._ZTRN6System8Sysutils11ERangeErrorE DATA
 0002:00007388 00000008H .rdata$.refptr._ZTVN6System8Sysutils11ERangeErrorE DATA
 0002:00007390 00000221H .rdata                  DATA
 0002:000075b8 00000008H .rdata$.refptr.__EMBT_INIT_LIST_BEGIN__ DATA
 0002:000075c0 00000008H .rdata$.refptr.__EMBT_INIT_LIST_END__ DATA
 0002:000075c8 00000008H .rdata$.refptr.__isDLL  DATA
 0002:000075d0 00000008H .rdata$.refptr.__isGUI  DATA
 0002:000075d8 00000008H .rdata$.refptr.__isVCLPackage DATA
 0002:000075e0 000003a0H .rdata                  DATA
 0002:00007a40 00000008H .CRT$XCA                DATA
 0002:00007a48 00000008H .CRT$XCAA               DATA
 0002:00007a50 00000008H .CRT$XCZ                DATA
 0002:00007a58 00000008H .CRT$XDA                DATA
 0002:00007a60 00000008H .CRT$XDZ                DATA
 0002:00007a68 00000008H .CRT$XIA                DATA
 0002:00007a70 00000008H .CRT$XIAA               DATA
 0002:00007a78 00000008H .CRT$XIZ                DATA
 0002:00007a80 00000008H .CRT$XLA                DATA
 0002:00007a88 00000008H .CRT$XLC                DATA
 0002:00007a90 00000008H .CRT$XLD                DATA
 0002:00007a98 00000008H .CRT$XLZ                DATA
 0002:00007aa8 00000008H .ctors.65435            DATA
 0002:00007ab0 00000010H .ctors.65534            DATA
 0002:00007ad0 00000008H .dtors.65435            DATA
 0002:0000e340 00000258H .xdata                  DATA
 0002:0000e598 00000008H .xdata$_ZN6System7Classes15TComponentClassC1EPNS_10TMetaClassE DATA
 0002:0000e5a0 00000008H .xdata$_ZN6System7Classes15TComponentClassC2EPNS_10TMetaClassE DATA
 0002:0000e5a8 00000008H .xdata$_ZN6System15DelphiMetaClassINS_7Classes15TComponentClassEEC2EPNS_10TMetaClassE DATA
 0002:0000e5b0 00000888H .xdata                  DATA
 0002:0000ee38 0000001cH .xdata$_ZNSt3__113random_deviceC1Ev DATA
 0002:0000ee54 00000020H .xdata$_ZNSt3__16vectorI4CellNS_9allocatorIS1_EEED2B6v15007Ev DATA
 0002:0000ee74 00000020H .xdata$_ZNSt3__16vectorI4CellNS_9allocatorIS1_EEE22__base_destruct_at_endB6v15007EPS1_ DATA
 0002:0000ee94 00000020H .xdata$_ZNSt3__19allocatorI4CellE10deallocateB6v15007EPS1_y DATA
 0002:0000eeb4 00000020H .xdata$_ZNSt3__112__deque_baseI5StateNS_9allocatorIS1_EEED2Ev DATA
 0002:0000eed4 00000024H .xdata$_ZNSt3__112__deque_baseI5StateNS_9allocatorIS1_EEE5clearEv DATA
 0002:0000eef8 00000020H .xdata$_ZNSt3__112__deque_baseI5StateNS_9allocatorIS1_EEE5beginEv DATA
 0002:0000ef18 00000020H .xdata$_ZNSt3__112__deque_baseI5StateNS_9allocatorIS1_EEE3endEv DATA
 0002:0000ef38 00000020H .xdata$_ZNSt3__19allocatorI5StateE10deallocateB6v15007EPS1_y DATA
 0002:0000ef58 00000020H .xdata$_ZNSt3__114__split_bufferIP5StateNS_9allocatorIS2_EEED2Ev DATA
 0002:0000ef78 00000020H .xdata$_ZNSt3__114__split_bufferIP5StateNS_9allocatorIS2_EEE17__destruct_at_endB6v15007EPS2_NS_17integral_constantIbLb0EEE DATA
 0002:0000ef98 00000020H .xdata$_ZNSt3__19allocatorIP5StateE10deallocateB6v15007EPS2_y DATA
 0002:0000efb8 00000044H .xdata$_ZNSt3__124__put_character_sequenceIcNS_11char_traitsIcEEEERNS_13basic_ostreamIT_T0_EES7_PKS4_y DATA
 0002:0000effc 00000024H .xdata$_ZNSt3__116__pad_and_outputIcNS_11char_traitsIcEEEENS_19ostreambuf_iteratorIT_T0_EES6_PKS4_S8_S8_RNS_8ios_baseES4_ DATA
 0002:0000f020 00000020H .xdata$_ZNSt3__119ostreambuf_iteratorIcNS_11char_traitsIcEEEC2B6v15007ERNS_13basic_ostreamIcS2_EE DATA
 0002:0000f040 0000001cH .xdata$_ZNKSt3__19basic_iosIcNS_11char_traitsIcEEE5widenB6v15007Ec DATA
 0002:0000f05c 00000034H .xdata$_ZNSt3__113basic_ostreamIcNS_11char_traitsIcEEE6sentryD2Ev DATA
 0002:0000f090 00000020H .xdata$_ZNSt3__16vectorINS0_IiNS_9allocatorIiEEEENS1_IS3_EEEC2B6v15007Ev DATA
 0002:0000f0b0 00000020H .xdata$_ZNSt3__16vectorINS0_IiNS_9allocatorIiEEEENS1_IS3_EEED2B6v15007Ev DATA
 0002:0000f0d0 00000020H .xdata$_ZNSt3__16vectorINS0_IiNS_9allocatorIiEEEENS1_IS3_EEE22__base_destruct_at_endB6v15007EPS3_ DATA
 0002:0000f0f0 00000020H .xdata$_ZNSt3__19allocatorINS_6vectorIiNS0_IiEEEEE10deallocateB6v15007EPS3_y DATA
 0002:0000f110 00000020H .xdata$_ZNSt3__16vectorIiNS_9allocatorIiEEEC2EyRKi DATA
 0002:0000f130 00000020H .xdata$_ZNSt3__16vectorIiNS_9allocatorIiEEE18__construct_at_endEyRKi DATA
 0002:0000f150 00000020H .xdata$_ZNKSt3__16vectorIiNS_9allocatorIiEEE8max_sizeEv DATA
 0002:0000f170 0000001cH .xdata$_ZNSt3__120__throw_length_errorB6v15007EPKc DATA
 0002:0000f18c 00000020H .xdata$_ZNSt3__113__transactionINS_6vectorIiNS_9allocatorIiEEE16__destroy_vectorEED2B6v15007Ev DATA
 0002:0000f1ac 00000020H .xdata$_ZNSt3__16vectorIiNS_9allocatorIiEEE22__base_destruct_at_endB6v15007EPi DATA
 0002:0000f1cc 00000020H .xdata$_ZNSt3__19allocatorIiE10deallocateB6v15007EPiy DATA
 0002:0000f1ec 00000020H .xdata$_ZNSt3__16vectorIiNS_9allocatorIiEEED2B6v15007Ev DATA
 0002:0000f20c 00000020H .xdata$_ZNSt3__16vectorINS0_IiNS_9allocatorIiEEEENS1_IS3_EEEC2EyRKS3_ DATA
 0002:0000f22c 00000020H .xdata$_ZNSt3__16vectorINS0_IiNS_9allocatorIiEEEENS1_IS3_EEE18__construct_at_endEyRKS3_ DATA
 0002:0000f24c 00000020H .xdata$_ZNKSt3__16vectorINS0_IiNS_9allocatorIiEEEENS1_IS3_EEE8max_sizeEv DATA
 0002:0000f26c 00000020H .xdata$_ZNSt3__16vectorIiNS_9allocatorIiEEEC2ERKS3_ DATA
 0002:0000f28c 0000001cH .xdata$_ZNSt3__16vectorIiNS_9allocatorIiEEE18__construct_at_endIPiEENS_9enable_ifIXsr27__is_cpp17_forward_iteratorIT_EE5valueEvE4typeES7_S7_y DATA
 0002:0000f2a8 00000034H .xdata$_ZNSt3__130__uninitialized_allocator_copyB6v15007INS_9allocatorIiEEPiS3_S3_EET2_RT_T0_T1_S4_ DATA
 0002:0000f2dc 00000020H .xdata$_ZNSt3__119__to_address_helperINS_16reverse_iteratorIPiEEvE6__callB6v15007ERKS3_ DATA
 0002:0000f2fc 00000020H .xdata$_ZNSt3__113__transactionINS_6vectorINS1_IiNS_9allocatorIiEEEENS2_IS4_EEE16__destroy_vectorEED2B6v15007Ev DATA
 0002:0000f31c 00000024H .xdata$_ZNSt3__16vectorINS0_IiNS_9allocatorIiEEEENS1_IS3_EEE13__move_assignERS5_NS_17integral_constantIbLb1EEE DATA
 0002:0000f340 00000020H .xdata$_ZNSt3__16vectorINS0_IiNS_9allocatorIiEEEENS1_IS3_EEE5clearB6v15007Ev DATA
 0002:0000f360 00000024H .xdata$_ZNSt3__112__hash_tableIiNS_4hashIiEENS_8equal_toIiEENS_9allocatorIiEEE25__emplace_unique_key_argsIiJRKiEEENS_4pairINS_15__hash_iteratorIPNS_11__hash_nodeIiPvEEEEbEERKT_DpOT0_ DATA
 0002:0000f384 00000024H .xdata$_ZNSt3__112__hash_tableIiNS_4hashIiEENS_8equal_toIiEENS_9allocatorIiEEE21__construct_node_hashIRKiJEEENS_10unique_ptrINS_11__hash_nodeIiPvEENS_22__hash_node_destructorINS5_ISE_EEEEEEyOT_DpOT0_ DATA
 0002:0000f3a8 00000020H .xdata$_ZNSt3__110unique_ptrINS_11__hash_nodeIiPvEENS_22__hash_node_destructorINS_9allocatorIS3_EEEEEC2B6v15007ILb1EvEEPS3_NS_16__dependent_typeINS_27__unique_ptr_deleter_sfinaeIS7_EEXT_EE20__good_rval_ref_typeE DATA
 0002:0000f3c8 00000020H .xdata$_ZNSt3__19allocatorIPNS_16__hash_node_baseIPNS_11__hash_nodeIiPvEEEEE10deallocateB6v15007EPS7_y DATA
 0002:0000f3e8 00000020H .xdata$_ZNSt3__122__hash_node_destructorINS_9allocatorINS_11__hash_nodeIiPvEEEEEclB6v15007EPS4_ DATA
 0002:0000f408 00000020H .xdata$_ZNSt3__19allocatorINS_11__hash_nodeIiPvEEE10deallocateB6v15007EPS3_y DATA
 0002:0000f428 00000020H .xdata$_ZNSt3__16vectorIiNS_9allocatorIiEEEC2B6v15007ESt16initializer_listIiE DATA
 0002:0000f448 0000001cH .xdata$_ZNSt3__16vectorIiNS_9allocatorIiEEE18__construct_at_endIPKiEENS_9enable_ifIXsr27__is_cpp17_forward_iteratorIT_EE5valueEvE4typeES8_S8_y DATA
 0002:0000f464 00000020H .xdata$_ZNSt3__113__rewrap_iterB6v15007IPiS1_NS_18__unwrap_iter_implIS1_Lb1EEEEET_S4_T0_ DATA
 0002:0000f484 00000020H .xdata$_ZNSt3__113__rewrap_iterB6v15007IPKiS2_NS_18__unwrap_iter_implIS2_Lb1EEEEET_S5_T0_ DATA
 0002:0000f4a4 00000020H .xdata$_ZNSt3__16vectorINS_13unordered_setIiNS_4hashIiEENS_8equal_toIiEENS_9allocatorIiEEEENS6_IS8_EEEC2Ey DATA
 0002:0000f4c4 00000020H .xdata$_ZNSt3__16vectorINS_13unordered_setIiNS_4hashIiEENS_8equal_toIiEENS_9allocatorIiEEEENS6_IS8_EEE18__construct_at_endEy DATA
 0002:0000f4e4 00000020H .xdata$_ZNKSt3__16vectorINS_13unordered_setIiNS_4hashIiEENS_8equal_toIiEENS_9allocatorIiEEEENS6_IS8_EEE8max_sizeEv DATA
 0002:0000f504 00000020H .xdata$_ZNSt3__113__transactionINS_6vectorINS_13unordered_setIiNS_4hashIiEENS_8equal_toIiEENS_9allocatorIiEEEENS7_IS9_EEE16__destroy_vectorEED2B6v15007Ev DATA
 0002:0000f524 00000020H .xdata$_ZNSt3__16vectorINS_13unordered_setIiNS_4hashIiEENS_8equal_toIiEENS_9allocatorIiEEEENS6_IS8_EEE22__base_destruct_at_endB6v15007EPS8_ DATA
 0002:0000f544 00000020H .xdata$_ZNSt3__19allocatorINS_13unordered_setIiNS_4hashIiEENS_8equal_toIiEENS0_IiEEEEE10deallocateB6v15007EPS7_y DATA
 0002:0000f564 00000020H .xdata$_ZNSt3__16vectorINS_13unordered_setIiNS_4hashIiEENS_8equal_toIiEENS_9allocatorIiEEEENS6_IS8_EEED2B6v15007Ev DATA
 0002:0000f584 00000020H .xdata$_ZNSt3__16vectorINS_4pairIiiEENS_9allocatorIS2_EEEC2B6v15007Ev DATA
 0002:0000f5a4 00000020H .xdata$_ZNSt3__16vectorINS_4pairIiiEENS_9allocatorIS2_EEED2B6v15007Ev DATA
 0002:0000f5c4 00000020H .xdata$_ZNSt3__16vectorINS_4pairIiiEENS_9allocatorIS2_EEE22__base_destruct_at_endB6v15007EPS2_ DATA
 0002:0000f5e4 00000020H .xdata$_ZNSt3__19allocatorINS_4pairIiiEEE10deallocateB6v15007EPS2_y DATA
 0002:0000f604 0000001cH .xdata$_ZNSt3__16vectorINS_4pairIiiEENS_9allocatorIS2_EEE22__construct_one_at_endB6v15007IJS2_EEEvDpOT_ DATA
 0002:0000f620 00000020H .xdata$_ZNSt3__16vectorINS_4pairIiiEENS_9allocatorIS2_EEE21__push_back_slow_pathIS2_EEvOT_ DATA
 0002:0000f640 00000020H .xdata$_ZNKSt3__16vectorINS_4pairIiiEENS_9allocatorIS2_EEE8max_sizeEv DATA
 0002:0000f660 00000038H .xdata$_ZNSt3__142__uninitialized_allocator_move_if_noexceptB6v15007INS_9allocatorINS_4pairIiiEEEENS_16reverse_iteratorIPS3_EES7_S7_EET2_RT_T0_T1_S8_ DATA
 0002:0000f698 00000020H .xdata$_ZNSt3__119__to_address_helperINS_16reverse_iteratorIPNS_4pairIiiEEEEvE6__callB6v15007ERKS5_ DATA
 0002:0000f6b8 00000020H .xdata$_ZNSt3__119__to_address_helperINS_16reverse_iteratorINS1_IPNS_4pairIiiEEEEEEvE6__callB6v15007ERKS6_ DATA
 0002:0000f6d8 00000020H .xdata$_ZNSt3__114__split_bufferINS_4pairIiiEERNS_9allocatorIS2_EEED2Ev DATA
 0002:0000f6f8 00000020H .xdata$_ZNSt3__114__split_bufferINS_4pairIiiEERNS_9allocatorIS2_EEE17__destruct_at_endB6v15007EPS2_NS_17integral_constantIbLb0EEE DATA
 0002:0000f718 00000020H .xdata$_ZNSt3__16__treeIiNS_4lessIiEENS_9allocatorIiEEE16__construct_nodeIJRKiEEENS_10unique_ptrINS_11__tree_nodeIiPvEENS_22__tree_node_destructorINS3_ISC_EEEEEEDpOT_ DATA
 0002:0000f738 00000020H .xdata$_ZNSt3__110unique_ptrINS_11__tree_nodeIiPvEENS_22__tree_node_destructorINS_9allocatorIS3_EEEEEC2B6v15007ILb1EvEEPS3_NS_16__dependent_typeINS_27__unique_ptr_deleter_sfinaeIS7_EEXT_EE20__good_rval_ref_typeE DATA
 0002:0000f758 00000024H .xdata$_ZNSt3__127__tree_balance_after_insertIPNS_16__tree_node_baseIPvEEEEvT_S5_ DATA
 0002:0000f77c 00000024H .xdata$_ZNSt3__118__tree_left_rotateIPNS_16__tree_node_baseIPvEEEEvT_ DATA
 0002:0000f7a0 00000020H .xdata$_ZNSt3__122__tree_node_destructorINS_9allocatorINS_11__tree_nodeIiPvEEEEEclB6v15007EPS4_ DATA
 0002:0000f7c0 00000020H .xdata$_ZNSt3__19allocatorINS_11__tree_nodeIiPvEEE10deallocateB6v15007EPS3_y DATA
 0002:0000f7e0 00000020H .xdata$_ZNSt3__16__treeIiNS_4lessIiEENS_9allocatorIiEEE21__remove_node_pointerEPNS_11__tree_nodeIiPvEE DATA
 0002:0000f800 00000020H .xdata$_ZNSt3__113unordered_setIiNS_4hashIiEENS_8equal_toIiEENS_9allocatorIiEEEC2B6v15007Ev DATA
 0002:0000f820 00000020H .xdata$_ZNSt3__112__hash_tableIiNS_4hashIiEENS_8equal_toIiEENS_9allocatorIiEEEC2Ev DATA
 0002:0000f840 00000020H .xdata$_ZNSt3__110unique_ptrIA_PNS_16__hash_node_baseIPNS_11__hash_nodeIiPvEEEENS_25__bucket_list_deallocatorINS_9allocatorIS7_EEEEEC2B6v15007ILb1EvEEv DATA
 0002:0000f860 00000020H .xdata$_ZNSt3__125__bucket_list_deallocatorINS_9allocatorIPNS_16__hash_node_baseIPNS_11__hash_nodeIiPvEEEEEEEC2B6v15007Ev DATA
 0002:0000f880 00000020H .xdata$_ZNSt3__112__hash_tableIiNS_4hashIiEENS_8equal_toIiEENS_9allocatorIiEEED2Ev DATA
 0002:0000f8a0 00000020H .xdata$_ZNSt3__16vectorI4CellNS_9allocatorIS1_EEEC2B6v15007Ev DATA
 0002:0000f8c0 0000001cH .xdata$_ZNSt3__16vectorI4CellNS_9allocatorIS1_EEE22__construct_one_at_endB6v15007IJS1_EEEvDpOT_ DATA
 0002:0000f8dc 00000020H .xdata$_ZNSt3__16vectorI4CellNS_9allocatorIS1_EEE21__push_back_slow_pathIS1_EEvOT_ DATA
 0002:0000f8fc 00000020H .xdata$_ZNKSt3__16vectorI4CellNS_9allocatorIS1_EEE8max_sizeEv DATA
 0002:0000f91c 00000020H .xdata$_ZNSt3__113__rewrap_iterB6v15007INS_16reverse_iteratorIP4CellEES4_NS_18__unwrap_iter_implIS4_Lb0EEEEET_S7_T0_ DATA
 0002:0000f93c 00000020H .xdata$_ZNSt3__113__rewrap_iterB6v15007IP4CellS2_NS_18__unwrap_iter_implIS2_Lb1EEEEET_S5_T0_ DATA
 0002:0000f95c 00000020H .xdata$_ZNSt3__114__split_bufferI4CellRNS_9allocatorIS1_EEED2Ev DATA
 0002:0000f97c 00000020H .xdata$_ZNSt3__114__split_bufferI4CellRNS_9allocatorIS1_EEE17__destruct_at_endB6v15007EPS1_NS_17integral_constantIbLb0EEE DATA
 0002:0000f99c 00000020H .xdata$_ZNSt3__16vectorI4CellNS_9allocatorIS1_EEE17__destruct_at_endB6v15007EPS1_ DATA
 0002:0000f9bc 00000020H .xdata$_ZNSt3__16vectorINS0_IiNS_9allocatorIiEEEENS1_IS3_EEEC2ERKS5_ DATA
 0002:0000f9dc 0000001cH .xdata$_ZNSt3__16vectorINS0_IiNS_9allocatorIiEEEENS1_IS3_EEE18__construct_at_endIPS3_EENS_9enable_ifIXsr27__is_cpp17_forward_iteratorIT_EE5valueEvE4typeES9_S9_y DATA
 0002:0000f9f8 00000034H .xdata$_ZNSt3__130__uninitialized_allocator_copyB6v15007INS_9allocatorINS_6vectorIiNS1_IiEEEEEEPS4_S6_S6_EET2_RT_T0_T1_S7_ DATA
 0002:0000fa2c 00000020H .xdata$_ZNSt3__119__to_address_helperINS_16reverse_iteratorIPNS_6vectorIiNS_9allocatorIiEEEEEEvE6__callB6v15007ERKS7_ DATA
 0002:0000fa4c 00000020H .xdata$_ZNSt3__112__deque_baseI5StateNS_9allocatorIS1_EEEC2Ev DATA
 0002:0000fa6c 00000020H .xdata$_ZNSt3__114__split_bufferIP5StateNS_9allocatorIS2_EEEC2Ev DATA
 0002:0000fa8c 00000028H .xdata$_ZNSt3__15dequeI5StateNS_9allocatorIS1_EEE19__add_back_capacityEv DATA
 0002:0000fab4 00000024H .xdata$_ZNSt3__114__split_bufferIP5StateNS_9allocatorIS2_EEE9push_backB6v15007ERKS2_ DATA
 0002:0000fad8 00000024H .xdata$_ZNSt3__114__split_bufferIP5StateNS_9allocatorIS2_EEE9push_backEOS2_ DATA
 0002:0000fafc 00000024H .xdata$_ZNSt3__114__split_bufferIP5StateNS_9allocatorIS2_EEE10push_frontEOS2_ DATA
 0002:0000fb20 00000024H .xdata$_ZNSt3__114__split_bufferIP5StateRNS_9allocatorIS2_EEE9push_backEOS2_ DATA
 0002:0000fb44 00000024H .xdata$_ZNSt3__114__split_bufferIP5StateRNS_9allocatorIS2_EEE10push_frontERKS2_ DATA
 0002:0000fb68 00000020H .xdata$_ZNSt3__114__split_bufferIP5StateRNS_9allocatorIS2_EEE18__construct_at_endINS_13move_iteratorIPS2_EEEENS_9enable_ifIXsr27__is_cpp17_forward_iteratorIT_EE5valueEvE4typeESC_SC_ DATA
 0002:0000fb88 00000020H .xdata$_ZNSt3__113__rewrap_iterB6v15007IPP5StateS3_NS_18__unwrap_iter_implIS3_Lb1EEEEET_S6_T0_ DATA
 0002:0000fba8 00000020H .xdata$_ZNSt3__110unique_ptrIP5StateNS_22__allocator_destructorINS_9allocatorIS1_EEEEEC2B6v15007ILb1EvEES2_NS_16__dependent_typeINS_27__unique_ptr_deleter_sfinaeIS6_EEXT_EE20__good_rval_ref_typeE DATA
 0002:0000fbc8 00000020H .xdata$_ZNSt3__114__split_bufferIP5StateRNS_9allocatorIS2_EEED2Ev DATA
 0002:0000fbe8 00000020H .xdata$_ZNSt3__114__split_bufferIP5StateRNS_9allocatorIS2_EEE17__destruct_at_endB6v15007EPS2_NS_17integral_constantIbLb0EEE DATA
 0002:0000fc08 00000020H .xdata$_ZNSt3__16vectorINS0_IiNS_9allocatorIiEEEENS1_IS3_EEEC2B6v15007EOS5_ DATA
 0002:0000fc28 00000020H .xdata$_ZNSt3__16vectorINS0_IiNS_9allocatorIiEEEENS1_IS3_EEE17__destruct_at_endB6v15007EPS3_ DATA
 0002:0000fc48 00000020H .xdata$_ZNSt3__113__rewrap_iterB6v15007IPNS_6vectorIiNS_9allocatorIiEEEES5_NS_18__unwrap_iter_implIS5_Lb1EEEEET_S8_T0_ DATA
 0002:0000fc68 00000020H .xdata$_ZNSt3__16vectorIiNS_9allocatorIiEEE17__destruct_at_endB6v15007EPi DATA
 0002:0000fc88 00000020H .xdata$_ZNSt3__16vectorIiNS_9allocatorIiEEE5clearB6v15007Ev DATA
 0002:0000fca8 00000020H .xdata$_ZNSt3__16vectorINS_3setIiNS_4lessIiEENS_9allocatorIiEEEENS4_IS6_EEEC2Ey DATA
 0002:0000fcc8 00000020H .xdata$_ZNSt3__16vectorINS_3setIiNS_4lessIiEENS_9allocatorIiEEEENS4_IS6_EEE18__construct_at_endEy DATA
 0002:0000fce8 00000020H .xdata$_ZNKSt3__16vectorINS_3setIiNS_4lessIiEENS_9allocatorIiEEEENS4_IS6_EEE8max_sizeEv DATA
 0002:0000fd08 00000020H .xdata$_ZNSt3__16__treeIiNS_4lessIiEENS_9allocatorIiEEEC2ERKS2_ DATA
 0002:0000fd28 00000020H .xdata$_ZNSt3__113__transactionINS_6vectorINS_3setIiNS_4lessIiEENS_9allocatorIiEEEENS5_IS7_EEE16__destroy_vectorEED2B6v15007Ev DATA
 0002:0000fd48 00000020H .xdata$_ZNSt3__16vectorINS_3setIiNS_4lessIiEENS_9allocatorIiEEEENS4_IS6_EEE22__base_destruct_at_endB6v15007EPS6_ DATA
 0002:0000fd68 00000020H .xdata$_ZNSt3__19allocatorINS_3setIiNS_4lessIiEENS0_IiEEEEE10deallocateB6v15007EPS5_y DATA
 0002:0000fd88 00000020H .xdata$_ZNSt3__16vectorINS_3setIiNS_4lessIiEENS_9allocatorIiEEEENS4_IS6_EEED2B6v15007Ev DATA
 0002:0000fda8 00000020H .xdata$_ZNSt3__16vectorINS0_INS_3setIiNS_4lessIiEENS_9allocatorIiEEEENS4_IS6_EEEENS4_IS8_EEEC2EyRKS8_ DATA
 0002:0000fdc8 00000020H .xdata$_ZNSt3__16vectorINS0_INS_3setIiNS_4lessIiEENS_9allocatorIiEEEENS4_IS6_EEEENS4_IS8_EEE18__construct_at_endEyRKS8_ DATA
 0002:0000fde8 00000020H .xdata$_ZNKSt3__16vectorINS0_INS_3setIiNS_4lessIiEENS_9allocatorIiEEEENS4_IS6_EEEENS4_IS8_EEE8max_sizeEv DATA
 0002:0000fe08 00000020H .xdata$_ZNSt3__16vectorINS_3setIiNS_4lessIiEENS_9allocatorIiEEEENS4_IS6_EEEC2ERKS8_ DATA
 0002:0000fe28 0000001cH .xdata$_ZNSt3__16vectorINS_3setIiNS_4lessIiEENS_9allocatorIiEEEENS4_IS6_EEE18__construct_at_endIPS6_EENS_9enable_ifIXsr27__is_cpp17_forward_iteratorIT_EE5valueEvE4typeESC_SC_y DATA
 0002:0000fe44 00000034H .xdata$_ZNSt3__130__uninitialized_allocator_copyB6v15007INS_9allocatorINS_3setIiNS_4lessIiEENS1_IiEEEEEEPS6_S8_S8_EET2_RT_T0_T1_S9_ DATA
 0002:0000fe78 0000001cH .xdata$_ZNSt3__13setIiNS_4lessIiEENS_9allocatorIiEEEC2B6v15007ERKS5_ DATA
 0002:0000fe94 00000020H .xdata$_ZNSt3__119__to_address_helperINS_16reverse_iteratorIPNS_3setIiNS_4lessIiEENS_9allocatorIiEEEEEEvE6__callB6v15007ERKS9_ DATA
 0002:0000feb4 00000020H .xdata$_ZNSt3__113__transactionINS_6vectorINS1_INS_3setIiNS_4lessIiEENS_9allocatorIiEEEENS5_IS7_EEEENS5_IS9_EEE16__destroy_vectorEED2B6v15007Ev DATA
 0002:0000fed4 00000020H .xdata$_ZNSt3__16vectorINS0_INS_3setIiNS_4lessIiEENS_9allocatorIiEEEENS4_IS6_EEEENS4_IS8_EEE22__base_destruct_at_endB6v15007EPS8_ DATA
 0002:0000fef4 00000020H .xdata$_ZNSt3__19allocatorINS_6vectorINS_3setIiNS_4lessIiEENS0_IiEEEENS0_IS6_EEEEE10deallocateB6v15007EPS8_y DATA
 0002:0000ff14 00000020H .xdata$_ZNSt3__16vectorINS0_INS_3setIiNS_4lessIiEENS_9allocatorIiEEEENS4_IS6_EEEENS4_IS8_EEED2B6v15007Ev DATA
 0002:0000ff34 00000008H .xdata$_ZN3Vcl5Forms5TFormC3EPN6System7Classes10TComponentE DATA
 0002:0000ff3c 00000008H .xdata$_ZNSt3__16vectorINS0_IiNS_9allocatorIiEEEENS1_IS3_EEEC1B6v15007Ev DATA
 0002:0000ff44 00000008H .xdata$_ZNSt3__16vectorIiNS_9allocatorIiEEEC1EyRKi DATA
 0002:0000ff4c 00000008H .xdata$_ZNSt3__16vectorINS0_IiNS_9allocatorIiEEEENS1_IS3_EEEC1EyRKS3_ DATA
 0002:0000ff54 00000008H .xdata$_ZNSt3__16vectorINS0_IiNS_9allocatorIiEEEENS1_IS3_EEEaSB6v15007EOS5_ DATA
 0002:0000ff5c 00000008H .xdata$_ZNSt3__16vectorINS0_IiNS_9allocatorIiEEEENS1_IS3_EEED1B6v15007Ev DATA
 0002:0000ff64 00000008H .xdata$_ZNSt3__16vectorIiNS_9allocatorIiEEED1B6v15007Ev DATA
 0002:0000ff6c 00000008H .xdata$_ZN3Vcl5Forms5TFormD0Ev DATA
 0002:0000ff74 0000001cH .xdata$_ZNSt3__113random_deviceC1Ev DATA
 0002:0000ff90 00000008H .xdata$_ZNSt3__123mersenne_twister_engineIjLy32ELy624ELy397ELy31ELj2567483615ELy11ELj4294967295ELy7ELj2636928640ELy15ELj4022730752ELy18ELj1812433253EEC1B6v15007Ej DATA
 0002:0000ff98 00000008H .xdata$_ZNSt3__124uniform_int_distributionIiEC1Eii DATA
 0002:0000ffa0 00000008H .xdata$_ZNKSt3__18functionIFbiiEEclEii DATA
 0002:0000ffa8 00000008H .xdata$_ZNSt3__18functionIFbiiEED1Ev DATA
 0002:0000ffb0 00000008H .xdata$_ZNSt3__16vectorINS_13unordered_setIiNS_4hashIiEENS_8equal_toIiEENS_9allocatorIiEEEENS6_IS8_EEEC1Ey DATA
 0002:0000ffb8 00000008H .xdata$_ZNSt3__16vectorINS_4pairIiiEENS_9allocatorIS2_EEEC1B6v15007Ev DATA
 0002:0000ffc0 00000008H .xdata$_ZNSt3__16vectorINS_4pairIiiEENS_9allocatorIS2_EEE9push_backB6v15007EOS2_ DATA
 0002:0000ffc8 00000008H .xdata$_ZNSt3__14pairIiiEC1B6v15007IRiS3_LPv0EEEOT_OT0_ DATA
 0002:0000ffd0 00000008H .xdata$_ZNSt3__17shuffleINS_11__wrap_iterIPNS_4pairIiiEEEERNS_23mersenne_twister_engineIjLy32ELy624ELy397ELy31ELj2567483615ELy11ELj4294967295ELy7ELj2636928640ELy15ELj4022730752ELy18ELj1812433253EEEEEvT_S9_OT0_ DATA
 0002:0000ffd8 00000008H .xdata$_ZNSt3__16vectorINS_4pairIiiEENS_9allocatorIS2_EEE5beginB6v15007Ev DATA
 0002:0000ffe0 00000008H .xdata$_ZNSt3__16vectorINS_4pairIiiEENS_9allocatorIS2_EEE3endB6v15007Ev DATA
 0002:0000ffe8 00000008H .xdata$_ZNSt3__16vectorINS_4pairIiiEENS_9allocatorIS2_EEEixB6v15007Ey DATA
 0002:0000fff0 00000008H .xdata$_ZNSt3__16vectorINS0_IiNS_9allocatorIiEEEENS1_IS3_EEEixB6v15007Ey DATA
 0002:0000fff8 00000008H .xdata$_ZNSt3__16vectorIiNS_9allocatorIiEEEixB6v15007Ey DATA
 0002:00010000 00000008H .xdata$_ZNSt3__16vectorINS_4pairIiiEENS_9allocatorIS2_EEED1B6v15007Ev DATA
 0002:00010008 00000008H .xdata$_ZNSt3__16vectorINS_13unordered_setIiNS_4hashIiEENS_8equal_toIiEENS_9allocatorIiEEEENS6_IS8_EEED1B6v15007Ev DATA
 0002:00010010 00000008H .xdata$_ZNSt3__1eqB6v15007ERKNS_21__hash_const_iteratorIPNS_11__hash_nodeIiPvEEEES7_ DATA
 0002:00010018 00000008H .xdata$_ZNSt3__16vectorINS_13unordered_setIiNS_4hashIiEENS_8equal_toIiEENS_9allocatorIiEEEENS6_IS8_EEEixB6v15007Ey DATA
 0002:00010020 00000008H .xdata$_ZNSt3__113unordered_setIiNS_4hashIiEENS_8equal_toIiEENS_9allocatorIiEEE4findB6v15007ERKi DATA
 0002:00010028 00000008H .xdata$_ZNSt3__113unordered_setIiNS_4hashIiEENS_8equal_toIiEENS_9allocatorIiEEE3endB6v15007Ev DATA
 0002:00010030 00000008H .xdata$_ZNSt3__16vectorINS0_INS_3setIiNS_4lessIiEENS_9allocatorIiEEEENS4_IS6_EEEENS4_IS8_EEEixB6v15007Ey DATA
 0002:00010038 00000008H .xdata$_ZNSt3__16vectorINS_3setIiNS_4lessIiEENS_9allocatorIiEEEENS4_IS6_EEEixB6v15007Ey DATA
 0002:00010040 00000008H .xdata$_ZNSt3__13setIiNS_4lessIiEENS_9allocatorIiEEE6insertB6v15007ERKi DATA
 0002:00010048 00000008H .xdata$_ZNSt3__113unordered_setIiNS_4hashIiEENS_8equal_toIiEENS_9allocatorIiEEE6insertB6v15007ERKi DATA
 0002:00010050 00000008H .xdata$_ZNSt3__13setIiNS_4lessIiEENS_9allocatorIiEEE5eraseB6v15007ERKi DATA
 0002:00010058 00000008H .xdata$_ZNSt3__113unordered_setIiNS_4hashIiEENS_8equal_toIiEENS_9allocatorIiEEE5eraseB6v15007ERKi DATA
 0002:00010060 00000008H .xdata$_ZNSt3__14pairIiiEC1B6v15007IiiLPv0EEEOT_OT0_ DATA
 0002:00010068 00000008H .xdata$_ZNKSt3__13setIiNS_4lessIiEENS_9allocatorIiEEE4sizeB6v15007Ev DATA
 0002:00010070 00000008H .xdata$_ZNSt3__14pairIiiEaSB6v15007EOS1_ DATA
 0002:00010078 00000008H .xdata$_ZNSt3__113unordered_setIiNS_4hashIiEENS_8equal_toIiEENS_9allocatorIiEEEC1B6v15007Ev DATA
 0002:00010080 00000008H .xdata$_ZNKSt3__16vectorINS0_IiNS_9allocatorIiEEEENS1_IS3_EEEixB6v15007Ey DATA
 0002:00010088 00000008H .xdata$_ZNKSt3__16vectorIiNS_9allocatorIiEEEixB6v15007Ey DATA
 0002:00010090 00000008H .xdata$_ZNSt3__1neB6v15007ERKNS_21__hash_const_iteratorIPNS_11__hash_nodeIiPvEEEES7_ DATA
 0002:00010098 00000008H .xdata$_ZNSt3__113unordered_setIiNS_4hashIiEENS_8equal_toIiEENS_9allocatorIiEEED1B6v15007Ev DATA
 0002:000100a0 00000008H .xdata$_ZNKSt3__112basic_stringIcNS_11char_traitsIcEENS_9allocatorIcEEE5c_strB6v15007Ev DATA
 0002:000100a8 00000008H .xdata$_ZNSt3__13setIiNS_4lessIiEENS_9allocatorIiEEE5beginB6v15007Ev DATA
 0002:000100b0 00000008H .xdata$_ZNSt3__13setIiNS_4lessIiEENS_9allocatorIiEEE3endB6v15007Ev DATA
 0002:000100b8 00000008H .xdata$_ZNSt3__1neB6v15007ERKNS_21__tree_const_iteratorIiPNS_11__tree_nodeIiPvEExEES7_ DATA
 0002:000100c0 00000008H .xdata$_ZNKSt3__121__tree_const_iteratorIiPNS_11__tree_nodeIiPvEExEdeB6v15007Ev DATA
 0002:000100c8 00000008H .xdata$_ZNSt3__121__tree_const_iteratorIiPNS_11__tree_nodeIiPvEExEppB6v15007Ev DATA
 0002:000100d0 00000008H .xdata$_ZNSt3__114priority_queueI4CellNS_6vectorIS1_NS_9allocatorIS1_EEEENS_4lessIS1_EEEC1B6v15007Ev DATA
 0002:000100d8 00000008H .xdata$_ZNSt3__114priority_queueI4CellNS_6vectorIS1_NS_9allocatorIS1_EEEENS_4lessIS1_EEE4pushEOS1_ DATA
 0002:000100e0 00000008H .xdata$_ZNKSt3__114priority_queueI4CellNS_6vectorIS1_NS_9allocatorIS1_EEEENS_4lessIS1_EEE5emptyB6v15007Ev DATA
 0002:000100e8 00000008H .xdata$_ZNKSt3__114priority_queueI4CellNS_6vectorIS1_NS_9allocatorIS1_EEEENS_4lessIS1_EEE3topB6v15007Ev DATA
 0002:000100f0 00000008H .xdata$_ZNSt3__114priority_queueI4CellNS_6vectorIS1_NS_9allocatorIS1_EEEENS_4lessIS1_EEE3popEv DATA
 0002:000100f8 00000008H .xdata$_ZNSt3__114priority_queueI4CellNS_6vectorIS1_NS_9allocatorIS1_EEEENS_4lessIS1_EEED1Ev DATA
 0002:00010100 00000008H .xdata$_ZNSt3__15queueI5StateNS_5dequeIS1_NS_9allocatorIS1_EEEEEC1B6v15007Ev DATA
 0002:00010108 00000008H .xdata$_ZNSt3__15queueI5StateNS_5dequeIS1_NS_9allocatorIS1_EEEEE4pushB6v15007EOS1_ DATA
 0002:00010110 00000008H .xdata$_ZNSt3__16vectorINS0_IiNS_9allocatorIiEEEENS1_IS3_EEEC1ERKS5_ DATA
 0002:00010118 00000008H .xdata$_ZN5StateC1ENSt3__16vectorINS1_IiNS0_9allocatorIiEEEENS2_IS4_EEEEii DATA
 0002:00010120 00000008H .xdata$_ZN5StateD1Ev    DATA
 0002:00010128 00000008H .xdata$_ZNKSt3__15queueI5StateNS_5dequeIS1_NS_9allocatorIS1_EEEEE5emptyB6v15007Ev DATA
 0002:00010130 00000008H .xdata$_ZNSt3__15queueI5StateNS_5dequeIS1_NS_9allocatorIS1_EEEEE5frontB6v15007Ev DATA
 0002:00010138 00000008H .xdata$_ZN5StateC1ERKS_ DATA
 0002:00010140 00000008H .xdata$_ZNSt3__15queueI5StateNS_5dequeIS1_NS_9allocatorIS1_EEEEE3popB6v15007Ev DATA
 0002:00010148 00000008H .xdata$_ZNSt3__16vectorINS0_IiNS_9allocatorIiEEEENS1_IS3_EEEaSB6v15007ERKS5_ DATA
 0002:00010150 00000008H .xdata$_ZNSt3__1lsINS_11char_traitsIcEEEERNS_13basic_ostreamIcT_EES6_PKc DATA
 0002:00010158 00000008H .xdata$_ZNSt3__113basic_ostreamIcNS_11char_traitsIcEEElsB6v15007EPFRS3_S4_E DATA
 0002:00010160 00000008H .xdata$_ZNSt3__14endlIcNS_11char_traitsIcEEEERNS_13basic_ostreamIT_T0_EES7_ DATA
 0002:00010168 00000008H .xdata$_ZNSt3__15queueI5StateNS_5dequeIS1_NS_9allocatorIS1_EEEEED1Ev DATA
 0002:00010170 00000008H .xdata$_ZNSt3__16vectorINS_3setIiNS_4lessIiEENS_9allocatorIiEEEENS4_IS6_EEEC1Ey DATA
 0002:00010178 00000008H .xdata$_ZNSt3__16vectorINS0_INS_3setIiNS_4lessIiEENS_9allocatorIiEEEENS4_IS6_EEEENS4_IS8_EEEC1EyRKS8_ DATA
 0002:00010180 00000008H .xdata$_ZNSt3__16vectorINS_3setIiNS_4lessIiEENS_9allocatorIiEEEENS4_IS6_EEED1B6v15007Ev DATA
 0002:00010188 00000008H .xdata$_ZNSt3__16vectorINS0_INS_3setIiNS_4lessIiEENS_9allocatorIiEEEENS4_IS6_EEEENS4_IS8_EEED1B6v15007Ev DATA
 0002:00010190 00000008H .xdata$_ZNK6System13UnicodeString7IsEmptyEv DATA
 0002:00010198 00000008H .xdata$_ZN6TForm1D0Ev   DATA
 0002:000101a0 00000008H .xdata$_ZN3Vcl5Forms5TFormC3EPN6System7Classes10TComponentEi DATA
 0002:000101a8 00000008H .xdata$_ZN3Vcl5Forms5TFormC3EPN6System7Classes10TComponentEii DATA
 0002:000101b0 00000008H .xdata$_ZNSt3__112basic_stringIcNS_11char_traitsIcEENS_9allocatorIcEEEC1B6v15007IDnEEPKc DATA
 0002:000101b8 00000008H .xdata$_ZNSt3__112basic_stringIcNS_11char_traitsIcEENS_9allocatorIcEEEC2B6v15007IDnEEPKc DATA
 0002:000101c0 00000008H .xdata$_ZNSt3__117__compressed_pairINS_12basic_stringIcNS_11char_traitsIcEENS_9allocatorIcEEE5__repES5_EC1B6v15007INS_18__default_init_tagESA_EEOT_OT0_ DATA
 0002:000101c8 00000008H .xdata$_ZNSt3__111char_traitsIcE6lengthEPKc DATA
 0002:000101d0 00000008H .xdata$_ZNSt3__119__debug_db_insert_cB6v15007INS_12basic_stringIcNS_11char_traitsIcEENS_9allocatorIcEEEEEEvPT_ DATA
 0002:000101d8 00000008H .xdata$_ZNSt3__117__compressed_pairINS_12basic_stringIcNS_11char_traitsIcEENS_9allocatorIcEEE5__repES5_EC2B6v15007INS_18__default_init_tagESA_EEOT_OT0_ DATA
 0002:000101e0 00000008H .xdata$_ZNSt3__122__compressed_pair_elemINS_12basic_stringIcNS_11char_traitsIcEENS_9allocatorIcEEE5__repELi0ELb0EEC2B6v15007ENS_18__default_init_tagE DATA
 0002:000101e8 00000008H .xdata$_ZNSt3__122__compressed_pair_elemINS_9allocatorIcEELi1ELb1EEC2B6v15007ENS_18__default_init_tagE DATA
 0002:000101f0 00000008H .xdata$_ZNSt3__19allocatorIcEC2B6v15007Ev DATA
 0002:000101f8 00000008H .xdata$_ZNSt3__116__non_trivial_ifILb1ENS_9allocatorIcEEEC2B6v15007Ev DATA
 0002:00010200 00000008H .xdata$_ZNSt3__14pairIiiEC2B6v15007IRiS3_LPv0EEEOT_OT0_ DATA
 0002:00010208 00000008H .xdata$_ZNSt3__14pairIiiEC2B6v15007IiiLPv0EEEOT_OT0_ DATA
 0002:00010210 00000008H .xdata$_ZNSt3__114priority_queueI4CellNS_6vectorIS1_NS_9allocatorIS1_EEEENS_4lessIS1_EEED2Ev DATA
 0002:00010218 00000008H .xdata$_ZNSt3__16vectorI4CellNS_9allocatorIS1_EEED1B6v15007Ev DATA
 0002:00010220 00000020H .xdata$_ZNSt3__16vectorI4CellNS_9allocatorIS1_EEED2B6v15007Ev DATA
 0002:00010240 00000008H .xdata$_ZNSt3__16vectorI4CellNS_9allocatorIS1_EEE16__destroy_vectorC1ERS4_ DATA
 0002:00010248 00000008H .xdata$_ZNSt3__16vectorI4CellNS_9allocatorIS1_EEE16__destroy_vectorclB6v15007Ev DATA
 0002:00010250 00000008H .xdata$_ZNSt3__16vectorI4CellNS_9allocatorIS1_EEE16__destroy_vectorC2ERS4_ DATA
 0002:00010258 00000008H .xdata$_ZNKSt3__16vectorI4CellNS_9allocatorIS1_EEE17__annotate_deleteB6v15007Ev DATA
 0002:00010260 00000008H .xdata$_ZNSt3__118__debug_db_erase_cB6v15007INS_6vectorI4CellNS_9allocatorIS2_EEEEEEvPT_ DATA
 0002:00010268 00000008H .xdata$_ZNSt3__16vectorI4CellNS_9allocatorIS1_EEE7__clearB6v15007Ev DATA
 0002:00010270 00000008H .xdata$_ZNSt3__116allocator_traitsINS_9allocatorI4CellEEE10deallocateB6v15007ERS3_PS2_y DATA
 0002:00010278 00000008H .xdata$_ZNSt3__16vectorI4CellNS_9allocatorIS1_EEE7__allocB6v15007Ev DATA
 0002:00010280 00000008H .xdata$_ZNKSt3__16vectorI4CellNS_9allocatorIS1_EEE8capacityB6v15007Ev DATA
 0002:00010288 00000008H .xdata$_ZNKSt3__16vectorI4CellNS_9allocatorIS1_EEE31__annotate_contiguous_containerB6v15007EPKvS6_S6_S6_ DATA
 0002:00010290 00000008H .xdata$_ZNKSt3__16vectorI4CellNS_9allocatorIS1_EEE4dataB6v15007Ev DATA
 0002:00010298 00000008H .xdata$_ZNKSt3__16vectorI4CellNS_9allocatorIS1_EEE4sizeB6v15007Ev DATA
 0002:000102a0 00000008H .xdata$_ZNSt3__112__to_addressB6v15007I4CellEEPT_S3_ DATA
 0002:000102a8 00000020H .xdata$_ZNSt3__16vectorI4CellNS_9allocatorIS1_EEE22__base_destruct_at_endB6v15007EPS1_ DATA
 0002:000102c8 00000008H .xdata$_ZNSt3__116allocator_traitsINS_9allocatorI4CellEEE7destroyB6v15007IS2_vEEvRS3_PT_ DATA
 0002:000102d0 00000008H .xdata$_ZNSt3__19allocatorI4CellE7destroyB6v15007EPS1_ DATA
 0002:000102d8 00000020H .xdata$_ZNSt3__19allocatorI4CellE10deallocateB6v15007EPS1_y DATA
 0002:000102f8 00000008H .xdata$_ZNSt3__119__libcpp_deallocateB6v15007EPvyy DATA
 0002:00010300 00000008H .xdata$_ZNSt3__124__is_overaligned_for_newB6v15007Ey DATA
 0002:00010308 00000008H .xdata$_ZNSt3__127__do_deallocate_handle_sizeB6v15007IJSt11align_val_tEEEvPvyDpT_ DATA
 0002:00010310 00000008H .xdata$_ZNSt3__127__do_deallocate_handle_sizeB6v15007IJEEEvPvyDpT_ DATA
 0002:00010318 00000008H .xdata$_ZNSt3__124__libcpp_operator_deleteB6v15007IJPvSt11align_val_tEEEvDpT_ DATA
 0002:00010320 00000008H .xdata$_ZNSt3__124__libcpp_operator_deleteB6v15007IJPvEEEvDpT_ DATA
 0002:00010328 00000008H .xdata$_ZNSt3__117__compressed_pairIP4CellNS_9allocatorIS1_EEE6secondB6v15007Ev DATA
 0002:00010330 00000008H .xdata$_ZNSt3__122__compressed_pair_elemINS_9allocatorI4CellEELi1ELb1EE5__getB6v15007Ev DATA
 0002:00010338 00000008H .xdata$_ZNKSt3__16vectorI4CellNS_9allocatorIS1_EEE9__end_capB6v15007Ev DATA
 0002:00010340 00000008H .xdata$_ZNKSt3__117__compressed_pairIP4CellNS_9allocatorIS1_EEE5firstB6v15007Ev DATA
 0002:00010348 00000008H .xdata$_ZNKSt3__122__compressed_pair_elemIP4CellLi0ELb0EE5__getB6v15007Ev DATA
 0002:00010350 00000008H .xdata$_ZN5StateC2ENSt3__16vectorINS1_IiNS0_9allocatorIiEEEENS2_IS4_EEEEii DATA
 0002:00010358 00000008H .xdata$_ZN5StateD2Ev    DATA
 0002:00010360 00000008H .xdata$_ZN5StateC2ERKS_ DATA
 0002:00010368 00000008H .xdata$_ZNSt3__15queueI5StateNS_5dequeIS1_NS_9allocatorIS1_EEEEED2Ev DATA
 0002:00010370 00000008H .xdata$_ZNSt3__15dequeI5StateNS_9allocatorIS1_EEED1Ev DATA
 0002:00010378 00000008H .xdata$_ZNSt3__15dequeI5StateNS_9allocatorIS1_EEED2Ev DATA
 0002:00010380 00000020H .xdata$_ZNSt3__112__deque_baseI5StateNS_9allocatorIS1_EEED2Ev DATA
 0002:000103a0 00000024H .xdata$_ZNSt3__112__deque_baseI5StateNS_9allocatorIS1_EEE5clearEv DATA
 0002:000103c4 00000008H .xdata$_ZNSt3__114__split_bufferIP5StateNS_9allocatorIS2_EEE5beginB6v15007Ev DATA
 0002:000103cc 00000008H .xdata$_ZNSt3__114__split_bufferIP5StateNS_9allocatorIS2_EEE3endB6v15007Ev DATA
 0002:000103d4 00000008H .xdata$_ZNSt3__116allocator_traitsINS_9allocatorI5StateEEE10deallocateB6v15007ERS3_PS2_y DATA
 0002:000103dc 00000008H .xdata$_ZNSt3__112__deque_baseI5StateNS_9allocatorIS1_EEE7__allocB6v15007Ev DATA
 0002:000103e4 00000008H .xdata$_ZNSt3__114__split_bufferIP5StateNS_9allocatorIS2_EEED1Ev DATA
 0002:000103ec 00000020H .xdata$_ZNSt3__112__deque_baseI5StateNS_9allocatorIS1_EEE5beginEv DATA
 0002:0001040c 00000020H .xdata$_ZNSt3__112__deque_baseI5StateNS_9allocatorIS1_EEE3endEv DATA
 0002:0001042c 00000008H .xdata$_ZNSt3__1neB6v15007ERKNS_16__deque_iteratorI5StatePS1_RS1_PS2_xLx128EEES7_ DATA
 0002:00010434 00000008H .xdata$_ZNSt3__116allocator_traitsINS_9allocatorI5StateEEE7destroyB6v15007IS2_vEEvRS3_PT_ DATA
 0002:0001043c 00000008H .xdata$_ZNKSt3__116__deque_iteratorI5StatePS1_RS1_PS2_xLx128EEdeB6v15007Ev DATA
 0002:00010444 00000008H .xdata$_ZNSt3__116__deque_iteratorI5StatePS1_RS1_PS2_xLx128EEppB6v15007Ev DATA
 0002:0001044c 00000008H .xdata$_ZNSt3__112__deque_baseI5StateNS_9allocatorIS1_EEE4sizeB6v15007Ev DATA
 0002:00010454 00000008H .xdata$_ZNKSt3__114__split_bufferIP5StateNS_9allocatorIS2_EEE4sizeB6v15007Ev DATA
 0002:0001045c 00000008H .xdata$_ZNSt3__114__split_bufferIP5StateNS_9allocatorIS2_EEE5frontB6v15007Ev DATA
 0002:00010464 00000008H .xdata$_ZNSt3__114__split_bufferIP5StateNS_9allocatorIS2_EEE9pop_frontB6v15007Ev DATA
 0002:0001046c 00000008H .xdata$_ZNKSt3__114__split_bufferIP5StateNS_9allocatorIS2_EEE5emptyB6v15007Ev DATA
 0002:00010474 00000008H .xdata$_ZNSt3__116__deque_iteratorI5StatePS1_RS1_PS2_xLx128EEC1B6v15007ES4_S2_ DATA
 0002:0001047c 00000008H .xdata$_ZNSt3__116__deque_iteratorI5StatePS1_RS1_PS2_xLx128EEC2B6v15007ES4_S2_ DATA
 0002:00010484 00000008H .xdata$_ZNSt3__1eqB6v15007ERKNS_16__deque_iteratorI5StatePS1_RS1_PS2_xLx128EEES7_ DATA
 0002:0001048c 00000008H .xdata$_ZNSt3__19allocatorI5StateE7destroyB6v15007EPS1_ DATA
 0002:00010494 00000008H .xdata$_ZNSt3__117__compressed_pairIyNS_9allocatorI5StateEEE5firstB6v15007Ev DATA
 0002:0001049c 00000008H .xdata$_ZNSt3__122__compressed_pair_elemIyLi0ELb0EE5__getB6v15007Ev DATA
 0002:000104a4 00000008H .xdata$_ZNSt3__114__split_bufferIP5StateNS_9allocatorIS2_EEE19__destruct_at_beginB6v15007EPS2_ DATA
 0002:000104ac 00000008H .xdata$_ZNSt3__114__split_bufferIP5StateNS_9allocatorIS2_EEE19__destruct_at_beginEPS2_NS_17integral_constantIbLb1EEE DATA
 0002:000104b4 00000020H .xdata$_ZNSt3__19allocatorI5StateE10deallocateB6v15007EPS1_y DATA
 0002:000104d4 00000008H .xdata$_ZNSt3__117__compressed_pairIyNS_9allocatorI5StateEEE6secondB6v15007Ev DATA
 0002:000104dc 00000008H .xdata$_ZNSt3__122__compressed_pair_elemINS_9allocatorI5StateEELi1ELb1EE5__getB6v15007Ev DATA
 0002:000104e4 00000020H .xdata$_ZNSt3__114__split_bufferIP5StateNS_9allocatorIS2_EEED2Ev DATA
 0002:00010504 00000008H .xdata$_ZNSt3__114__split_bufferIP5StateNS_9allocatorIS2_EEE5clearB6v15007Ev DATA
 0002:0001050c 00000008H .xdata$_ZNSt3__116allocator_traitsINS_9allocatorIP5StateEEE10deallocateB6v15007ERS4_PS3_y DATA
 0002:00010514 00000008H .xdata$_ZNSt3__114__split_bufferIP5StateNS_9allocatorIS2_EEE7__allocB6v15007Ev DATA
 0002:0001051c 00000008H .xdata$_ZNKSt3__114__split_bufferIP5StateNS_9allocatorIS2_EEE8capacityB6v15007Ev DATA
 0002:00010524 00000008H .xdata$_ZNSt3__114__split_bufferIP5StateNS_9allocatorIS2_EEE17__destruct_at_endB6v15007EPS2_ DATA
 0002:0001052c 00000020H .xdata$_ZNSt3__114__split_bufferIP5StateNS_9allocatorIS2_EEE17__destruct_at_endB6v15007EPS2_NS_17integral_constantIbLb0EEE DATA
 0002:0001054c 00000008H .xdata$_ZNSt3__116allocator_traitsINS_9allocatorIP5StateEEE7destroyB6v15007IS3_vEEvRS4_PT_ DATA
 0002:00010554 00000008H .xdata$_ZNSt3__112__to_addressB6v15007IP5StateEEPT_S4_ DATA
 0002:0001055c 00000008H .xdata$_ZNSt3__19allocatorIP5StateE7destroyB6v15007EPS2_ DATA
 0002:00010564 00000020H .xdata$_ZNSt3__19allocatorIP5StateE10deallocateB6v15007EPS2_y DATA
 0002:00010584 00000008H .xdata$_ZNSt3__117__compressed_pairIPP5StateNS_9allocatorIS2_EEE6secondB6v15007Ev DATA
 0002:0001058c 00000008H .xdata$_ZNSt3__122__compressed_pair_elemINS_9allocatorIP5StateEELi1ELb1EE5__getB6v15007Ev DATA
 0002:00010594 00000008H .xdata$_ZNKSt3__114__split_bufferIP5StateNS_9allocatorIS2_EEE9__end_capB6v15007Ev DATA
 0002:0001059c 00000008H .xdata$_ZNKSt3__117__compressed_pairIPP5StateNS_9allocatorIS2_EEE5firstB6v15007Ev DATA
 0002:000105a4 00000008H .xdata$_ZNKSt3__122__compressed_pair_elemIPP5StateLi0ELb0EE5__getB6v15007Ev DATA
 0002:000105ac 00000008H .xdata$_ZNKSt3__112basic_stringIcNS_11char_traitsIcEENS_9allocatorIcEEE4dataB6v15007Ev DATA
 0002:000105b4 00000008H .xdata$_ZNSt3__112__to_addressB6v15007IKcEEPT_S3_ DATA
 0002:000105bc 00000008H .xdata$_ZNKSt3__112basic_stringIcNS_11char_traitsIcEENS_9allocatorIcEEE13__get_pointerB6v15007Ev DATA
 0002:000105c4 00000008H .xdata$_ZNKSt3__112basic_stringIcNS_11char_traitsIcEENS_9allocatorIcEEE9__is_longB6v15007Ev DATA
 0002:000105cc 00000008H .xdata$_ZNKSt3__112basic_stringIcNS_11char_traitsIcEENS_9allocatorIcEEE18__get_long_pointerB6v15007Ev DATA
 0002:000105d4 00000008H .xdata$_ZNKSt3__112basic_stringIcNS_11char_traitsIcEENS_9allocatorIcEEE19__get_short_pointerB6v15007Ev DATA
 0002:000105dc 00000008H .xdata$_ZNKSt3__117__compressed_pairINS_12basic_stringIcNS_11char_traitsIcEENS_9allocatorIcEEE5__repES5_E5firstB6v15007Ev DATA
 0002:000105e4 00000008H .xdata$_ZNKSt3__122__compressed_pair_elemINS_12basic_stringIcNS_11char_traitsIcEENS_9allocatorIcEEE5__repELi0ELb0EE5__getB6v15007Ev DATA
 0002:000105ec 00000008H .xdata$_ZNSt3__114pointer_traitsIPKcE10pointer_toB6v15007ERS1_ DATA
 0002:000105f4 00000044H .xdata$_ZNSt3__124__put_character_sequenceIcNS_11char_traitsIcEEEERNS_13basic_ostreamIT_T0_EES7_PKS4_y DATA
 0002:00010638 00000008H .xdata$_ZNSt3__113basic_ostreamIcNS_11char_traitsIcEEE6sentryC1ERS3_ DATA
 0002:00010640 00000008H .xdata$_ZNKSt3__113basic_ostreamIcNS_11char_traitsIcEEE6sentrycvbB6v15007Ev DATA
 0002:00010648 00000024H .xdata$_ZNSt3__116__pad_and_outputIcNS_11char_traitsIcEEEENS_19ostreambuf_iteratorIT_T0_EES6_PKS4_S8_S8_RNS_8ios_baseES4_ DATA
 0002:0001066c 00000008H .xdata$_ZNSt3__119ostreambuf_iteratorIcNS_11char_traitsIcEEEC1B6v15007ERNS_13basic_ostreamIcS2_EE DATA
 0002:00010674 00000008H .xdata$_ZNKSt3__18ios_base5flagsB6v15007Ev DATA
 0002:0001067c 00000008H .xdata$_ZNKSt3__19basic_iosIcNS_11char_traitsIcEEE4fillB6v15007Ev DATA
 0002:00010684 00000008H .xdata$_ZNKSt3__119ostreambuf_iteratorIcNS_11char_traitsIcEEE6failedB6v15007Ev DATA
 0002:0001068c 00000008H .xdata$_ZNSt3__19basic_iosIcNS_11char_traitsIcEEE8setstateB6v15007Ej DATA
 0002:00010694 00000008H .xdata$_ZNSt3__113basic_ostreamIcNS_11char_traitsIcEEE6sentryD1Ev DATA
 0002:0001069c 00000008H .xdata$_ZNSt3__113basic_ostreamIcNS_11char_traitsIcEEE6sentryC2ERS3_ DATA
 0002:000106a4 00000008H .xdata$_ZNKSt3__19basic_iosIcNS_11char_traitsIcEEE4goodB6v15007Ev DATA
 0002:000106ac 00000008H .xdata$_ZNKSt3__19basic_iosIcNS_11char_traitsIcEEE3tieB6v15007Ev DATA
 0002:000106b4 00000008H .xdata$_ZNKSt3__18ios_base4goodB6v15007Ev DATA
 0002:000106bc 00000008H .xdata$_ZNKSt3__18ios_base5widthB6v15007Ev DATA
 0002:000106c4 00000008H .xdata$_ZNSt3__115basic_streambufIcNS_11char_traitsIcEEE5sputnB6v15007EPKcx DATA
 0002:000106cc 00000008H .xdata$_ZNSt3__112basic_stringIcNS_11char_traitsIcEENS_9allocatorIcEEEC1B6v15007Eyc DATA
 0002:000106d4 00000008H .xdata$_ZNSt3__112basic_stringIcNS_11char_traitsIcEENS_9allocatorIcEEE4dataB6v15007Ev DATA
 0002:000106dc 00000008H .xdata$_ZNSt3__18ios_base5widthB6v15007Ex DATA
 0002:000106e4 00000008H .xdata$_ZNSt3__112basic_stringIcNS_11char_traitsIcEENS_9allocatorIcEEEC2B6v15007Eyc DATA
 0002:000106ec 00000008H .xdata$_ZNSt3__112__to_addressB6v15007IcEEPT_S2_ DATA
 0002:000106f4 00000008H .xdata$_ZNSt3__112basic_stringIcNS_11char_traitsIcEENS_9allocatorIcEEE13__get_pointerB6v15007Ev DATA
 0002:000106fc 00000008H .xdata$_ZNSt3__112basic_stringIcNS_11char_traitsIcEENS_9allocatorIcEEE18__get_long_pointerB6v15007Ev DATA
 0002:00010704 00000008H .xdata$_ZNSt3__112basic_stringIcNS_11char_traitsIcEENS_9allocatorIcEEE19__get_short_pointerB6v15007Ev DATA
 0002:0001070c 00000008H .xdata$_ZNSt3__117__compressed_pairINS_12basic_stringIcNS_11char_traitsIcEENS_9allocatorIcEEE5__repES5_E5firstB6v15007Ev DATA
 0002:00010714 00000008H .xdata$_ZNSt3__122__compressed_pair_elemINS_12basic_stringIcNS_11char_traitsIcEENS_9allocatorIcEEE5__repELi0ELb0EE5__getB6v15007Ev DATA
 0002:0001071c 00000008H .xdata$_ZNSt3__114pointer_traitsIPcE10pointer_toB6v15007ERc DATA
 0002:00010724 00000020H .xdata$_ZNSt3__119ostreambuf_iteratorIcNS_11char_traitsIcEEEC2B6v15007ERNS_13basic_ostreamIcS2_EE DATA
 0002:00010744 00000008H .xdata$_ZNKSt3__19basic_iosIcNS_11char_traitsIcEEE5rdbufB6v15007Ev DATA
 0002:0001074c 00000008H .xdata$_ZNKSt3__18ios_base5rdbufB6v15007Ev DATA
 0002:00010754 00000008H .xdata$_ZNSt3__111char_traitsIcE11eq_int_typeEii DATA
 0002:0001075c 0000001cH .xdata$_ZNKSt3__19basic_iosIcNS_11char_traitsIcEEE5widenB6v15007Ec DATA
 0002:00010778 00000008H .xdata$_ZNSt3__19use_facetB6v15007INS_5ctypeIcEEEERKT_RKNS_6localeE DATA
 0002:00010780 00000008H .xdata$_ZNKSt3__15ctypeIcE5widenB6v15007Ec DATA
 0002:00010788 00000008H .xdata$_ZNSt3__18ios_base8setstateB6v15007Ej DATA
 0002:00010790 00000034H .xdata$_ZNSt3__113basic_ostreamIcNS_11char_traitsIcEEE6sentryD2Ev DATA
 0002:000107c4 00000008H .xdata$_ZNSt3__115basic_streambufIcNS_11char_traitsIcEEE7pubsyncB6v15007Ev DATA
 0002:000107cc 00000020H .xdata$_ZNSt3__16vectorINS0_IiNS_9allocatorIiEEEENS1_IS3_EEEC2B6v15007Ev DATA
 0002:000107ec 00000008H .xdata$_ZNSt3__117__compressed_pairIPNS_6vectorIiNS_9allocatorIiEEEENS2_IS4_EEEC1B6v15007IDnNS_18__default_init_tagEEEOT_OT0_ DATA
 0002:000107f4 00000008H .xdata$_ZNSt3__119__debug_db_insert_cB6v15007INS_6vectorINS1_IiNS_9allocatorIiEEEENS2_IS4_EEEEEEvPT_ DATA
 0002:000107fc 00000008H .xdata$_ZNSt3__117__compressed_pairIPNS_6vectorIiNS_9allocatorIiEEEENS2_IS4_EEEC2B6v15007IDnNS_18__default_init_tagEEEOT_OT0_ DATA
 0002:00010804 00000008H .xdata$_ZNSt3__122__compressed_pair_elemIPNS_6vectorIiNS_9allocatorIiEEEELi0ELb0EEC2B6v15007IDnvEEOT_ DATA
 0002:0001080c 00000008H .xdata$_ZNSt3__122__compressed_pair_elemINS_9allocatorINS_6vectorIiNS1_IiEEEEEELi1ELb1EEC2B6v15007ENS_18__default_init_tagE DATA
 0002:00010814 00000008H .xdata$_ZNSt3__19allocatorINS_6vectorIiNS0_IiEEEEEC2B6v15007Ev DATA
 0002:0001081c 00000008H .xdata$_ZNSt3__116__non_trivial_ifILb1ENS_9allocatorINS_6vectorIiNS1_IiEEEEEEEC2B6v15007Ev DATA
 0002:00010824 00000020H .xdata$_ZNSt3__16vectorINS0_IiNS_9allocatorIiEEEENS1_IS3_EEED2B6v15007Ev DATA
 0002:00010844 00000008H .xdata$_ZNSt3__16vectorINS0_IiNS_9allocatorIiEEEENS1_IS3_EEE16__destroy_vectorC1ERS5_ DATA
 0002:0001084c 00000008H .xdata$_ZNSt3__16vectorINS0_IiNS_9allocatorIiEEEENS1_IS3_EEE16__destroy_vectorclB6v15007Ev DATA
 0002:00010854 00000008H .xdata$_ZNSt3__16vectorINS0_IiNS_9allocatorIiEEEENS1_IS3_EEE16__destroy_vectorC2ERS5_ DATA
 0002:0001085c 00000008H .xdata$_ZNKSt3__16vectorINS0_IiNS_9allocatorIiEEEENS1_IS3_EEE17__annotate_deleteB6v15007Ev DATA
 0002:00010864 00000008H .xdata$_ZNSt3__118__debug_db_erase_cB6v15007INS_6vectorINS1_IiNS_9allocatorIiEEEENS2_IS4_EEEEEEvPT_ DATA
 0002:0001086c 00000008H .xdata$_ZNSt3__16vectorINS0_IiNS_9allocatorIiEEEENS1_IS3_EEE7__clearB6v15007Ev DATA
 0002:00010874 00000008H .xdata$_ZNSt3__116allocator_traitsINS_9allocatorINS_6vectorIiNS1_IiEEEEEEE10deallocateB6v15007ERS5_PS4_y DATA
 0002:0001087c 00000008H .xdata$_ZNSt3__16vectorINS0_IiNS_9allocatorIiEEEENS1_IS3_EEE7__allocB6v15007Ev DATA
 0002:00010884 00000008H .xdata$_ZNKSt3__16vectorINS0_IiNS_9allocatorIiEEEENS1_IS3_EEE8capacityB6v15007Ev DATA
 0002:0001088c 00000008H .xdata$_ZNKSt3__16vectorINS0_IiNS_9allocatorIiEEEENS1_IS3_EEE31__annotate_contiguous_containerB6v15007EPKvS7_S7_S7_ DATA
 0002:00010894 00000008H .xdata$_ZNKSt3__16vectorINS0_IiNS_9allocatorIiEEEENS1_IS3_EEE4dataB6v15007Ev DATA
 0002:0001089c 00000008H .xdata$_ZNKSt3__16vectorINS0_IiNS_9allocatorIiEEEENS1_IS3_EEE4sizeB6v15007Ev DATA
 0002:000108a4 00000008H .xdata$_ZNSt3__112__to_addressB6v15007INS_6vectorIiNS_9allocatorIiEEEEEEPT_S6_ DATA
 0002:000108ac 00000020H .xdata$_ZNSt3__16vectorINS0_IiNS_9allocatorIiEEEENS1_IS3_EEE22__base_destruct_at_endB6v15007EPS3_ DATA
 0002:000108cc 00000008H .xdata$_ZNSt3__116allocator_traitsINS_9allocatorINS_6vectorIiNS1_IiEEEEEEE7destroyB6v15007IS4_vEEvRS5_PT_ DATA
 0002:000108d4 00000008H .xdata$_ZNSt3__19allocatorINS_6vectorIiNS0_IiEEEEE7destroyB6v15007EPS3_ DATA
 0002:000108dc 00000020H .xdata$_ZNSt3__19allocatorINS_6vectorIiNS0_IiEEEEE10deallocateB6v15007EPS3_y DATA
 0002:000108fc 00000008H .xdata$_ZNSt3__117__compressed_pairIPNS_6vectorIiNS_9allocatorIiEEEENS2_IS4_EEE6secondB6v15007Ev DATA
 0002:00010904 00000008H .xdata$_ZNSt3__122__compressed_pair_elemINS_9allocatorINS_6vectorIiNS1_IiEEEEEELi1ELb1EE5__getB6v15007Ev DATA
 0002:0001090c 00000008H .xdata$_ZNKSt3__16vectorINS0_IiNS_9allocatorIiEEEENS1_IS3_EEE9__end_capB6v15007Ev DATA
 0002:00010914 00000008H .xdata$_ZNKSt3__117__compressed_pairIPNS_6vectorIiNS_9allocatorIiEEEENS2_IS4_EEE5firstB6v15007Ev DATA
 0002:0001091c 00000008H .xdata$_ZNKSt3__122__compressed_pair_elemIPNS_6vectorIiNS_9allocatorIiEEEELi0ELb0EE5__getB6v15007Ev DATA
 0002:00010924 00000020H .xdata$_ZNSt3__16vectorIiNS_9allocatorIiEEEC2EyRKi DATA
 0002:00010944 00000008H .xdata$_ZNSt3__117__compressed_pairIPiNS_9allocatorIiEEEC1B6v15007IDnNS_18__default_init_tagEEEOT_OT0_ DATA
 0002:0001094c 00000008H .xdata$_ZNSt3__118__make_transactionB6v15007INS_6vectorIiNS_9allocatorIiEEE16__destroy_vectorEEENS_13__transactionIT_EES7_ DATA
 0002:00010954 00000008H .xdata$_ZNSt3__16vectorIiNS_9allocatorIiEEE16__destroy_vectorC1ERS3_ DATA
 0002:0001095c 00000008H .xdata$_ZNSt3__119__debug_db_insert_cB6v15007INS_6vectorIiNS_9allocatorIiEEEEEEvPT_ DATA
 0002:00010964 00000008H .xdata$_ZNSt3__16vectorIiNS_9allocatorIiEEE11__vallocateB6v15007Ey DATA
 0002:0001096c 00000020H .xdata$_ZNSt3__16vectorIiNS_9allocatorIiEEE18__construct_at_endEyRKi DATA
 0002:0001098c 00000008H .xdata$_ZNSt3__113__transactionINS_6vectorIiNS_9allocatorIiEEE16__destroy_vectorEE10__completeB6v15007Ev DATA
 0002:00010994 00000008H .xdata$_ZNSt3__113__transactionINS_6vectorIiNS_9allocatorIiEEE16__destroy_vectorEED1B6v15007Ev DATA
 0002:0001099c 00000008H .xdata$_ZNSt3__117__compressed_pairIPiNS_9allocatorIiEEEC2B6v15007IDnNS_18__default_init_tagEEEOT_OT0_ DATA
 0002:000109a4 00000008H .xdata$_ZNSt3__122__compressed_pair_elemIPiLi0ELb0EEC2B6v15007IDnvEEOT_ DATA
 0002:000109ac 00000008H .xdata$_ZNSt3__122__compressed_pair_elemINS_9allocatorIiEELi1ELb1EEC2B6v15007ENS_18__default_init_tagE DATA
 0002:000109b4 00000008H .xdata$_ZNSt3__19allocatorIiEC2B6v15007Ev DATA
 0002:000109bc 00000008H .xdata$_ZNSt3__116__non_trivial_ifILb1ENS_9allocatorIiEEEC2B6v15007Ev DATA
 0002:000109c4 00000008H .xdata$_ZNSt3__113__transactionINS_6vectorIiNS_9allocatorIiEEE16__destroy_vectorEEC1B6v15007ES5_ DATA
 0002:000109cc 00000008H .xdata$_ZNSt3__113__transactionINS_6vectorIiNS_9allocatorIiEEE16__destroy_vectorEEC2B6v15007ES5_ DATA
 0002:000109d4 00000008H .xdata$_ZNSt3__16vectorIiNS_9allocatorIiEEE16__destroy_vectorC2ERS3_ DATA
 0002:000109dc 00000020H .xdata$_ZNKSt3__16vectorIiNS_9allocatorIiEEE8max_sizeEv DATA
 0002:000109fc 00000008H .xdata$_ZNKSt3__16vectorIiNS_9allocatorIiEEE20__throw_length_errorB6v15007Ev DATA
 0002:00010a04 00000008H .xdata$_ZNSt3__119__allocate_at_leastB6v15007INS_9allocatorIiEEEENS_19__allocation_resultINS_16allocator_traitsIT_E7pointerEEERS5_y DATA
 0002:00010a0c 00000008H .xdata$_ZNSt3__16vectorIiNS_9allocatorIiEEE7__allocB6v15007Ev DATA
 0002:00010a14 00000008H .xdata$_ZNSt3__16vectorIiNS_9allocatorIiEEE9__end_capB6v15007Ev DATA
 0002:00010a1c 00000008H .xdata$_ZNKSt3__16vectorIiNS_9allocatorIiEEE14__annotate_newB6v15007Ey DATA
 0002:00010a24 00000008H .xdata$_ZNSt3__13minB6v15007IyEERKT_S3_S3_ DATA
 0002:00010a2c 00000008H .xdata$_ZNSt3__116allocator_traitsINS_9allocatorIiEEE8max_sizeB6v15007IS2_vEEyRKS2_ DATA
 0002:00010a34 00000008H .xdata$_ZNKSt3__16vectorIiNS_9allocatorIiEEE7__allocB6v15007Ev DATA
 0002:00010a3c 00000008H .xdata$_ZNSt3__114numeric_limitsIxE3maxB6v15007Ev DATA
 0002:00010a44 00000008H .xdata$_ZNSt3__13minB6v15007IyNS_6__lessIyyEEEERKT_S5_S5_T0_ DATA
 0002:00010a4c 00000008H .xdata$_ZNKSt3__16__lessIyyEclB6v15007ERKyS3_ DATA
 0002:00010a54 00000008H .xdata$_ZNKSt3__19allocatorIiE8max_sizeB6v15007Ev DATA
 0002:00010a5c 00000008H .xdata$_ZNKSt3__117__compressed_pairIPiNS_9allocatorIiEEE6secondB6v15007Ev DATA
 0002:00010a64 00000008H .xdata$_ZNKSt3__122__compressed_pair_elemINS_9allocatorIiEELi1ELb1EE5__getB6v15007Ev DATA
 0002:00010a6c 0000001cH .xdata$_ZNSt3__120__throw_length_errorB6v15007EPKc DATA
 0002:00010a88 00000008H .xdata$_ZNSt12length_errorC1B6v15007EPKc DATA
 0002:00010a90 00000008H .xdata$_ZNSt12length_errorC2B6v15007EPKc DATA
 0002:00010a98 00000008H .xdata$_ZNSt3__19allocatorIiE8allocateB6v15007Ey DATA
 0002:00010aa0 00000008H .xdata$_ZSt28__throw_bad_array_new_lengthB6v15007v DATA
 0002:00010aa8 00000008H .xdata$_ZNSt3__117__libcpp_allocateB6v15007Eyy DATA
 0002:00010ab0 00000008H .xdata$_ZNSt3__121__libcpp_operator_newB6v15007IJySt11align_val_tEEEPvDpT_ DATA
 0002:00010ab8 00000008H .xdata$_ZNSt3__121__libcpp_operator_newB6v15007IJyEEEPvDpT_ DATA
 0002:00010ac0 00000008H .xdata$_ZNSt3__117__compressed_pairIPiNS_9allocatorIiEEE6secondB6v15007Ev DATA
 0002:00010ac8 00000008H .xdata$_ZNSt3__122__compressed_pair_elemINS_9allocatorIiEELi1ELb1EE5__getB6v15007Ev DATA
 0002:00010ad0 00000008H .xdata$_ZNSt3__117__compressed_pairIPiNS_9allocatorIiEEE5firstB6v15007Ev DATA
 0002:00010ad8 00000008H .xdata$_ZNSt3__122__compressed_pair_elemIPiLi0ELb0EE5__getB6v15007Ev DATA
 0002:00010ae0 00000008H .xdata$_ZNKSt3__16vectorIiNS_9allocatorIiEEE31__annotate_contiguous_containerB6v15007EPKvS5_S5_S5_ DATA
 0002:00010ae8 00000008H .xdata$_ZNKSt3__16vectorIiNS_9allocatorIiEEE4dataB6v15007Ev DATA
 0002:00010af0 00000008H .xdata$_ZNKSt3__16vectorIiNS_9allocatorIiEEE8capacityB6v15007Ev DATA
 0002:00010af8 00000008H .xdata$_ZNSt3__112__to_addressB6v15007IiEEPT_S2_ DATA
 0002:00010b00 00000008H .xdata$_ZNKSt3__16vectorIiNS_9allocatorIiEEE9__end_capB6v15007Ev DATA
 0002:00010b08 00000008H .xdata$_ZNKSt3__117__compressed_pairIPiNS_9allocatorIiEEE5firstB6v15007Ev DATA
 0002:00010b10 00000008H .xdata$_ZNKSt3__122__compressed_pair_elemIPiLi0ELb0EE5__getB6v15007Ev DATA
 0002:00010b18 00000008H .xdata$_ZNSt3__16vectorIiNS_9allocatorIiEEE21_ConstructTransactionC1ERS3_y DATA
 0002:00010b20 00000008H .xdata$_ZNSt3__116allocator_traitsINS_9allocatorIiEEE9constructB6v15007IiJRKiEvEEvRS2_PT_DpOT0_ DATA
 0002:00010b28 00000008H .xdata$_ZNSt3__16vectorIiNS_9allocatorIiEEE21_ConstructTransactionD1Ev DATA
 0002:00010b30 00000008H .xdata$_ZNSt3__16vectorIiNS_9allocatorIiEEE21_ConstructTransactionC2ERS3_y DATA
 0002:00010b38 00000008H .xdata$_ZNSt3__19allocatorIiE9constructB6v15007IiJRKiEEEvPT_DpOT0_ DATA
 0002:00010b40 00000008H .xdata$_ZNSt3__16vectorIiNS_9allocatorIiEEE21_ConstructTransactionD2Ev DATA
 0002:00010b48 00000020H .xdata$_ZNSt3__113__transactionINS_6vectorIiNS_9allocatorIiEEE16__destroy_vectorEED2B6v15007Ev DATA
 0002:00010b68 00000008H .xdata$_ZNSt3__16vectorIiNS_9allocatorIiEEE16__destroy_vectorclB6v15007Ev DATA
 0002:00010b70 00000008H .xdata$_ZNKSt3__16vectorIiNS_9allocatorIiEEE17__annotate_deleteB6v15007Ev DATA
 0002:00010b78 00000008H .xdata$_ZNSt3__118__debug_db_erase_cB6v15007INS_6vectorIiNS_9allocatorIiEEEEEEvPT_ DATA
 0002:00010b80 00000008H .xdata$_ZNSt3__16vectorIiNS_9allocatorIiEEE7__clearB6v15007Ev DATA
 0002:00010b88 00000008H .xdata$_ZNSt3__116allocator_traitsINS_9allocatorIiEEE10deallocateB6v15007ERS2_Piy DATA
 0002:00010b90 00000008H .xdata$_ZNKSt3__16vectorIiNS_9allocatorIiEEE4sizeB6v15007Ev DATA
 0002:00010b98 00000020H .xdata$_ZNSt3__16vectorIiNS_9allocatorIiEEE22__base_destruct_at_endB6v15007EPi DATA
 0002:00010bb8 00000008H .xdata$_ZNSt3__116allocator_traitsINS_9allocatorIiEEE7destroyB6v15007IivEEvRS2_PT_ DATA
 0002:00010bc0 00000008H .xdata$_ZNSt3__19allocatorIiE7destroyB6v15007EPi DATA
 0002:00010bc8 00000020H .xdata$_ZNSt3__19allocatorIiE10deallocateB6v15007EPiy DATA
 0002:00010be8 00000020H .xdata$_ZNSt3__16vectorIiNS_9allocatorIiEEED2B6v15007Ev DATA
 0002:00010c08 00000020H .xdata$_ZNSt3__16vectorINS0_IiNS_9allocatorIiEEEENS1_IS3_EEEC2EyRKS3_ DATA
 0002:00010c28 00000008H .xdata$_ZNSt3__118__make_transactionB6v15007INS_6vectorINS1_IiNS_9allocatorIiEEEENS2_IS4_EEE16__destroy_vectorEEENS_13__transactionIT_EES9_ DATA
 0002:00010c30 00000008H .xdata$_ZNSt3__16vectorINS0_IiNS_9allocatorIiEEEENS1_IS3_EEE11__vallocateB6v15007Ey DATA
 0002:00010c38 00000020H .xdata$_ZNSt3__16vectorINS0_IiNS_9allocatorIiEEEENS1_IS3_EEE18__construct_at_endEyRKS3_ DATA
 0002:00010c58 00000008H .xdata$_ZNSt3__113__transactionINS_6vectorINS1_IiNS_9allocatorIiEEEENS2_IS4_EEE16__destroy_vectorEE10__completeB6v15007Ev DATA
 0002:00010c60 00000008H .xdata$_ZNSt3__113__transactionINS_6vectorINS1_IiNS_9allocatorIiEEEENS2_IS4_EEE16__destroy_vectorEED1B6v15007Ev DATA
 0002:00010c68 00000008H .xdata$_ZNSt3__113__transactionINS_6vectorINS1_IiNS_9allocatorIiEEEENS2_IS4_EEE16__destroy_vectorEEC1B6v15007ES7_ DATA
 0002:00010c70 00000008H .xdata$_ZNSt3__113__transactionINS_6vectorINS1_IiNS_9allocatorIiEEEENS2_IS4_EEE16__destroy_vectorEEC2B6v15007ES7_ DATA
 0002:00010c78 00000020H .xdata$_ZNKSt3__16vectorINS0_IiNS_9allocatorIiEEEENS1_IS3_EEE8max_sizeEv DATA
 0002:00010c98 00000008H .xdata$_ZNKSt3__16vectorINS0_IiNS_9allocatorIiEEEENS1_IS3_EEE20__throw_length_errorB6v15007Ev DATA
 0002:00010ca0 00000008H .xdata$_ZNSt3__119__allocate_at_leastB6v15007INS_9allocatorINS_6vectorIiNS1_IiEEEEEEEENS_19__allocation_resultINS_16allocator_traitsIT_E7pointerEEERS8_y DATA
 0002:00010ca8 00000008H .xdata$_ZNSt3__16vectorINS0_IiNS_9allocatorIiEEEENS1_IS3_EEE9__end_capB6v15007Ev DATA
 0002:00010cb0 00000008H .xdata$_ZNKSt3__16vectorINS0_IiNS_9allocatorIiEEEENS1_IS3_EEE14__annotate_newB6v15007Ey DATA
 0002:00010cb8 00000008H .xdata$_ZNSt3__116allocator_traitsINS_9allocatorINS_6vectorIiNS1_IiEEEEEEE8max_sizeB6v15007IS5_vEEyRKS5_ DATA
 0002:00010cc0 00000008H .xdata$_ZNKSt3__16vectorINS0_IiNS_9allocatorIiEEEENS1_IS3_EEE7__allocB6v15007Ev DATA
 0002:00010cc8 00000008H .xdata$_ZNKSt3__19allocatorINS_6vectorIiNS0_IiEEEEE8max_sizeB6v15007Ev DATA
 0002:00010cd0 00000008H .xdata$_ZNKSt3__117__compressed_pairIPNS_6vectorIiNS_9allocatorIiEEEENS2_IS4_EEE6secondB6v15007Ev DATA
 0002:00010cd8 00000008H .xdata$_ZNKSt3__122__compressed_pair_elemINS_9allocatorINS_6vectorIiNS1_IiEEEEEELi1ELb1EE5__getB6v15007Ev DATA
 0002:00010ce0 00000008H .xdata$_ZNSt3__19allocatorINS_6vectorIiNS0_IiEEEEE8allocateB6v15007Ey DATA
 0002:00010ce8 00000008H .xdata$_ZNSt3__117__compressed_pairIPNS_6vectorIiNS_9allocatorIiEEEENS2_IS4_EEE5firstB6v15007Ev DATA
 0002:00010cf0 00000008H .xdata$_ZNSt3__122__compressed_pair_elemIPNS_6vectorIiNS_9allocatorIiEEEELi0ELb0EE5__getB6v15007Ev DATA
 0002:00010cf8 00000008H .xdata$_ZNSt3__16vectorINS0_IiNS_9allocatorIiEEEENS1_IS3_EEE21_ConstructTransactionC1ERS5_y DATA
 0002:00010d00 00000008H .xdata$_ZNSt3__116allocator_traitsINS_9allocatorINS_6vectorIiNS1_IiEEEEEEE9constructB6v15007IS4_JRKS4_EvEEvRS5_PT_DpOT0_ DATA
 0002:00010d08 00000008H .xdata$_ZNSt3__16vectorINS0_IiNS_9allocatorIiEEEENS1_IS3_EEE21_ConstructTransactionD1Ev DATA
 0002:00010d10 00000008H .xdata$_ZNSt3__16vectorINS0_IiNS_9allocatorIiEEEENS1_IS3_EEE21_ConstructTransactionC2ERS5_y DATA
 0002:00010d18 00000008H .xdata$_ZNSt3__19allocatorINS_6vectorIiNS0_IiEEEEE9constructB6v15007IS3_JRKS3_EEEvPT_DpOT0_ DATA
 0002:00010d20 00000008H .xdata$_ZNSt3__16vectorIiNS_9allocatorIiEEEC1ERKS3_ DATA
 0002:00010d28 00000020H .xdata$_ZNSt3__16vectorIiNS_9allocatorIiEEEC2ERKS3_ DATA
 0002:00010d48 00000008H .xdata$_ZNSt3__116allocator_traitsINS_9allocatorIiEEE37select_on_container_copy_constructionB6v15007IS2_vvEES2_RKS2_ DATA
 0002:00010d50 00000008H .xdata$_ZNSt3__117__compressed_pairIPiNS_9allocatorIiEEEC1B6v15007IDnS3_EEOT_OT0_ DATA
 0002:00010d58 0000001cH .xdata$_ZNSt3__16vectorIiNS_9allocatorIiEEE18__construct_at_endIPiEENS_9enable_ifIXsr27__is_cpp17_forward_iteratorIT_EE5valueEvE4typeES7_S7_y DATA
 0002:00010d74 00000008H .xdata$_ZNSt3__117__compressed_pairIPiNS_9allocatorIiEEEC2B6v15007IDnS3_EEOT_OT0_ DATA
 0002:00010d7c 00000008H .xdata$_ZNSt3__122__compressed_pair_elemINS_9allocatorIiEELi1ELb1EEC2B6v15007IS2_vEEOT_ DATA
 0002:00010d84 00000034H .xdata$_ZNSt3__130__uninitialized_allocator_copyB6v15007INS_9allocatorIiEEPiS3_S3_EET2_RT_T0_T1_S4_ DATA
 0002:00010db8 00000008H .xdata$_ZNSt3__116allocator_traitsINS_9allocatorIiEEE9constructB6v15007IiJRiEvEEvRS2_PT_DpOT0_ DATA
 0002:00010dc0 00000008H .xdata$_ZNSt3__129_AllocatorDestroyRangeReverseINS_9allocatorIiEEPiEC1B6v15007ERS2_RS3_S6_ DATA
 0002:00010dc8 00000008H .xdata$_ZNKSt3__129_AllocatorDestroyRangeReverseINS_9allocatorIiEEPiEclB6v15007Ev DATA
 0002:00010dd0 00000008H .xdata$_ZNSt3__19allocatorIiE9constructB6v15007IiJRiEEEvPT_DpOT0_ DATA
 0002:00010dd8 00000008H .xdata$_ZNSt3__129_AllocatorDestroyRangeReverseINS_9allocatorIiEEPiEC2B6v15007ERS2_RS3_S6_ DATA
 0002:00010de0 00000008H .xdata$_ZNSt3__119__allocator_destroyB6v15007INS_9allocatorIiEENS_16reverse_iteratorIPiEES5_EEvRT_T0_T1_ DATA
 0002:00010de8 00000008H .xdata$_ZNSt3__116reverse_iteratorIPiEC1B6v15007ES1_ DATA
 0002:00010df0 00000008H .xdata$_ZNSt3__1neB6v15007IPiS1_EEbRKNS_16reverse_iteratorIT_EERKNS2_IT0_EE DATA
 0002:00010df8 00000008H .xdata$_ZNSt3__112__to_addressB6v15007INS_16reverse_iteratorIPiEEvEENS_5decayIDTclsr19__to_address_helperIT_EE6__callcl7declvalIRKS5_EEEEE4typeES7_ DATA
 0002:00010e00 00000008H .xdata$_ZNSt3__116reverse_iteratorIPiEppB6v15007Ev DATA
 0002:00010e08 00000008H .xdata$_ZNKSt3__116reverse_iteratorIPiE4baseB6v15007Ev DATA
 0002:00010e10 00000020H .xdata$_ZNSt3__119__to_address_helperINS_16reverse_iteratorIPiEEvE6__callB6v15007ERKS3_ DATA
 0002:00010e30 00000008H .xdata$_ZNKSt3__116reverse_iteratorIPiEptB6v15007Ev DATA
 0002:00010e38 00000008H .xdata$_ZNKSt3__116reverse_iteratorIPiEdeB6v15007Ev DATA
 0002:00010e40 00000008H .xdata$_ZNSt3__116reverse_iteratorIPiEC2B6v15007ES1_ DATA
 0002:00010e48 00000008H .xdata$_ZNSt3__16vectorINS0_IiNS_9allocatorIiEEEENS1_IS3_EEE21_ConstructTransactionD2Ev DATA
 0002:00010e50 00000020H .xdata$_ZNSt3__113__transactionINS_6vectorINS1_IiNS_9allocatorIiEEEENS2_IS4_EEE16__destroy_vectorEED2B6v15007Ev DATA
 0002:00010e70 00000024H .xdata$_ZNSt3__16vectorINS0_IiNS_9allocatorIiEEEENS1_IS3_EEE13__move_assignERS5_NS_17integral_constantIbLb1EEE DATA
 0002:00010e94 00000008H .xdata$_ZNSt3__16vectorINS0_IiNS_9allocatorIiEEEENS1_IS3_EEE13__vdeallocateEv DATA
 0002:00010e9c 00000008H .xdata$_ZNSt3__16vectorINS0_IiNS_9allocatorIiEEEENS1_IS3_EEE19__move_assign_allocB6v15007ERS5_ DATA
 0002:00010ea4 00000008H .xdata$_ZNSt3__115__debug_db_swapB6v15007INS_6vectorINS1_IiNS_9allocatorIiEEEENS2_IS4_EEEEEEvPT_S8_ DATA
 0002:00010eac 00000020H .xdata$_ZNSt3__16vectorINS0_IiNS_9allocatorIiEEEENS1_IS3_EEE5clearB6v15007Ev DATA
 0002:00010ecc 00000008H .xdata$_ZNKSt3__16vectorINS0_IiNS_9allocatorIiEEEENS1_IS3_EEE17__annotate_shrinkB6v15007Ey DATA
 0002:00010ed4 00000008H .xdata$_ZNSt3__125__debug_db_invalidate_allB6v15007INS_6vectorINS1_IiNS_9allocatorIiEEEENS2_IS4_EEEEEEvPT_ DATA
 0002:00010edc 00000008H .xdata$_ZNSt3__16vectorINS0_IiNS_9allocatorIiEEEENS1_IS3_EEE19__move_assign_allocB6v15007ERS5_NS_17integral_constantIbLb1EEE DATA
 0002:00010ee4 00000008H .xdata$_ZNSt3__123mersenne_twister_engineIjLy32ELy624ELy397ELy31ELj2567483615ELy11ELj4294967295ELy7ELj2636928640ELy15ELj4022730752ELy18ELj1812433253EEC2B6v15007Ej DATA
 0002:00010eec 00000008H .xdata$_ZNSt3__123mersenne_twister_engineIjLy32ELy624ELy397ELy31ELj2567483615ELy11ELj4294967295ELy7ELj2636928640ELy15ELj4022730752ELy18ELj1812433253EE4seedEj DATA
 0002:00010ef4 00000008H .xdata$_ZNSt3__123mersenne_twister_engineIjLy32ELy624ELy397ELy31ELj2567483615ELy11ELj4294967295ELy7ELj2636928640ELy15ELj4022730752ELy18ELj1812433253EE8__rshiftB6v15007ILy30EEENS_9enable_ifIXltT_L_ZNS1_3_DtEEEjE4typeEj DATA
 0002:00010efc 00000008H .xdata$_ZNSt3__124uniform_int_distributionIiEC2Eii DATA
 0002:00010f04 00000008H .xdata$_ZNSt3__124uniform_int_distributionIiE10param_typeC1Eii DATA
 0002:00010f0c 00000008H .xdata$_ZNSt3__124uniform_int_distributionIiE10param_typeC2Eii DATA
 0002:00010f14 00000008H .xdata$_ZNSt3__112__hash_tableIiNS_4hashIiEENS_8equal_toIiEENS_9allocatorIiEEE4findIiEENS_15__hash_iteratorIPNS_11__hash_nodeIiPvEEEERKT_ DATA
 0002:00010f1c 00000008H .xdata$_ZNSt3__121__hash_const_iteratorIPNS_11__hash_nodeIiPvEEEC1B6v15007ERKNS_15__hash_iteratorIS4_EE DATA
 0002:00010f24 00000008H .xdata$_ZNSt3__112__hash_tableIiNS_4hashIiEENS_8equal_toIiEENS_9allocatorIiEEE13hash_functionB6v15007Ev DATA
 0002:00010f2c 00000008H .xdata$_ZNKSt3__14hashIiEclB6v15007Ei DATA
 0002:00010f34 00000008H .xdata$_ZNKSt3__112__hash_tableIiNS_4hashIiEENS_8equal_toIiEENS_9allocatorIiEEE12bucket_countB6v15007Ev DATA
 0002:00010f3c 00000008H .xdata$_ZNSt3__116__constrain_hashB6v15007Eyy DATA
 0002:00010f44 00000008H .xdata$_ZNKSt3__110unique_ptrIA_PNS_16__hash_node_baseIPNS_11__hash_nodeIiPvEEEENS_25__bucket_list_deallocatorINS_9allocatorIS7_EEEEEixB6v15007Ey DATA
 0002:00010f4c 00000008H .xdata$_ZNKSt3__116__hash_node_baseIPNS_11__hash_nodeIiPvEEE6__hashB6v15007Ev DATA
 0002:00010f54 00000008H .xdata$_ZNSt3__112__hash_tableIiNS_4hashIiEENS_8equal_toIiEENS_9allocatorIiEEE6key_eqB6v15007Ev DATA
 0002:00010f5c 00000008H .xdata$_ZNKSt3__18equal_toIiEclB6v15007ERKiS3_ DATA
 0002:00010f64 00000008H .xdata$_ZNSt3__116__hash_node_baseIPNS_11__hash_nodeIiPvEEE8__upcastB6v15007Ev DATA
 0002:00010f6c 00000008H .xdata$_ZNSt3__115__hash_iteratorIPNS_11__hash_nodeIiPvEEEC1B6v15007EPNS_16__hash_node_baseIS4_EEPKv DATA
 0002:00010f74 00000008H .xdata$_ZNSt3__112__hash_tableIiNS_4hashIiEENS_8equal_toIiEENS_9allocatorIiEEE3endEv DATA
 0002:00010f7c 00000008H .xdata$_ZNSt3__117__compressed_pairIyNS_4hashIiEEE6secondB6v15007Ev DATA
 0002:00010f84 00000008H .xdata$_ZNSt3__122__compressed_pair_elemINS_4hashIiEELi1ELb1EE5__getB6v15007Ev DATA
 0002:00010f8c 00000008H .xdata$_ZNKSt3__110unique_ptrIA_PNS_16__hash_node_baseIPNS_11__hash_nodeIiPvEEEENS_25__bucket_list_deallocatorINS_9allocatorIS7_EEEEE11get_deleterB6v15007Ev DATA
 0002:00010f94 00000008H .xdata$_ZNKSt3__125__bucket_list_deallocatorINS_9allocatorIPNS_16__hash_node_baseIPNS_11__hash_nodeIiPvEEEEEEE4sizeB6v15007Ev DATA
 0002:00010f9c 00000008H .xdata$_ZNKSt3__117__compressed_pairIPPNS_16__hash_node_baseIPNS_11__hash_nodeIiPvEEEENS_25__bucket_list_deallocatorINS_9allocatorIS7_EEEEE6secondB6v15007Ev DATA
 0002:00010fa4 00000008H .xdata$_ZNKSt3__122__compressed_pair_elemINS_25__bucket_list_deallocatorINS_9allocatorIPNS_16__hash_node_baseIPNS_11__hash_nodeIiPvEEEEEEEELi1ELb0EE5__getB6v15007Ev DATA
 0002:00010fac 00000008H .xdata$_ZNKSt3__117__compressed_pairIyNS_9allocatorIPNS_16__hash_node_baseIPNS_11__hash_nodeIiPvEEEEEEE5firstB6v15007Ev DATA
 0002:00010fb4 00000008H .xdata$_ZNKSt3__122__compressed_pair_elemIyLi0ELb0EE5__getB6v15007Ev DATA
 0002:00010fbc 00000008H .xdata$_ZNKSt3__117__compressed_pairIPPNS_16__hash_node_baseIPNS_11__hash_nodeIiPvEEEENS_25__bucket_list_deallocatorINS_9allocatorIS7_EEEEE5firstB6v15007Ev DATA
 0002:00010fc4 00000008H .xdata$_ZNKSt3__122__compressed_pair_elemIPPNS_16__hash_node_baseIPNS_11__hash_nodeIiPvEEEELi0ELb0EE5__getB6v15007Ev DATA
 0002:00010fcc 00000008H .xdata$_ZNSt3__117__compressed_pairIfNS_8equal_toIiEEE6secondB6v15007Ev DATA
 0002:00010fd4 00000008H .xdata$_ZNSt3__122__compressed_pair_elemINS_8equal_toIiEELi1ELb1EE5__getB6v15007Ev DATA
 0002:00010fdc 00000008H .xdata$_ZNSt3__114pointer_traitsIPNS_16__hash_node_baseIPNS_11__hash_nodeIiPvEEEEE10pointer_toB6v15007ERS6_ DATA
 0002:00010fe4 00000008H .xdata$_ZNSt3__115__hash_iteratorIPNS_11__hash_nodeIiPvEEEC2B6v15007EPNS_16__hash_node_baseIS4_EEPKv DATA
 0002:00010fec 00000008H .xdata$_ZNSt3__121__hash_const_iteratorIPNS_11__hash_nodeIiPvEEEC2B6v15007ERKNS_15__hash_iteratorIS4_EE DATA
 0002:00010ff4 00000008H .xdata$_ZNKSt3__110__function12__value_funcIFbiiEEclB6v15007EOiS4_ DATA
 0002:00010ffc 00000008H .xdata$_ZNSt3__125__throw_bad_function_callB6v15007Ev DATA
 0002:00011004 00000008H .xdata$_ZNSt3__117bad_function_callC1Ev DATA
 0002:0001100c 00000008H .xdata$_ZNSt3__117bad_function_callD1Ev DATA
 0002:00011014 00000008H .xdata$_ZNSt3__117bad_function_callC2Ev DATA
 0002:0001101c 00000008H .xdata$_ZNSt9exceptionC2B6v15007Ev DATA
 0002:00011024 00000008H .xdata$_ZNSt3__117bad_function_callD0Ev DATA
 0002:0001102c 00000008H .xdata$_ZNSt3__117bad_function_callD2Ev DATA
 0002:00011034 00000008H .xdata$_ZNSt3__112__hash_tableIiNS_4hashIiEENS_8equal_toIiEENS_9allocatorIiEEE15__insert_uniqueB6v15007ERKi DATA
 0002:0001103c 00000008H .xdata$_ZNSt3__14pairINS_21__hash_const_iteratorIPNS_11__hash_nodeIiPvEEEEbEC1B6v15007INS_15__hash_iteratorIS5_EEbLS3_0EEEONS0_IT_T0_EE DATA
 0002:00011044 00000024H .xdata$_ZNSt3__112__hash_tableIiNS_4hashIiEENS_8equal_toIiEENS_9allocatorIiEEE25__emplace_unique_key_argsIiJRKiEEENS_4pairINS_15__hash_iteratorIPNS_11__hash_nodeIiPvEEEEbEERKT_DpOT0_ DATA
 0002:00011068 00000008H .xdata$_ZNSt3__122__hash_key_value_typesIiE9__get_keyB6v15007ERKi DATA
 0002:00011070 00000024H .xdata$_ZNSt3__112__hash_tableIiNS_4hashIiEENS_8equal_toIiEENS_9allocatorIiEEE21__construct_node_hashIRKiJEEENS_10unique_ptrINS_11__hash_nodeIiPvEENS_22__hash_node_destructorINS5_ISE_EEEEEEyOT_DpOT0_ DATA
 0002:00011094 00000008H .xdata$_ZNSt3__112__hash_tableIiNS_4hashIiEENS_8equal_toIiEENS_9allocatorIiEEE4sizeB6v15007Ev DATA
 0002:0001109c 00000008H .xdata$_ZNSt3__112__hash_tableIiNS_4hashIiEENS_8equal_toIiEENS_9allocatorIiEEE15max_load_factorB6v15007Ev DATA
 0002:000110a4 00000008H .xdata$_ZNSt3__112__hash_tableIiNS_4hashIiEENS_8equal_toIiEENS_9allocatorIiEEE15__rehash_uniqueB6v15007Ey DATA
 0002:000110ac 00000008H .xdata$_ZNSt3__13maxB6v15007IyEERKT_S3_S3_ DATA
 0002:000110b4 00000008H .xdata$_ZNSt3__116__is_hash_power2B6v15007Ey DATA
 0002:000110bc 00000008H .xdata$_Z4ceilB6v15007f DATA
 0002:000110c4 00000008H .xdata$_ZNSt3__117__compressed_pairINS_16__hash_node_baseIPNS_11__hash_nodeIiPvEEEENS_9allocatorIS4_EEE5firstB6v15007Ev DATA
 0002:000110cc 00000008H .xdata$_ZNSt3__116__hash_node_baseIPNS_11__hash_nodeIiPvEEE5__ptrB6v15007Ev DATA
 0002:000110d4 00000008H .xdata$_ZNKSt3__110unique_ptrINS_11__hash_nodeIiPvEENS_22__hash_node_destructorINS_9allocatorIS3_EEEEEptB6v15007Ev DATA
 0002:000110dc 00000008H .xdata$_ZNKSt3__110unique_ptrINS_11__hash_nodeIiPvEENS_22__hash_node_destructorINS_9allocatorIS3_EEEEE3getB6v15007Ev DATA
 0002:000110e4 00000008H .xdata$_ZNSt3__110unique_ptrINS_11__hash_nodeIiPvEENS_22__hash_node_destructorINS_9allocatorIS3_EEEEE7releaseB6v15007Ev DATA
 0002:000110ec 00000008H .xdata$_ZNSt3__110unique_ptrINS_11__hash_nodeIiPvEENS_22__hash_node_destructorINS_9allocatorIS3_EEEEED1B6v15007Ev DATA
 0002:000110f4 00000008H .xdata$_ZNSt3__14pairINS_15__hash_iteratorIPNS_11__hash_nodeIiPvEEEEbEC1B6v15007IS6_RbLS3_0EEEOT_OT0_ DATA
 0002:000110fc 00000008H .xdata$_ZNSt3__112__hash_tableIiNS_4hashIiEENS_8equal_toIiEENS_9allocatorIiEEE12__node_allocB6v15007Ev DATA
 0002:00011104 00000008H .xdata$_ZNSt3__116allocator_traitsINS_9allocatorINS_11__hash_nodeIiPvEEEEE8allocateB6v15007ERS5_y DATA
 0002:0001110c 00000008H .xdata$_ZNSt3__122__hash_node_destructorINS_9allocatorINS_11__hash_nodeIiPvEEEEEC1B6v15007ERS5_b DATA
 0002:00011114 00000008H .xdata$_ZNSt3__110unique_ptrINS_11__hash_nodeIiPvEENS_22__hash_node_destructorINS_9allocatorIS3_EEEEEC1B6v15007ILb1EvEEPS3_NS_16__dependent_typeINS_27__unique_ptr_deleter_sfinaeIS7_EEXT_EE20__good_rval_ref_typeE DATA
 0002:0001111c 00000008H .xdata$_ZNSt3__116allocator_traitsINS_9allocatorINS_11__hash_nodeIiPvEEEEE9constructB6v15007IiJRKiEvEEvRS5_PT_DpOT0_ DATA
 0002:00011124 00000008H .xdata$_ZNSt3__122__hash_key_value_typesIiE9__get_ptrB6v15007ERi DATA
 0002:0001112c 00000008H .xdata$_ZNSt3__110unique_ptrINS_11__hash_nodeIiPvEENS_22__hash_node_destructorINS_9allocatorIS3_EEEEE11get_deleterB6v15007Ev DATA
 0002:00011134 00000008H .xdata$_ZNSt3__117__compressed_pairINS_16__hash_node_baseIPNS_11__hash_nodeIiPvEEEENS_9allocatorIS4_EEE6secondB6v15007Ev DATA
 0002:0001113c 00000008H .xdata$_ZNSt3__122__compressed_pair_elemINS_9allocatorINS_11__hash_nodeIiPvEEEELi1ELb1EE5__getB6v15007Ev DATA
 0002:00011144 00000008H .xdata$_ZNSt3__19allocatorINS_11__hash_nodeIiPvEEE8allocateB6v15007Ey DATA
 0002:0001114c 00000008H .xdata$_ZNSt3__116allocator_traitsINS_9allocatorINS_11__hash_nodeIiPvEEEEE8max_sizeB6v15007IS5_vEEyRKS5_ DATA
 0002:00011154 00000008H .xdata$_ZNKSt3__19allocatorINS_11__hash_nodeIiPvEEE8max_sizeB6v15007Ev DATA
 0002:0001115c 00000008H .xdata$_ZNSt3__122__hash_node_destructorINS_9allocatorINS_11__hash_nodeIiPvEEEEEC2B6v15007ERS5_b DATA
 0002:00011164 00000020H .xdata$_ZNSt3__110unique_ptrINS_11__hash_nodeIiPvEENS_22__hash_node_destructorINS_9allocatorIS3_EEEEEC2B6v15007ILb1EvEEPS3_NS_16__dependent_typeINS_27__unique_ptr_deleter_sfinaeIS7_EEXT_EE20__good_rval_ref_typeE DATA
 0002:00011184 00000008H .xdata$_ZNSt3__117__compressed_pairIPNS_11__hash_nodeIiPvEENS_22__hash_node_destructorINS_9allocatorIS3_EEEEEC1B6v15007IRS4_S8_EEOT_OT0_ DATA
 0002:0001118c 00000008H .xdata$_ZNSt3__117__compressed_pairIPNS_11__hash_nodeIiPvEENS_22__hash_node_destructorINS_9allocatorIS3_EEEEEC2B6v15007IRS4_S8_EEOT_OT0_ DATA
 0002:00011194 00000008H .xdata$_ZNSt3__122__compressed_pair_elemIPNS_11__hash_nodeIiPvEELi0ELb0EEC2B6v15007IRS4_vEEOT_ DATA
 0002:0001119c 00000008H .xdata$_ZNSt3__122__compressed_pair_elemINS_22__hash_node_destructorINS_9allocatorINS_11__hash_nodeIiPvEEEEEELi1ELb0EEC2B6v15007IS7_vEEOT_ DATA
 0002:000111a4 00000008H .xdata$_ZNSt3__19allocatorINS_11__hash_nodeIiPvEEE9constructB6v15007IiJRKiEEEvPT_DpOT0_ DATA
 0002:000111ac 00000008H .xdata$_ZNSt3__117__compressed_pairIPNS_11__hash_nodeIiPvEENS_22__hash_node_destructorINS_9allocatorIS3_EEEEE6secondB6v15007Ev DATA
 0002:000111b4 00000008H .xdata$_ZNSt3__122__compressed_pair_elemINS_22__hash_node_destructorINS_9allocatorINS_11__hash_nodeIiPvEEEEEELi1ELb0EE5__getB6v15007Ev DATA
 0002:000111bc 00000008H .xdata$_ZNSt3__117__compressed_pairIyNS_4hashIiEEE5firstB6v15007Ev DATA
 0002:000111c4 00000008H .xdata$_ZNSt3__117__compressed_pairIfNS_8equal_toIiEEE5firstB6v15007Ev DATA
 0002:000111cc 00000008H .xdata$_ZNSt3__122__compressed_pair_elemIfLi0ELb0EE5__getB6v15007Ev DATA
 0002:000111d4 00000008H .xdata$_ZNSt3__112__hash_tableIiNS_4hashIiEENS_8equal_toIiEENS_9allocatorIiEEE8__rehashILb1EEEvy DATA
 0002:000111dc 00000008H .xdata$_ZNSt3__112__hash_tableIiNS_4hashIiEENS_8equal_toIiEENS_9allocatorIiEEE11__do_rehashILb1EEEvy DATA
 0002:000111e4 00000008H .xdata$_ZNSt3__116__next_hash_pow2B6v15007Ey DATA
 0002:000111ec 00000008H .xdata$_ZNSt3__125__debug_db_invalidate_allB6v15007INS_12__hash_tableIiNS_4hashIiEENS_8equal_toIiEENS_9allocatorIiEEEEEEvPT_ DATA
 0002:000111f4 00000008H .xdata$_ZNSt3__110unique_ptrIA_PNS_16__hash_node_baseIPNS_11__hash_nodeIiPvEEEENS_25__bucket_list_deallocatorINS_9allocatorIS7_EEEEE11get_deleterB6v15007Ev DATA
 0002:000111fc 00000008H .xdata$_ZNSt3__125__bucket_list_deallocatorINS_9allocatorIPNS_16__hash_node_baseIPNS_11__hash_nodeIiPvEEEEEEE7__allocB6v15007Ev DATA
 0002:00011204 00000008H .xdata$_ZNSt3__110unique_ptrIA_PNS_16__hash_node_baseIPNS_11__hash_nodeIiPvEEEENS_25__bucket_list_deallocatorINS_9allocatorIS7_EEEEE5resetB6v15007IPS7_EENS_9enable_ifIXsr28_CheckArrayPointerConversionIT_EE5valueEvE4typeESH_ DATA
 0002:0001120c 00000008H .xdata$_ZNSt3__116allocator_traitsINS_9allocatorIPNS_16__hash_node_baseIPNS_11__hash_nodeIiPvEEEEEEE8allocateB6v15007ERS9_y DATA
 0002:00011214 00000008H .xdata$_ZNSt3__125__bucket_list_deallocatorINS_9allocatorIPNS_16__hash_node_baseIPNS_11__hash_nodeIiPvEEEEEEE4sizeB6v15007Ev DATA
 0002:0001121c 00000008H .xdata$_ZNSt3__117__compressed_pairIPPNS_16__hash_node_baseIPNS_11__hash_nodeIiPvEEEENS_25__bucket_list_deallocatorINS_9allocatorIS7_EEEEE6secondB6v15007Ev DATA
 0002:00011224 00000008H .xdata$_ZNSt3__122__compressed_pair_elemINS_25__bucket_list_deallocatorINS_9allocatorIPNS_16__hash_node_baseIPNS_11__hash_nodeIiPvEEEEEEEELi1ELb0EE5__getB6v15007Ev DATA
 0002:0001122c 00000008H .xdata$_ZNSt3__117__compressed_pairIyNS_9allocatorIPNS_16__hash_node_baseIPNS_11__hash_nodeIiPvEEEEEEE6secondB6v15007Ev DATA
 0002:00011234 00000008H .xdata$_ZNSt3__122__compressed_pair_elemINS_9allocatorIPNS_16__hash_node_baseIPNS_11__hash_nodeIiPvEEEEEELi1ELb1EE5__getB6v15007Ev DATA
 0002:0001123c 00000008H .xdata$_ZNSt3__117__compressed_pairIPPNS_16__hash_node_baseIPNS_11__hash_nodeIiPvEEEENS_25__bucket_list_deallocatorINS_9allocatorIS7_EEEEE5firstB6v15007Ev DATA
 0002:00011244 00000008H .xdata$_ZNSt3__125__bucket_list_deallocatorINS_9allocatorIPNS_16__hash_node_baseIPNS_11__hash_nodeIiPvEEEEEEEclB6v15007EPS8_ DATA
 0002:0001124c 00000008H .xdata$_ZNSt3__122__compressed_pair_elemIPPNS_16__hash_node_baseIPNS_11__hash_nodeIiPvEEEELi0ELb0EE5__getB6v15007Ev DATA
 0002:00011254 00000008H .xdata$_ZNSt3__116allocator_traitsINS_9allocatorIPNS_16__hash_node_baseIPNS_11__hash_nodeIiPvEEEEEEE10deallocateB6v15007ERS9_PS8_y DATA
 0002:0001125c 00000020H .xdata$_ZNSt3__19allocatorIPNS_16__hash_node_baseIPNS_11__hash_nodeIiPvEEEEE10deallocateB6v15007EPS7_y DATA
 0002:0001127c 00000008H .xdata$_ZNSt3__19allocatorIPNS_16__hash_node_baseIPNS_11__hash_nodeIiPvEEEEE8allocateB6v15007Ey DATA
 0002:00011284 00000008H .xdata$_ZNSt3__116allocator_traitsINS_9allocatorIPNS_16__hash_node_baseIPNS_11__hash_nodeIiPvEEEEEEE8max_sizeB6v15007IS9_vEEyRKS9_ DATA
 0002:0001128c 00000008H .xdata$_ZNKSt3__19allocatorIPNS_16__hash_node_baseIPNS_11__hash_nodeIiPvEEEEE8max_sizeB6v15007Ev DATA
 0002:00011294 00000008H .xdata$_ZNSt3__117__compressed_pairIyNS_9allocatorIPNS_16__hash_node_baseIPNS_11__hash_nodeIiPvEEEEEEE5firstB6v15007Ev DATA
 0002:0001129c 00000008H .xdata$_ZNSt3__112__libcpp_clzB6v15007Ey DATA
 0002:000112a4 00000008H .xdata$_ZNSt3__13maxB6v15007IyNS_6__lessIyyEEEERKT_S5_S5_T0_ DATA
 0002:000112ac 00000008H .xdata$_ZNSt3__122__compressed_pair_elemINS_16__hash_node_baseIPNS_11__hash_nodeIiPvEEEELi0ELb0EE5__getB6v15007Ev DATA
 0002:000112b4 00000008H .xdata$_ZNKSt3__117__compressed_pairIPNS_11__hash_nodeIiPvEENS_22__hash_node_destructorINS_9allocatorIS3_EEEEE5firstB6v15007Ev DATA
 0002:000112bc 00000008H .xdata$_ZNKSt3__122__compressed_pair_elemIPNS_11__hash_nodeIiPvEELi0ELb0EE5__getB6v15007Ev DATA
 0002:000112c4 00000008H .xdata$_ZNSt3__117__compressed_pairIPNS_11__hash_nodeIiPvEENS_22__hash_node_destructorINS_9allocatorIS3_EEEEE5firstB6v15007Ev DATA
 0002:000112cc 00000008H .xdata$_ZNSt3__122__compressed_pair_elemIPNS_11__hash_nodeIiPvEELi0ELb0EE5__getB6v15007Ev DATA
 0002:000112d4 00000008H .xdata$_ZNSt3__110unique_ptrINS_11__hash_nodeIiPvEENS_22__hash_node_destructorINS_9allocatorIS3_EEEEED2B6v15007Ev DATA
 0002:000112dc 00000008H .xdata$_ZNSt3__110unique_ptrINS_11__hash_nodeIiPvEENS_22__hash_node_destructorINS_9allocatorIS3_EEEEE5resetB6v15007EPS3_ DATA
 0002:000112e4 00000020H .xdata$_ZNSt3__122__hash_node_destructorINS_9allocatorINS_11__hash_nodeIiPvEEEEEclB6v15007EPS4_ DATA
 0002:00011304 00000008H .xdata$_ZNSt3__116allocator_traitsINS_9allocatorINS_11__hash_nodeIiPvEEEEE7destroyB6v15007IivvEEvRS5_PT_ DATA
 0002:0001130c 00000008H .xdata$_ZNSt3__116allocator_traitsINS_9allocatorINS_11__hash_nodeIiPvEEEEE10deallocateB6v15007ERS5_PS4_y DATA
 0002:00011314 00000020H .xdata$_ZNSt3__19allocatorINS_11__hash_nodeIiPvEEE10deallocateB6v15007EPS3_y DATA
 0002:00011334 00000008H .xdata$_ZNSt3__14pairINS_15__hash_iteratorIPNS_11__hash_nodeIiPvEEEEbEC2B6v15007IS6_RbLS3_0EEEOT_OT0_ DATA
 0002:0001133c 00000008H .xdata$_ZNSt3__14pairINS_21__hash_const_iteratorIPNS_11__hash_nodeIiPvEEEEbEC2B6v15007INS_15__hash_iteratorIS5_EEbLS3_0EEEONS0_IT_T0_EE DATA
 0002:00011344 00000008H .xdata$_ZNSt3__112__hash_tableIiNS_4hashIiEENS_8equal_toIiEENS_9allocatorIiEEE14__erase_uniqueIiEEyRKT_ DATA
 0002:0001134c 00000008H .xdata$_ZNSt3__1eqB6v15007ERKNS_15__hash_iteratorIPNS_11__hash_nodeIiPvEEEES7_ DATA
 0002:00011354 00000008H .xdata$_ZNSt3__112__hash_tableIiNS_4hashIiEENS_8equal_toIiEENS_9allocatorIiEEE5eraseENS_21__hash_const_iteratorIPNS_11__hash_nodeIiPvEEEE DATA
 0002:0001135c 00000008H .xdata$_ZNSt3__115__hash_iteratorIPNS_11__hash_nodeIiPvEEEppB6v15007Ev DATA
 0002:00011364 00000008H .xdata$_ZNSt3__112__hash_tableIiNS_4hashIiEENS_8equal_toIiEENS_9allocatorIiEEE6removeENS_21__hash_const_iteratorIPNS_11__hash_nodeIiPvEEEE DATA
 0002:0001136c 00000008H .xdata$_ZNSt3__110__function6__baseIFbiiEEC2B6v15007Ev DATA
 0002:00011374 00000008H .xdata$_ZNSt3__110__function6__baseIFbiiEED2B6v15007Ev DATA
 0002:0001137c 00000008H .xdata$_ZNSt3__110__function6__baseIFbiiEED1B6v15007Ev DATA
 0002:00011384 00000008H .xdata$_ZNSt3__110__function6__baseIFbiiEED0B6v15007Ev DATA
 0002:0001138c 00000008H .xdata$_ZNSt3__16vectorIiNS_9allocatorIiEEEC1B6v15007ESt16initializer_listIiE DATA
 0002:00011394 00000008H .xdata$_ZNSt3__17shuffleINS_11__wrap_iterIPiEERNS_23mersenne_twister_engineIjLy32ELy624ELy397ELy31ELj2567483615ELy11ELj4294967295ELy7ELj2636928640ELy15ELj4022730752ELy18ELj1812433253EEEEEvT_S7_OT0_ DATA
 0002:0001139c 00000008H .xdata$_ZNSt3__16vectorIiNS_9allocatorIiEEE5beginB6v15007Ev DATA
 0002:000113a4 00000008H .xdata$_ZNSt3__16vectorIiNS_9allocatorIiEEE3endB6v15007Ev DATA
 0002:000113ac 00000008H .xdata$_ZNSt3__1neB6v15007IPiEEbRKNS_11__wrap_iterIT_EES6_ DATA
 0002:000113b4 00000008H .xdata$_ZNKSt3__111__wrap_iterIPiEdeB6v15007Ev DATA
 0002:000113bc 00000008H .xdata$_ZNSt3__111__wrap_iterIPiEppB6v15007Ev DATA
 0002:000113c4 00000020H .xdata$_ZNSt3__16vectorIiNS_9allocatorIiEEEC2B6v15007ESt16initializer_listIiE DATA
 0002:000113e4 00000008H .xdata$_ZNKSt16initializer_listIiE4sizeB6v15007Ev DATA
 0002:000113ec 0000001cH .xdata$_ZNSt3__16vectorIiNS_9allocatorIiEEE18__construct_at_endIPKiEENS_9enable_ifIXsr27__is_cpp17_forward_iteratorIT_EE5valueEvE4typeES8_S8_y DATA
 0002:00011408 00000008H .xdata$_ZNKSt16initializer_listIiE5beginB6v15007Ev DATA
 0002:00011410 00000008H .xdata$_ZNKSt16initializer_listIiE3endB6v15007Ev DATA
 0002:00011418 00000008H .xdata$_ZNSt3__130__uninitialized_allocator_copyB6v15007INS_9allocatorIiEEiiLPv0EEEPT0_RT_PKS4_S9_S5_ DATA
 0002:00011420 00000008H .xdata$_ZNSt3__14copyB6v15007IPKiPiEET0_T_S5_S4_ DATA
 0002:00011428 00000008H .xdata$_ZNSt3__16__copyB6v15007IPKiS2_PiLi0EEENS_4pairIT_T1_EES5_T0_S6_ DATA
 0002:00011430 00000008H .xdata$_ZNSt3__114__unwrap_rangeB6v15007IPKiS2_EENS_4pairIT0_S4_EET_S6_ DATA
 0002:00011438 00000008H .xdata$_ZNSt3__111__copy_implB6v15007IKiivEENS_4pairIPT_PT0_EES4_S4_S6_ DATA
 0002:00011440 00000008H .xdata$_ZNSt3__113__unwrap_iterB6v15007IPiNS_18__unwrap_iter_implIS1_Lb1EEELi0EEEDTclsrT0_8__unwrapclsr3stdE7declvalIT_EEEES5_ DATA
 0002:00011448 00000008H .xdata$_ZNSt3__19make_pairB6v15007IPKiPiEENS_4pairINS_18__unwrap_ref_decayIT_E4typeENS5_IT0_E4typeEEEOS6_OS9_ DATA
 0002:00011450 00000008H .xdata$_ZNSt3__114__rewrap_rangeB6v15007IPKiS2_EET_S3_T0_ DATA
 0002:00011458 00000020H .xdata$_ZNSt3__113__rewrap_iterB6v15007IPiS1_NS_18__unwrap_iter_implIS1_Lb1EEEEET_S4_T0_ DATA
 0002:00011478 00000008H .xdata$_ZNSt3__19make_pairB6v15007IPKiS2_EENS_4pairINS_18__unwrap_ref_decayIT_E4typeENS4_IT0_E4typeEEEOS5_OS8_ DATA
 0002:00011480 00000008H .xdata$_ZNSt3__113__unwrap_iterB6v15007IPKiNS_18__unwrap_iter_implIS2_Lb1EEELi0EEEDTclsrT0_8__unwrapclsr3stdE7declvalIT_EEEES6_ DATA
 0002:00011488 00000008H .xdata$_ZNSt3__14pairIPKiS2_EC1B6v15007IS2_S2_LPv0EEEOT_OT0_ DATA
 0002:00011490 00000008H .xdata$_ZNSt3__14pairIPKiS2_EC2B6v15007IS2_S2_LPv0EEEOT_OT0_ DATA
 0002:00011498 00000008H .xdata$_ZNSt3__118__unwrap_iter_implIPKiLb1EE8__unwrapB6v15007ES2_ DATA
 0002:000114a0 00000008H .xdata$_ZNSt3__112__to_addressB6v15007IKiEEPT_S3_ DATA
 0002:000114a8 00000008H .xdata$_ZNSt3__118__unwrap_iter_implIPiLb1EE8__unwrapB6v15007ES1_ DATA
 0002:000114b0 00000008H .xdata$_ZNSt3__14pairIPKiPiEC1B6v15007IS2_S3_LPv0EEEOT_OT0_ DATA
 0002:000114b8 00000008H .xdata$_ZNSt3__14pairIPKiPiEC2B6v15007IS2_S3_LPv0EEEOT_OT0_ DATA
 0002:000114c0 00000020H .xdata$_ZNSt3__113__rewrap_iterB6v15007IPKiS2_NS_18__unwrap_iter_implIS2_Lb1EEEEET_S5_T0_ DATA
 0002:000114e0 00000008H .xdata$_ZNSt3__118__unwrap_iter_implIPKiLb1EE8__rewrapB6v15007ES2_S2_ DATA
 0002:000114e8 00000008H .xdata$_ZNSt3__118__unwrap_iter_implIPiLb1EE8__rewrapB6v15007ES1_S1_ DATA
 0002:000114f0 00000008H .xdata$_ZNSt3__19__shuffleINS_17_ClassicAlgPolicyENS_11__wrap_iterIPiEES4_RNS_23mersenne_twister_engineIjLy32ELy624ELy397ELy31ELj2567483615ELy11ELj4294967295ELy7ELj2636928640ELy15ELj4022730752ELy18ELj1812433253EEEEET0_S8_T1_OT2_ DATA
 0002:000114f8 00000008H .xdata$_ZNSt3__18_IterOpsINS_17_ClassicAlgPolicyEE4nextB6v15007INS_11__wrap_iterIPiEEEET_S7_S7_ DATA
 0002:00011500 00000008H .xdata$_ZNSt3__1miB6v15007IPiS1_EEDTmicldtfp_4baseEcldtfp0_4baseEERKNS_11__wrap_iterIT_EERKNS3_IT0_EE DATA
 0002:00011508 00000008H .xdata$_ZNSt3__124uniform_int_distributionIxEC1Ev DATA
 0002:00011510 00000008H .xdata$_ZNSt3__111__wrap_iterIPiEmmB6v15007Ev DATA
 0002:00011518 00000008H .xdata$_ZNSt3__1ltB6v15007IPiEEbRKNS_11__wrap_iterIT_EES6_ DATA
 0002:00011520 00000008H .xdata$_ZNSt3__124uniform_int_distributionIxEclINS_23mersenne_twister_engineIjLy32ELy624ELy397ELy31ELj2567483615ELy11ELj4294967295ELy7ELj2636928640ELy15ELj4022730752ELy18ELj1812433253EEEEExRT_RKNS1_10param_typeE DATA
 0002:00011528 00000008H .xdata$_ZNSt3__124uniform_int_distributionIxE10param_typeC1Exx DATA
 0002:00011530 00000008H .xdata$_ZNSt3__18_IterOpsINS_17_ClassicAlgPolicyEE9iter_swapB6v15007IRNS_11__wrap_iterIPiEES6_EEvOT_OT0_ DATA
 0002:00011538 00000008H .xdata$_ZNKSt3__111__wrap_iterIPiEplB6v15007Ex DATA
 0002:00011540 00000008H .xdata$_ZNKSt3__111__wrap_iterIPiE4baseB6v15007Ev DATA
 0002:00011548 00000008H .xdata$_ZNSt3__124uniform_int_distributionIxEC1Exx DATA
 0002:00011550 00000008H .xdata$_ZNSt3__124uniform_int_distributionIxEC2Exx DATA
 0002:00011558 00000008H .xdata$_ZNKSt3__124uniform_int_distributionIxE10param_type1bEv DATA
 0002:00011560 00000008H .xdata$_ZNKSt3__124uniform_int_distributionIxE10param_type1aEv DATA
 0002:00011568 00000008H .xdata$_ZNSt3__125__independent_bits_engineINS_23mersenne_twister_engineIjLy32ELy624ELy397ELy31ELj2567483615ELy11ELj4294967295ELy7ELj2636928640ELy15ELj4022730752ELy18ELj1812433253EEEyEC1ERS2_y DATA
 0002:00011570 00000008H .xdata$_ZNSt3__125__independent_bits_engineINS_23mersenne_twister_engineIjLy32ELy624ELy397ELy31ELj2567483615ELy11ELj4294967295ELy7ELj2636928640ELy15ELj4022730752ELy18ELj1812433253EEEyEclEv DATA
 0002:00011578 00000008H .xdata$_ZNSt3__113__countl_zeroB6v15007IyEEiT_ DATA
 0002:00011580 00000008H .xdata$_ZNSt3__114numeric_limitsIyE3maxB6v15007Ev DATA
 0002:00011588 00000008H .xdata$_ZNSt3__125__independent_bits_engineINS_23mersenne_twister_engineIjLy32ELy624ELy397ELy31ELj2567483615ELy11ELj4294967295ELy7ELj2636928640ELy15ELj4022730752ELy18ELj1812433253EEEyEC2ERS2_y DATA
 0002:00011590 00000008H .xdata$_ZNSt3__125__independent_bits_engineINS_23mersenne_twister_engineIjLy32ELy624ELy397ELy31ELj2567483615ELy11ELj4294967295ELy7ELj2636928640ELy15ELj4022730752ELy18ELj1812433253EEEyE6__evalENS_17integral_constantIbLb1EEE DATA
 0002:00011598 00000008H .xdata$_ZNSt3__123mersenne_twister_engineIjLy32ELy624ELy397ELy31ELj2567483615ELy11ELj4294967295ELy7ELj2636928640ELy15ELj4022730752ELy18ELj1812433253EEclEv DATA
 0002:000115a0 00000008H .xdata$_ZNSt3__123mersenne_twister_engineIjLy32ELy624ELy397ELy31ELj2567483615ELy11ELj4294967295ELy7ELj2636928640ELy15ELj4022730752ELy18ELj1812433253EE8__rshiftB6v15007ILy1EEENS_9enable_ifIXltT_L_ZNS1_3_DtEEEjE4typeEj DATA
 0002:000115a8 00000008H .xdata$_ZNSt3__123mersenne_twister_engineIjLy32ELy624ELy397ELy31ELj2567483615ELy11ELj4294967295ELy7ELj2636928640ELy15ELj4022730752ELy18ELj1812433253EE8__rshiftB6v15007ILy11EEENS_9enable_ifIXltT_L_ZNS1_3_DtEEEjE4typeEj DATA
 0002:000115b0 00000008H .xdata$_ZNSt3__123mersenne_twister_engineIjLy32ELy624ELy397ELy31ELj2567483615ELy11ELj4294967295ELy7ELj2636928640ELy15ELj4022730752ELy18ELj1812433253EE8__lshiftB6v15007ILy7EEENS_9enable_ifIXltT_Ly32EEjE4typeEj DATA
 0002:000115b8 00000008H .xdata$_ZNSt3__123mersenne_twister_engineIjLy32ELy624ELy397ELy31ELj2567483615ELy11ELj4294967295ELy7ELj2636928640ELy15ELj4022730752ELy18ELj1812433253EE8__lshiftB6v15007ILy15EEENS_9enable_ifIXltT_Ly32EEjE4typeEj DATA
 0002:000115c0 00000008H .xdata$_ZNSt3__123mersenne_twister_engineIjLy32ELy624ELy397ELy31ELj2567483615ELy11ELj4294967295ELy7ELj2636928640ELy15ELj4022730752ELy18ELj1812433253EE8__rshiftB6v15007ILy18EEENS_9enable_ifIXltT_L_ZNS1_3_DtEEEjE4typeEj DATA
 0002:000115c8 00000008H .xdata$_ZNSt3__124uniform_int_distributionIxE10param_typeC2Exx DATA
 0002:000115d0 00000008H .xdata$_ZNSt3__19iter_swapB6v15007INS_11__wrap_iterIPiEES3_EEvT_T0_ DATA
 0002:000115d8 00000008H .xdata$_ZNSt3__14swapB6v15007IiEENS_9enable_ifIXaasr21is_move_constructibleIT_EE5valuesr18is_move_assignableIS2_EE5valueEvE4typeERS2_S5_ DATA
 0002:000115e0 00000008H .xdata$_ZNSt3__111__wrap_iterIPiEpLB6v15007Ex DATA
 0002:000115e8 00000008H .xdata$_ZNSt3__111__wrap_iterIPiEC1B6v15007EPKvS1_ DATA
 0002:000115f0 00000008H .xdata$_ZNSt3__111__wrap_iterIPiEC2B6v15007EPKvS1_ DATA
 0002:000115f8 00000008H .xdata$_ZNSt3__1eqB6v15007IPiEEbRKNS_11__wrap_iterIT_EES6_ DATA
 0002:00011600 00000008H .xdata$_ZNKSt9type_infoeqB6v15007ERKS_ DATA
 0002:00011608 00000008H .xdata$_ZNSt3__18functionIFbiiEED2Ev DATA
 0002:00011610 00000008H .xdata$_ZNSt3__110__function12__value_funcIFbiiEED1B6v15007Ev DATA
 0002:00011618 00000008H .xdata$_ZNSt3__110__function12__value_funcIFbiiEED2B6v15007Ev DATA
 0002:00011620 00000020H .xdata$_ZNSt3__16vectorINS_13unordered_setIiNS_4hashIiEENS_8equal_toIiEENS_9allocatorIiEEEENS6_IS8_EEEC2Ey DATA
 0002:00011640 00000008H .xdata$_ZNSt3__117__compressed_pairIPNS_13unordered_setIiNS_4hashIiEENS_8equal_toIiEENS_9allocatorIiEEEENS6_IS8_EEEC1B6v15007IDnNS_18__default_init_tagEEEOT_OT0_ DATA
 0002:00011648 00000008H .xdata$_ZNSt3__118__make_transactionB6v15007INS_6vectorINS_13unordered_setIiNS_4hashIiEENS_8equal_toIiEENS_9allocatorIiEEEENS7_IS9_EEE16__destroy_vectorEEENS_13__transactionIT_EESE_ DATA
 0002:00011650 00000008H .xdata$_ZNSt3__16vectorINS_13unordered_setIiNS_4hashIiEENS_8equal_toIiEENS_9allocatorIiEEEENS6_IS8_EEE16__destroy_vectorC1ERSA_ DATA
 0002:00011658 00000008H .xdata$_ZNSt3__119__debug_db_insert_cB6v15007INS_6vectorINS_13unordered_setIiNS_4hashIiEENS_8equal_toIiEENS_9allocatorIiEEEENS7_IS9_EEEEEEvPT_ DATA
 0002:00011660 00000008H .xdata$_ZNSt3__16vectorINS_13unordered_setIiNS_4hashIiEENS_8equal_toIiEENS_9allocatorIiEEEENS6_IS8_EEE11__vallocateB6v15007Ey DATA
 0002:00011668 00000020H .xdata$_ZNSt3__16vectorINS_13unordered_setIiNS_4hashIiEENS_8equal_toIiEENS_9allocatorIiEEEENS6_IS8_EEE18__construct_at_endEy DATA
 0002:00011688 00000008H .xdata$_ZNSt3__113__transactionINS_6vectorINS_13unordered_setIiNS_4hashIiEENS_8equal_toIiEENS_9allocatorIiEEEENS7_IS9_EEE16__destroy_vectorEE10__completeB6v15007Ev DATA
 0002:00011690 00000008H .xdata$_ZNSt3__113__transactionINS_6vectorINS_13unordered_setIiNS_4hashIiEENS_8equal_toIiEENS_9allocatorIiEEEENS7_IS9_EEE16__destroy_vectorEED1B6v15007Ev DATA
 0002:00011698 00000008H .xdata$_ZNSt3__117__compressed_pairIPNS_13unordered_setIiNS_4hashIiEENS_8equal_toIiEENS_9allocatorIiEEEENS6_IS8_EEEC2B6v15007IDnNS_18__default_init_tagEEEOT_OT0_ DATA
 0002:000116a0 00000008H .xdata$_ZNSt3__122__compressed_pair_elemIPNS_13unordered_setIiNS_4hashIiEENS_8equal_toIiEENS_9allocatorIiEEEELi0ELb0EEC2B6v15007IDnvEEOT_ DATA
 0002:000116a8 00000008H .xdata$_ZNSt3__122__compressed_pair_elemINS_9allocatorINS_13unordered_setIiNS_4hashIiEENS_8equal_toIiEENS1_IiEEEEEELi1ELb1EEC2B6v15007ENS_18__default_init_tagE DATA
 0002:000116b0 00000008H .xdata$_ZNSt3__19allocatorINS_13unordered_setIiNS_4hashIiEENS_8equal_toIiEENS0_IiEEEEEC2B6v15007Ev DATA
 0002:000116b8 00000008H .xdata$_ZNSt3__116__non_trivial_ifILb1ENS_9allocatorINS_13unordered_setIiNS_4hashIiEENS_8equal_toIiEENS1_IiEEEEEEEC2B6v15007Ev DATA
 0002:000116c0 00000008H .xdata$_ZNSt3__113__transactionINS_6vectorINS_13unordered_setIiNS_4hashIiEENS_8equal_toIiEENS_9allocatorIiEEEENS7_IS9_EEE16__destroy_vectorEEC1B6v15007ESC_ DATA
 0002:000116c8 00000008H .xdata$_ZNSt3__113__transactionINS_6vectorINS_13unordered_setIiNS_4hashIiEENS_8equal_toIiEENS_9allocatorIiEEEENS7_IS9_EEE16__destroy_vectorEEC2B6v15007ESC_ DATA
 0002:000116d0 00000008H .xdata$_ZNSt3__16vectorINS_13unordered_setIiNS_4hashIiEENS_8equal_toIiEENS_9allocatorIiEEEENS6_IS8_EEE16__destroy_vectorC2ERSA_ DATA
 0002:000116d8 00000020H .xdata$_ZNKSt3__16vectorINS_13unordered_setIiNS_4hashIiEENS_8equal_toIiEENS_9allocatorIiEEEENS6_IS8_EEE8max_sizeEv DATA
 0002:000116f8 00000008H .xdata$_ZNKSt3__16vectorINS_13unordered_setIiNS_4hashIiEENS_8equal_toIiEENS_9allocatorIiEEEENS6_IS8_EEE20__throw_length_errorB6v15007Ev DATA
 0002:00011700 00000008H .xdata$_ZNSt3__119__allocate_at_leastB6v15007INS_9allocatorINS_13unordered_setIiNS_4hashIiEENS_8equal_toIiEENS1_IiEEEEEEEENS_19__allocation_resultINS_16allocator_traitsIT_E7pointerEEERSC_y DATA
 0002:00011708 00000008H .xdata$_ZNSt3__16vectorINS_13unordered_setIiNS_4hashIiEENS_8equal_toIiEENS_9allocatorIiEEEENS6_IS8_EEE7__allocB6v15007Ev DATA
 0002:00011710 00000008H .xdata$_ZNSt3__16vectorINS_13unordered_setIiNS_4hashIiEENS_8equal_toIiEENS_9allocatorIiEEEENS6_IS8_EEE9__end_capB6v15007Ev DATA
 0002:00011718 00000008H .xdata$_ZNKSt3__16vectorINS_13unordered_setIiNS_4hashIiEENS_8equal_toIiEENS_9allocatorIiEEEENS6_IS8_EEE14__annotate_newB6v15007Ey DATA
 0002:00011720 00000008H .xdata$_ZNSt3__116allocator_traitsINS_9allocatorINS_13unordered_setIiNS_4hashIiEENS_8equal_toIiEENS1_IiEEEEEEE8max_sizeB6v15007IS9_vEEyRKS9_ DATA
 0002:00011728 00000008H .xdata$_ZNKSt3__16vectorINS_13unordered_setIiNS_4hashIiEENS_8equal_toIiEENS_9allocatorIiEEEENS6_IS8_EEE7__allocB6v15007Ev DATA
 0002:00011730 00000008H .xdata$_ZNKSt3__19allocatorINS_13unordered_setIiNS_4hashIiEENS_8equal_toIiEENS0_IiEEEEE8max_sizeB6v15007Ev DATA
 0002:00011738 00000008H .xdata$_ZNKSt3__117__compressed_pairIPNS_13unordered_setIiNS_4hashIiEENS_8equal_toIiEENS_9allocatorIiEEEENS6_IS8_EEE6secondB6v15007Ev DATA
 0002:00011740 00000008H .xdata$_ZNKSt3__122__compressed_pair_elemINS_9allocatorINS_13unordered_setIiNS_4hashIiEENS_8equal_toIiEENS1_IiEEEEEELi1ELb1EE5__getB6v15007Ev DATA
 0002:00011748 00000008H .xdata$_ZNSt3__19allocatorINS_13unordered_setIiNS_4hashIiEENS_8equal_toIiEENS0_IiEEEEE8allocateB6v15007Ey DATA
 0002:00011750 00000008H .xdata$_ZNSt3__117__compressed_pairIPNS_13unordered_setIiNS_4hashIiEENS_8equal_toIiEENS_9allocatorIiEEEENS6_IS8_EEE6secondB6v15007Ev DATA
 0002:00011758 00000008H .xdata$_ZNSt3__122__compressed_pair_elemINS_9allocatorINS_13unordered_setIiNS_4hashIiEENS_8equal_toIiEENS1_IiEEEEEELi1ELb1EE5__getB6v15007Ev DATA
 0002:00011760 00000008H .xdata$_ZNSt3__117__compressed_pairIPNS_13unordered_setIiNS_4hashIiEENS_8equal_toIiEENS_9allocatorIiEEEENS6_IS8_EEE5firstB6v15007Ev DATA
 0002:00011768 00000008H .xdata$_ZNSt3__122__compressed_pair_elemIPNS_13unordered_setIiNS_4hashIiEENS_8equal_toIiEENS_9allocatorIiEEEELi0ELb0EE5__getB6v15007Ev DATA
 0002:00011770 00000008H .xdata$_ZNKSt3__16vectorINS_13unordered_setIiNS_4hashIiEENS_8equal_toIiEENS_9allocatorIiEEEENS6_IS8_EEE31__annotate_contiguous_containerB6v15007EPKvSC_SC_SC_ DATA
 0002:00011778 00000008H .xdata$_ZNKSt3__16vectorINS_13unordered_setIiNS_4hashIiEENS_8equal_toIiEENS_9allocatorIiEEEENS6_IS8_EEE4dataB6v15007Ev DATA
 0002:00011780 00000008H .xdata$_ZNKSt3__16vectorINS_13unordered_setIiNS_4hashIiEENS_8equal_toIiEENS_9allocatorIiEEEENS6_IS8_EEE8capacityB6v15007Ev DATA
 0002:00011788 00000008H .xdata$_ZNSt3__112__to_addressB6v15007INS_13unordered_setIiNS_4hashIiEENS_8equal_toIiEENS_9allocatorIiEEEEEEPT_SA_ DATA
 0002:00011790 00000008H .xdata$_ZNKSt3__16vectorINS_13unordered_setIiNS_4hashIiEENS_8equal_toIiEENS_9allocatorIiEEEENS6_IS8_EEE9__end_capB6v15007Ev DATA
 0002:00011798 00000008H .xdata$_ZNKSt3__117__compressed_pairIPNS_13unordered_setIiNS_4hashIiEENS_8equal_toIiEENS_9allocatorIiEEEENS6_IS8_EEE5firstB6v15007Ev DATA
 0002:000117a0 00000008H .xdata$_ZNKSt3__122__compressed_pair_elemIPNS_13unordered_setIiNS_4hashIiEENS_8equal_toIiEENS_9allocatorIiEEEELi0ELb0EE5__getB6v15007Ev DATA
 0002:000117a8 00000008H .xdata$_ZNSt3__16vectorINS_13unordered_setIiNS_4hashIiEENS_8equal_toIiEENS_9allocatorIiEEEENS6_IS8_EEE21_ConstructTransactionC1ERSA_y DATA
 0002:000117b0 00000008H .xdata$_ZNSt3__116allocator_traitsINS_9allocatorINS_13unordered_setIiNS_4hashIiEENS_8equal_toIiEENS1_IiEEEEEEE9constructB6v15007IS8_JEvEEvRS9_PT_DpOT0_ DATA
 0002:000117b8 00000008H .xdata$_ZNSt3__16vectorINS_13unordered_setIiNS_4hashIiEENS_8equal_toIiEENS_9allocatorIiEEEENS6_IS8_EEE21_ConstructTransactionD1Ev DATA
 0002:000117c0 00000008H .xdata$_ZNSt3__16vectorINS_13unordered_setIiNS_4hashIiEENS_8equal_toIiEENS_9allocatorIiEEEENS6_IS8_EEE21_ConstructTransactionC2ERSA_y DATA
 0002:000117c8 00000008H .xdata$_ZNSt3__19allocatorINS_13unordered_setIiNS_4hashIiEENS_8equal_toIiEENS0_IiEEEEE9constructB6v15007IS7_JEEEvPT_DpOT0_ DATA
 0002:000117d0 00000008H .xdata$_ZNSt3__16vectorINS_13unordered_setIiNS_4hashIiEENS_8equal_toIiEENS_9allocatorIiEEEENS6_IS8_EEE21_ConstructTransactionD2Ev DATA
 0002:000117d8 00000020H .xdata$_ZNSt3__113__transactionINS_6vectorINS_13unordered_setIiNS_4hashIiEENS_8equal_toIiEENS_9allocatorIiEEEENS7_IS9_EEE16__destroy_vectorEED2B6v15007Ev DATA
 0002:000117f8 00000008H .xdata$_ZNSt3__16vectorINS_13unordered_setIiNS_4hashIiEENS_8equal_toIiEENS_9allocatorIiEEEENS6_IS8_EEE16__destroy_vectorclB6v15007Ev DATA
 0002:00011800 00000008H .xdata$_ZNKSt3__16vectorINS_13unordered_setIiNS_4hashIiEENS_8equal_toIiEENS_9allocatorIiEEEENS6_IS8_EEE17__annotate_deleteB6v15007Ev DATA
 0002:00011808 00000008H .xdata$_ZNSt3__118__debug_db_erase_cB6v15007INS_6vectorINS_13unordered_setIiNS_4hashIiEENS_8equal_toIiEENS_9allocatorIiEEEENS7_IS9_EEEEEEvPT_ DATA
 0002:00011810 00000008H .xdata$_ZNSt3__16vectorINS_13unordered_setIiNS_4hashIiEENS_8equal_toIiEENS_9allocatorIiEEEENS6_IS8_EEE7__clearB6v15007Ev DATA
 0002:00011818 00000008H .xdata$_ZNSt3__116allocator_traitsINS_9allocatorINS_13unordered_setIiNS_4hashIiEENS_8equal_toIiEENS1_IiEEEEEEE10deallocateB6v15007ERS9_PS8_y DATA
 0002:00011820 00000008H .xdata$_ZNKSt3__16vectorINS_13unordered_setIiNS_4hashIiEENS_8equal_toIiEENS_9allocatorIiEEEENS6_IS8_EEE4sizeB6v15007Ev DATA
 0002:00011828 00000020H .xdata$_ZNSt3__16vectorINS_13unordered_setIiNS_4hashIiEENS_8equal_toIiEENS_9allocatorIiEEEENS6_IS8_EEE22__base_destruct_at_endB6v15007EPS8_ DATA
 0002:00011848 00000008H .xdata$_ZNSt3__116allocator_traitsINS_9allocatorINS_13unordered_setIiNS_4hashIiEENS_8equal_toIiEENS1_IiEEEEEEE7destroyB6v15007IS8_vEEvRS9_PT_ DATA
 0002:00011850 00000008H .xdata$_ZNSt3__19allocatorINS_13unordered_setIiNS_4hashIiEENS_8equal_toIiEENS0_IiEEEEE7destroyB6v15007EPS7_ DATA
 0002:00011858 00000020H .xdata$_ZNSt3__19allocatorINS_13unordered_setIiNS_4hashIiEENS_8equal_toIiEENS0_IiEEEEE10deallocateB6v15007EPS7_y DATA
 0002:00011878 00000020H .xdata$_ZNSt3__16vectorINS_13unordered_setIiNS_4hashIiEENS_8equal_toIiEENS_9allocatorIiEEEENS6_IS8_EEED2B6v15007Ev DATA
 0002:00011898 00000020H .xdata$_ZNSt3__16vectorINS_4pairIiiEENS_9allocatorIS2_EEEC2B6v15007Ev DATA
 0002:000118b8 00000008H .xdata$_ZNSt3__117__compressed_pairIPNS_4pairIiiEENS_9allocatorIS2_EEEC1B6v15007IDnNS_18__default_init_tagEEEOT_OT0_ DATA
 0002:000118c0 00000008H .xdata$_ZNSt3__119__debug_db_insert_cB6v15007INS_6vectorINS_4pairIiiEENS_9allocatorIS3_EEEEEEvPT_ DATA
 0002:000118c8 00000008H .xdata$_ZNSt3__117__compressed_pairIPNS_4pairIiiEENS_9allocatorIS2_EEEC2B6v15007IDnNS_18__default_init_tagEEEOT_OT0_ DATA
 0002:000118d0 00000008H .xdata$_ZNSt3__122__compressed_pair_elemIPNS_4pairIiiEELi0ELb0EEC2B6v15007IDnvEEOT_ DATA
 0002:000118d8 00000008H .xdata$_ZNSt3__122__compressed_pair_elemINS_9allocatorINS_4pairIiiEEEELi1ELb1EEC2B6v15007ENS_18__default_init_tagE DATA
 0002:000118e0 00000008H .xdata$_ZNSt3__19allocatorINS_4pairIiiEEEC2B6v15007Ev DATA
 0002:000118e8 00000008H .xdata$_ZNSt3__116__non_trivial_ifILb1ENS_9allocatorINS_4pairIiiEEEEEC2B6v15007Ev DATA
 0002:000118f0 00000020H .xdata$_ZNSt3__16vectorINS_4pairIiiEENS_9allocatorIS2_EEED2B6v15007Ev DATA
 0002:00011910 00000008H .xdata$_ZNSt3__16vectorINS_4pairIiiEENS_9allocatorIS2_EEE16__destroy_vectorC1ERS5_ DATA
 0002:00011918 00000008H .xdata$_ZNSt3__16vectorINS_4pairIiiEENS_9allocatorIS2_EEE16__destroy_vectorclB6v15007Ev DATA
 0002:00011920 00000008H .xdata$_ZNSt3__16vectorINS_4pairIiiEENS_9allocatorIS2_EEE16__destroy_vectorC2ERS5_ DATA
 0002:00011928 00000008H .xdata$_ZNKSt3__16vectorINS_4pairIiiEENS_9allocatorIS2_EEE17__annotate_deleteB6v15007Ev DATA
 0002:00011930 00000008H .xdata$_ZNSt3__118__debug_db_erase_cB6v15007INS_6vectorINS_4pairIiiEENS_9allocatorIS3_EEEEEEvPT_ DATA
 0002:00011938 00000008H .xdata$_ZNSt3__16vectorINS_4pairIiiEENS_9allocatorIS2_EEE7__clearB6v15007Ev DATA
 0002:00011940 00000008H .xdata$_ZNSt3__116allocator_traitsINS_9allocatorINS_4pairIiiEEEEE10deallocateB6v15007ERS4_PS3_y DATA
 0002:00011948 00000008H .xdata$_ZNSt3__16vectorINS_4pairIiiEENS_9allocatorIS2_EEE7__allocB6v15007Ev DATA
 0002:00011950 00000008H .xdata$_ZNKSt3__16vectorINS_4pairIiiEENS_9allocatorIS2_EEE8capacityB6v15007Ev DATA
 0002:00011958 00000008H .xdata$_ZNKSt3__16vectorINS_4pairIiiEENS_9allocatorIS2_EEE31__annotate_contiguous_containerB6v15007EPKvS7_S7_S7_ DATA
 0002:00011960 00000008H .xdata$_ZNKSt3__16vectorINS_4pairIiiEENS_9allocatorIS2_EEE4dataB6v15007Ev DATA
 0002:00011968 00000008H .xdata$_ZNKSt3__16vectorINS_4pairIiiEENS_9allocatorIS2_EEE4sizeB6v15007Ev DATA
 0002:00011970 00000008H .xdata$_ZNSt3__112__to_addressB6v15007INS_4pairIiiEEEEPT_S4_ DATA
 0002:00011978 00000020H .xdata$_ZNSt3__16vectorINS_4pairIiiEENS_9allocatorIS2_EEE22__base_destruct_at_endB6v15007EPS2_ DATA
 0002:00011998 00000008H .xdata$_ZNSt3__116allocator_traitsINS_9allocatorINS_4pairIiiEEEEE7destroyB6v15007IS3_vEEvRS4_PT_ DATA
 0002:000119a0 00000008H .xdata$_ZNSt3__19allocatorINS_4pairIiiEEE7destroyB6v15007EPS2_ DATA
 0002:000119a8 00000020H .xdata$_ZNSt3__19allocatorINS_4pairIiiEEE10deallocateB6v15007EPS2_y DATA
 0002:000119c8 00000008H .xdata$_ZNSt3__117__compressed_pairIPNS_4pairIiiEENS_9allocatorIS2_EEE6secondB6v15007Ev DATA
 0002:000119d0 00000008H .xdata$_ZNSt3__122__compressed_pair_elemINS_9allocatorINS_4pairIiiEEEELi1ELb1EE5__getB6v15007Ev DATA
 0002:000119d8 00000008H .xdata$_ZNKSt3__16vectorINS_4pairIiiEENS_9allocatorIS2_EEE9__end_capB6v15007Ev DATA
 0002:000119e0 00000008H .xdata$_ZNKSt3__117__compressed_pairIPNS_4pairIiiEENS_9allocatorIS2_EEE5firstB6v15007Ev DATA
 0002:000119e8 00000008H .xdata$_ZNKSt3__122__compressed_pair_elemIPNS_4pairIiiEELi0ELb0EE5__getB6v15007Ev DATA
 0002:000119f0 00000008H .xdata$_ZNSt3__16vectorINS_4pairIiiEENS_9allocatorIS2_EEE9__end_capB6v15007Ev DATA
 0002:000119f8 0000001cH .xdata$_ZNSt3__16vectorINS_4pairIiiEENS_9allocatorIS2_EEE22__construct_one_at_endB6v15007IJS2_EEEvDpOT_ DATA
 0002:00011a14 00000020H .xdata$_ZNSt3__16vectorINS_4pairIiiEENS_9allocatorIS2_EEE21__push_back_slow_pathIS2_EEvOT_ DATA
 0002:00011a34 00000008H .xdata$_ZNSt3__117__compressed_pairIPNS_4pairIiiEENS_9allocatorIS2_EEE5firstB6v15007Ev DATA
 0002:00011a3c 00000008H .xdata$_ZNSt3__122__compressed_pair_elemIPNS_4pairIiiEELi0ELb0EE5__getB6v15007Ev DATA
 0002:00011a44 00000008H .xdata$_ZNSt3__16vectorINS_4pairIiiEENS_9allocatorIS2_EEE21_ConstructTransactionC1ERS5_y DATA
 0002:00011a4c 00000008H .xdata$_ZNSt3__116allocator_traitsINS_9allocatorINS_4pairIiiEEEEE9constructB6v15007IS3_JS3_EvEEvRS4_PT_DpOT0_ DATA
 0002:00011a54 00000008H .xdata$_ZNSt3__16vectorINS_4pairIiiEENS_9allocatorIS2_EEE21_ConstructTransactionD1Ev DATA
 0002:00011a5c 00000008H .xdata$_ZNSt3__16vectorINS_4pairIiiEENS_9allocatorIS2_EEE21_ConstructTransactionC2ERS5_y DATA
 0002:00011a64 00000008H .xdata$_ZNSt3__19allocatorINS_4pairIiiEEE9constructB6v15007IS2_JS2_EEEvPT_DpOT0_ DATA
 0002:00011a6c 00000008H .xdata$_ZNSt3__16vectorINS_4pairIiiEENS_9allocatorIS2_EEE21_ConstructTransactionD2Ev DATA
 0002:00011a74 00000008H .xdata$_ZNKSt3__16vectorINS_4pairIiiEENS_9allocatorIS2_EEE11__recommendB6v15007Ey DATA
 0002:00011a7c 00000008H .xdata$_ZNSt3__114__split_bufferINS_4pairIiiEERNS_9allocatorIS2_EEEC1EyyS5_ DATA
 0002:00011a84 00000008H .xdata$_ZNSt3__16vectorINS_4pairIiiEENS_9allocatorIS2_EEE26__swap_out_circular_bufferERNS_14__split_bufferIS2_RS4_EE DATA
 0002:00011a8c 00000008H .xdata$_ZNSt3__114__split_bufferINS_4pairIiiEERNS_9allocatorIS2_EEED1Ev DATA
 0002:00011a94 00000020H .xdata$_ZNKSt3__16vectorINS_4pairIiiEENS_9allocatorIS2_EEE8max_sizeEv DATA
 0002:00011ab4 00000008H .xdata$_ZNKSt3__16vectorINS_4pairIiiEENS_9allocatorIS2_EEE20__throw_length_errorB6v15007Ev DATA
 0002:00011abc 00000008H .xdata$_ZNSt3__116allocator_traitsINS_9allocatorINS_4pairIiiEEEEE8max_sizeB6v15007IS4_vEEyRKS4_ DATA
 0002:00011ac4 00000008H .xdata$_ZNKSt3__16vectorINS_4pairIiiEENS_9allocatorIS2_EEE7__allocB6v15007Ev DATA
 0002:00011acc 00000008H .xdata$_ZNKSt3__19allocatorINS_4pairIiiEEE8max_sizeB6v15007Ev DATA
 0002:00011ad4 00000008H .xdata$_ZNKSt3__117__compressed_pairIPNS_4pairIiiEENS_9allocatorIS2_EEE6secondB6v15007Ev DATA
 0002:00011adc 00000008H .xdata$_ZNKSt3__122__compressed_pair_elemINS_9allocatorINS_4pairIiiEEEELi1ELb1EE5__getB6v15007Ev DATA
 0002:00011ae4 00000008H .xdata$_ZNSt3__114__split_bufferINS_4pairIiiEERNS_9allocatorIS2_EEEC2EyyS5_ DATA
 0002:00011aec 00000008H .xdata$_ZNSt3__117__compressed_pairIPNS_4pairIiiEERNS_9allocatorIS2_EEEC1B6v15007IDnS6_EEOT_OT0_ DATA
 0002:00011af4 00000008H .xdata$_ZNSt3__119__allocate_at_leastB6v15007INS_9allocatorINS_4pairIiiEEEEEENS_19__allocation_resultINS_16allocator_traitsIT_E7pointerEEERS7_y DATA
 0002:00011afc 00000008H .xdata$_ZNSt3__114__split_bufferINS_4pairIiiEERNS_9allocatorIS2_EEE7__allocB6v15007Ev DATA
 0002:00011b04 00000008H .xdata$_ZNSt3__114__split_bufferINS_4pairIiiEERNS_9allocatorIS2_EEE9__end_capB6v15007Ev DATA
 0002:00011b0c 00000008H .xdata$_ZNSt3__117__compressed_pairIPNS_4pairIiiEERNS_9allocatorIS2_EEEC2B6v15007IDnS6_EEOT_OT0_ DATA
 0002:00011b14 00000008H .xdata$_ZNSt3__122__compressed_pair_elemIRNS_9allocatorINS_4pairIiiEEEELi1ELb0EEC2B6v15007IS5_vEEOT_ DATA
 0002:00011b1c 00000008H .xdata$_ZNSt3__19allocatorINS_4pairIiiEEE8allocateB6v15007Ey DATA
 0002:00011b24 00000008H .xdata$_ZNSt3__117__compressed_pairIPNS_4pairIiiEERNS_9allocatorIS2_EEE6secondB6v15007Ev DATA
 0002:00011b2c 00000008H .xdata$_ZNSt3__122__compressed_pair_elemIRNS_9allocatorINS_4pairIiiEEEELi1ELb0EE5__getB6v15007Ev DATA
 0002:00011b34 00000008H .xdata$_ZNSt3__117__compressed_pairIPNS_4pairIiiEERNS_9allocatorIS2_EEE5firstB6v15007Ev DATA
 0002:00011b3c 00000038H .xdata$_ZNSt3__142__uninitialized_allocator_move_if_noexceptB6v15007INS_9allocatorINS_4pairIiiEEEENS_16reverse_iteratorIPS3_EES7_S7_EET2_RT_T0_T1_S8_ DATA
 0002:00011b74 00000008H .xdata$_ZNSt3__116reverse_iteratorIPNS_4pairIiiEEEC1B6v15007ES3_ DATA
 0002:00011b7c 00000008H .xdata$_ZNKSt3__116reverse_iteratorIPNS_4pairIiiEEE4baseB6v15007Ev DATA
 0002:00011b84 00000008H .xdata$_ZNSt3__14swapB6v15007IPNS_4pairIiiEEEENS_9enable_ifIXaasr21is_move_constructibleIT_EE5valuesr18is_move_assignableIS5_EE5valueEvE4typeERS5_S8_ DATA
 0002:00011b8c 00000008H .xdata$_ZNKSt3__16vectorINS_4pairIiiEENS_9allocatorIS2_EEE14__annotate_newB6v15007Ey DATA
 0002:00011b94 00000008H .xdata$_ZNSt3__125__debug_db_invalidate_allB6v15007INS_6vectorINS_4pairIiiEENS_9allocatorIS3_EEEEEEvPT_ DATA
 0002:00011b9c 00000008H .xdata$_ZNSt3__1neB6v15007IPNS_4pairIiiEES3_EEbRKNS_16reverse_iteratorIT_EERKNS4_IT0_EE DATA
 0002:00011ba4 00000008H .xdata$_ZNSt3__112__to_addressB6v15007INS_16reverse_iteratorIPNS_4pairIiiEEEEvEENS_5decayIDTclsr19__to_address_helperIT_EE6__callcl7declvalIRKS7_EEEEE4typeES9_ DATA
 0002:00011bac 00000008H .xdata$_ZNKSt3__116reverse_iteratorIPNS_4pairIiiEEEdeB6v15007Ev DATA
 0002:00011bb4 00000008H .xdata$_ZNSt3__116reverse_iteratorIPNS_4pairIiiEEEppB6v15007Ev DATA
 0002:00011bbc 00000008H .xdata$_ZNSt3__129_AllocatorDestroyRangeReverseINS_9allocatorINS_4pairIiiEEEENS_16reverse_iteratorIPS3_EEEC1B6v15007ERS4_RS7_SA_ DATA
 0002:00011bc4 00000008H .xdata$_ZNKSt3__129_AllocatorDestroyRangeReverseINS_9allocatorINS_4pairIiiEEEENS_16reverse_iteratorIPS3_EEEclB6v15007Ev DATA
 0002:00011bcc 00000020H .xdata$_ZNSt3__119__to_address_helperINS_16reverse_iteratorIPNS_4pairIiiEEEEvE6__callB6v15007ERKS5_ DATA
 0002:00011bec 00000008H .xdata$_ZNKSt3__116reverse_iteratorIPNS_4pairIiiEEEptB6v15007Ev DATA
 0002:00011bf4 00000008H .xdata$_ZNSt3__129_AllocatorDestroyRangeReverseINS_9allocatorINS_4pairIiiEEEENS_16reverse_iteratorIPS3_EEEC2B6v15007ERS4_RS7_SA_ DATA
 0002:00011bfc 00000008H .xdata$_ZNSt3__119__allocator_destroyB6v15007INS_9allocatorINS_4pairIiiEEEENS_16reverse_iteratorINS5_IPS3_EEEES8_EEvRT_T0_T1_ DATA
 0002:00011c04 00000008H .xdata$_ZNSt3__116reverse_iteratorINS0_IPNS_4pairIiiEEEEEC1B6v15007ES4_ DATA
 0002:00011c0c 00000008H .xdata$_ZNSt3__1neB6v15007INS_16reverse_iteratorIPNS_4pairIiiEEEES5_EEbRKNS1_IT_EERKNS1_IT0_EE DATA
 0002:00011c14 00000008H .xdata$_ZNSt3__112__to_addressB6v15007INS_16reverse_iteratorINS1_IPNS_4pairIiiEEEEEEvEENS_5decayIDTclsr19__to_address_helperIT_EE6__callcl7declvalIRKS8_EEEEE4typeESA_ DATA
 0002:00011c1c 00000008H .xdata$_ZNSt3__116reverse_iteratorINS0_IPNS_4pairIiiEEEEEppB6v15007Ev DATA
 0002:00011c24 00000008H .xdata$_ZNKSt3__116reverse_iteratorINS0_IPNS_4pairIiiEEEEE4baseB6v15007Ev DATA
 0002:00011c2c 00000020H .xdata$_ZNSt3__119__to_address_helperINS_16reverse_iteratorINS1_IPNS_4pairIiiEEEEEEvE6__callB6v15007ERKS6_ DATA
 0002:00011c4c 00000008H .xdata$_ZNKSt3__116reverse_iteratorINS0_IPNS_4pairIiiEEEEEptB6v15007Ev DATA
 0002:00011c54 00000008H .xdata$_ZNKSt3__116reverse_iteratorINS0_IPNS_4pairIiiEEEEEdeB6v15007Ev DATA
 0002:00011c5c 00000008H .xdata$_ZNSt3__116reverse_iteratorIPNS_4pairIiiEEEmmB6v15007Ev DATA
 0002:00011c64 00000008H .xdata$_ZNSt3__116reverse_iteratorINS0_IPNS_4pairIiiEEEEEC2B6v15007ES4_ DATA
 0002:00011c6c 00000008H .xdata$_ZNSt3__116reverse_iteratorIPNS_4pairIiiEEEC2B6v15007ES3_ DATA
 0002:00011c74 00000020H .xdata$_ZNSt3__114__split_bufferINS_4pairIiiEERNS_9allocatorIS2_EEED2Ev DATA
 0002:00011c94 00000008H .xdata$_ZNSt3__114__split_bufferINS_4pairIiiEERNS_9allocatorIS2_EEE5clearB6v15007Ev DATA
 0002:00011c9c 00000008H .xdata$_ZNKSt3__114__split_bufferINS_4pairIiiEERNS_9allocatorIS2_EEE8capacityB6v15007Ev DATA
 0002:00011ca4 00000008H .xdata$_ZNSt3__114__split_bufferINS_4pairIiiEERNS_9allocatorIS2_EEE17__destruct_at_endB6v15007EPS2_ DATA
 0002:00011cac 00000020H .xdata$_ZNSt3__114__split_bufferINS_4pairIiiEERNS_9allocatorIS2_EEE17__destruct_at_endB6v15007EPS2_NS_17integral_constantIbLb0EEE DATA
 0002:00011ccc 00000008H .xdata$_ZNKSt3__114__split_bufferINS_4pairIiiEERNS_9allocatorIS2_EEE9__end_capB6v15007Ev DATA
 0002:00011cd4 00000008H .xdata$_ZNKSt3__117__compressed_pairIPNS_4pairIiiEERNS_9allocatorIS2_EEE5firstB6v15007Ev DATA
 0002:00011cdc 00000008H .xdata$_ZNSt3__111__wrap_iterIPNS_4pairIiiEEEC1B6v15007EPKvS3_ DATA
 0002:00011ce4 00000008H .xdata$_ZNSt3__111__wrap_iterIPNS_4pairIiiEEEC2B6v15007EPKvS3_ DATA
 0002:00011cec 00000008H .xdata$_ZNSt3__19__shuffleINS_17_ClassicAlgPolicyENS_11__wrap_iterIPNS_4pairIiiEEEES6_RNS_23mersenne_twister_engineIjLy32ELy624ELy397ELy31ELj2567483615ELy11ELj4294967295ELy7ELj2636928640ELy15ELj4022730752ELy18ELj1812433253EEEEET0_SA_T1_OT2_ DATA
 0002:00011cf4 00000008H .xdata$_ZNSt3__18_IterOpsINS_17_ClassicAlgPolicyEE4nextB6v15007INS_11__wrap_iterIPNS_4pairIiiEEEEEET_S9_S9_ DATA
 0002:00011cfc 00000008H .xdata$_ZNSt3__1miB6v15007IPNS_4pairIiiEES3_EEDTmicldtfp_4baseEcldtfp0_4baseEERKNS_11__wrap_iterIT_EERKNS5_IT0_EE DATA
 0002:00011d04 00000008H .xdata$_ZNSt3__111__wrap_iterIPNS_4pairIiiEEEmmB6v15007Ev DATA
 0002:00011d0c 00000008H .xdata$_ZNSt3__1ltB6v15007IPNS_4pairIiiEEEEbRKNS_11__wrap_iterIT_EES8_ DATA
 0002:00011d14 00000008H .xdata$_ZNSt3__18_IterOpsINS_17_ClassicAlgPolicyEE9iter_swapB6v15007IRNS_11__wrap_iterIPNS_4pairIiiEEEES8_EEvOT_OT0_ DATA
 0002:00011d1c 00000008H .xdata$_ZNKSt3__111__wrap_iterIPNS_4pairIiiEEEplB6v15007Ex DATA
 0002:00011d24 00000008H .xdata$_ZNSt3__111__wrap_iterIPNS_4pairIiiEEEppB6v15007Ev DATA
 0002:00011d2c 00000008H .xdata$_ZNKSt3__111__wrap_iterIPNS_4pairIiiEEE4baseB6v15007Ev DATA
 0002:00011d34 00000008H .xdata$_ZNSt3__19iter_swapB6v15007INS_11__wrap_iterIPNS_4pairIiiEEEES5_EEvT_T0_ DATA
 0002:00011d3c 00000008H .xdata$_ZNSt3__14swapB6v15007IiiEENS_9enable_ifIXaasr14__is_swappableIT_EE5valuesr14__is_swappableIT0_EE5valueEvE4typeERNS_4pairIS2_S3_EES8_ DATA
 0002:00011d44 00000008H .xdata$_ZNKSt3__111__wrap_iterIPNS_4pairIiiEEEdeB6v15007Ev DATA
 0002:00011d4c 00000008H .xdata$_ZNSt3__14pairIiiE4swapB6v15007ERS1_ DATA
 0002:00011d54 00000008H .xdata$_ZNSt3__111__wrap_iterIPNS_4pairIiiEEEpLB6v15007Ex DATA
 0002:00011d5c 00000008H .xdata$_ZNSt3__16__treeIiNS_4lessIiEENS_9allocatorIiEEE15__insert_uniqueB6v15007ERKi DATA
 0002:00011d64 00000008H .xdata$_ZNSt3__14pairINS_21__tree_const_iteratorIiPNS_11__tree_nodeIiPvEExEEbEC1B6v15007INS_15__tree_iteratorIiS5_xEEbLS3_0EEEONS0_IT_T0_EE DATA
 0002:00011d6c 00000008H .xdata$_ZNSt3__16__treeIiNS_4lessIiEENS_9allocatorIiEEE25__emplace_unique_key_argsIiJRKiEEENS_4pairINS_15__tree_iteratorIiPNS_11__tree_nodeIiPvEExEEbEERKT_DpOT0_ DATA
 0002:00011d74 00000008H .xdata$_ZNSt3__122__tree_key_value_typesIiE9__get_keyB6v15007ERKi DATA
 0002:00011d7c 00000008H .xdata$_ZNSt3__16__treeIiNS_4lessIiEENS_9allocatorIiEEE12__find_equalIiEERPNS_16__tree_node_baseIPvEERPNS_15__tree_end_nodeISA_EERKT_ DATA
 0002:00011d84 00000020H .xdata$_ZNSt3__16__treeIiNS_4lessIiEENS_9allocatorIiEEE16__construct_nodeIJRKiEEENS_10unique_ptrINS_11__tree_nodeIiPvEENS_22__tree_node_destructorINS3_ISC_EEEEEEDpOT_ DATA
 0002:00011da4 00000008H .xdata$_ZNSt3__16__treeIiNS_4lessIiEENS_9allocatorIiEEE16__insert_node_atEPNS_15__tree_end_nodeIPNS_16__tree_node_baseIPvEEEERSA_SA_ DATA
 0002:00011dac 00000008H .xdata$_ZNKSt3__110unique_ptrINS_11__tree_nodeIiPvEENS_22__tree_node_destructorINS_9allocatorIS3_EEEEE3getB6v15007Ev DATA
 0002:00011db4 00000008H .xdata$_ZNSt3__110unique_ptrINS_11__tree_nodeIiPvEENS_22__tree_node_destructorINS_9allocatorIS3_EEEEE7releaseB6v15007Ev DATA
 0002:00011dbc 00000008H .xdata$_ZNSt3__110unique_ptrINS_11__tree_nodeIiPvEENS_22__tree_node_destructorINS_9allocatorIS3_EEEEED1B6v15007Ev DATA
 0002:00011dc4 00000008H .xdata$_ZNSt3__115__tree_iteratorIiPNS_11__tree_nodeIiPvEExEC1B6v15007ES4_ DATA
 0002:00011dcc 00000008H .xdata$_ZNSt3__14pairINS_15__tree_iteratorIiPNS_11__tree_nodeIiPvEExEEbEC1B6v15007IS6_RbLS3_0EEEOT_OT0_ DATA
 0002:00011dd4 00000008H .xdata$_ZNKSt3__16__treeIiNS_4lessIiEENS_9allocatorIiEEE6__rootB6v15007Ev DATA
 0002:00011ddc 00000008H .xdata$_ZNKSt3__16__treeIiNS_4lessIiEENS_9allocatorIiEEE10__root_ptrEv DATA
 0002:00011de4 00000008H .xdata$_ZNSt3__16__treeIiNS_4lessIiEENS_9allocatorIiEEE10value_compB6v15007Ev DATA
 0002:00011dec 00000008H .xdata$_ZNKSt3__14lessIiEclB6v15007ERKiS3_ DATA
 0002:00011df4 00000008H .xdata$_ZNSt3__16__treeIiNS_4lessIiEENS_9allocatorIiEEE10__end_nodeB6v15007Ev DATA
 0002:00011dfc 00000008H .xdata$_ZNKSt3__16__treeIiNS_4lessIiEENS_9allocatorIiEEE10__end_nodeB6v15007Ev DATA
 0002:00011e04 00000008H .xdata$_ZNSt3__114pointer_traitsIPNS_15__tree_end_nodeIPNS_16__tree_node_baseIPvEEEEE10pointer_toB6v15007ERS6_ DATA
 0002:00011e0c 00000008H .xdata$_ZNKSt3__117__compressed_pairINS_15__tree_end_nodeIPNS_16__tree_node_baseIPvEEEENS_9allocatorINS_11__tree_nodeIiS3_EEEEE5firstB6v15007Ev DATA
 0002:00011e14 00000008H .xdata$_ZNKSt3__122__compressed_pair_elemINS_15__tree_end_nodeIPNS_16__tree_node_baseIPvEEEELi0ELb0EE5__getB6v15007Ev DATA
 0002:00011e1c 00000008H .xdata$_ZNSt3__117__compressed_pairIyNS_4lessIiEEE6secondB6v15007Ev DATA
 0002:00011e24 00000008H .xdata$_ZNSt3__122__compressed_pair_elemINS_4lessIiEELi1ELb1EE5__getB6v15007Ev DATA
 0002:00011e2c 00000008H .xdata$_ZNSt3__117__compressed_pairINS_15__tree_end_nodeIPNS_16__tree_node_baseIPvEEEENS_9allocatorINS_11__tree_nodeIiS3_EEEEE5firstB6v15007Ev DATA
 0002:00011e34 00000008H .xdata$_ZNSt3__122__compressed_pair_elemINS_15__tree_end_nodeIPNS_16__tree_node_baseIPvEEEELi0ELb0EE5__getB6v15007Ev DATA
 0002:00011e3c 00000008H .xdata$_ZNSt3__16__treeIiNS_4lessIiEENS_9allocatorIiEEE12__node_allocB6v15007Ev DATA
 0002:00011e44 00000008H .xdata$_ZNSt3__116allocator_traitsINS_9allocatorINS_11__tree_nodeIiPvEEEEE8allocateB6v15007ERS5_y DATA
 0002:00011e4c 00000008H .xdata$_ZNSt3__122__tree_node_destructorINS_9allocatorINS_11__tree_nodeIiPvEEEEEC1B6v15007ERS5_b DATA
 0002:00011e54 00000008H .xdata$_ZNSt3__110unique_ptrINS_11__tree_nodeIiPvEENS_22__tree_node_destructorINS_9allocatorIS3_EEEEEC1B6v15007ILb1EvEEPS3_NS_16__dependent_typeINS_27__unique_ptr_deleter_sfinaeIS7_EEXT_EE20__good_rval_ref_typeE DATA
 0002:00011e5c 00000008H .xdata$_ZNSt3__116allocator_traitsINS_9allocatorINS_11__tree_nodeIiPvEEEEE9constructB6v15007IiJRKiEvEEvRS5_PT_DpOT0_ DATA
 0002:00011e64 00000008H .xdata$_ZNSt3__122__tree_key_value_typesIiE9__get_ptrB6v15007ERi DATA
 0002:00011e6c 00000008H .xdata$_ZNKSt3__110unique_ptrINS_11__tree_nodeIiPvEENS_22__tree_node_destructorINS_9allocatorIS3_EEEEEptB6v15007Ev DATA
 0002:00011e74 00000008H .xdata$_ZNSt3__110unique_ptrINS_11__tree_nodeIiPvEENS_22__tree_node_destructorINS_9allocatorIS3_EEEEE11get_deleterB6v15007Ev DATA
 0002:00011e7c 00000008H .xdata$_ZNSt3__117__compressed_pairINS_15__tree_end_nodeIPNS_16__tree_node_baseIPvEEEENS_9allocatorINS_11__tree_nodeIiS3_EEEEE6secondB6v15007Ev DATA
 0002:00011e84 00000008H .xdata$_ZNSt3__122__compressed_pair_elemINS_9allocatorINS_11__tree_nodeIiPvEEEELi1ELb1EE5__getB6v15007Ev DATA
 0002:00011e8c 00000008H .xdata$_ZNSt3__19allocatorINS_11__tree_nodeIiPvEEE8allocateB6v15007Ey DATA
 0002:00011e94 00000008H .xdata$_ZNSt3__116allocator_traitsINS_9allocatorINS_11__tree_nodeIiPvEEEEE8max_sizeB6v15007IS5_vEEyRKS5_ DATA
 0002:00011e9c 00000008H .xdata$_ZNKSt3__19allocatorINS_11__tree_nodeIiPvEEE8max_sizeB6v15007Ev DATA
 0002:00011ea4 00000008H .xdata$_ZNSt3__122__tree_node_destructorINS_9allocatorINS_11__tree_nodeIiPvEEEEEC2B6v15007ERS5_b DATA
 0002:00011eac 00000020H .xdata$_ZNSt3__110unique_ptrINS_11__tree_nodeIiPvEENS_22__tree_node_destructorINS_9allocatorIS3_EEEEEC2B6v15007ILb1EvEEPS3_NS_16__dependent_typeINS_27__unique_ptr_deleter_sfinaeIS7_EEXT_EE20__good_rval_ref_typeE DATA
 0002:00011ecc 00000008H .xdata$_ZNSt3__117__compressed_pairIPNS_11__tree_nodeIiPvEENS_22__tree_node_destructorINS_9allocatorIS3_EEEEEC1B6v15007IRS4_S8_EEOT_OT0_ DATA
 0002:00011ed4 00000008H .xdata$_ZNSt3__117__compressed_pairIPNS_11__tree_nodeIiPvEENS_22__tree_node_destructorINS_9allocatorIS3_EEEEEC2B6v15007IRS4_S8_EEOT_OT0_ DATA
 0002:00011edc 00000008H .xdata$_ZNSt3__122__compressed_pair_elemIPNS_11__tree_nodeIiPvEELi0ELb0EEC2B6v15007IRS4_vEEOT_ DATA
 0002:00011ee4 00000008H .xdata$_ZNSt3__122__compressed_pair_elemINS_22__tree_node_destructorINS_9allocatorINS_11__tree_nodeIiPvEEEEEELi1ELb0EEC2B6v15007IS7_vEEOT_ DATA
 0002:00011eec 00000008H .xdata$_ZNSt3__19allocatorINS_11__tree_nodeIiPvEEE9constructB6v15007IiJRKiEEEvPT_DpOT0_ DATA
 0002:00011ef4 00000008H .xdata$_ZNKSt3__117__compressed_pairIPNS_11__tree_nodeIiPvEENS_22__tree_node_destructorINS_9allocatorIS3_EEEEE5firstB6v15007Ev DATA
 0002:00011efc 00000008H .xdata$_ZNKSt3__122__compressed_pair_elemIPNS_11__tree_nodeIiPvEELi0ELb0EE5__getB6v15007Ev DATA
 0002:00011f04 00000008H .xdata$_ZNSt3__117__compressed_pairIPNS_11__tree_nodeIiPvEENS_22__tree_node_destructorINS_9allocatorIS3_EEEEE6secondB6v15007Ev DATA
 0002:00011f0c 00000008H .xdata$_ZNSt3__122__compressed_pair_elemINS_22__tree_node_destructorINS_9allocatorINS_11__tree_nodeIiPvEEEEEELi1ELb0EE5__getB6v15007Ev DATA
 0002:00011f14 00000008H .xdata$_ZNSt3__16__treeIiNS_4lessIiEENS_9allocatorIiEEE12__begin_nodeB6v15007Ev DATA
 0002:00011f1c 00000024H .xdata$_ZNSt3__127__tree_balance_after_insertIPNS_16__tree_node_baseIPvEEEEvT_S5_ DATA
 0002:00011f40 00000008H .xdata$_ZNSt3__16__treeIiNS_4lessIiEENS_9allocatorIiEEE4sizeB6v15007Ev DATA
 0002:00011f48 00000008H .xdata$_ZNKSt3__116__tree_node_baseIPvE15__parent_unsafeB6v15007Ev DATA
 0002:00011f50 00000008H .xdata$_ZNSt3__120__tree_is_left_childB6v15007IPNS_16__tree_node_baseIPvEEEEbT_ DATA
 0002:00011f58 00000024H .xdata$_ZNSt3__118__tree_left_rotateIPNS_16__tree_node_baseIPvEEEEvT_ DATA
 0002:00011f7c 00000008H .xdata$_ZNSt3__119__tree_right_rotateIPNS_16__tree_node_baseIPvEEEEvT_ DATA
 0002:00011f84 00000008H .xdata$_ZNSt3__116__tree_node_baseIPvE12__set_parentB6v15007EPS2_ DATA
 0002:00011f8c 00000008H .xdata$_ZNSt3__117__compressed_pairIyNS_4lessIiEEE5firstB6v15007Ev DATA
 0002:00011f94 00000008H .xdata$_ZNSt3__117__compressed_pairIPNS_11__tree_nodeIiPvEENS_22__tree_node_destructorINS_9allocatorIS3_EEEEE5firstB6v15007Ev DATA
 0002:00011f9c 00000008H .xdata$_ZNSt3__122__compressed_pair_elemIPNS_11__tree_nodeIiPvEELi0ELb0EE5__getB6v15007Ev DATA
 0002:00011fa4 00000008H .xdata$_ZNSt3__110unique_ptrINS_11__tree_nodeIiPvEENS_22__tree_node_destructorINS_9allocatorIS3_EEEEED2B6v15007Ev DATA
 0002:00011fac 00000008H .xdata$_ZNSt3__110unique_ptrINS_11__tree_nodeIiPvEENS_22__tree_node_destructorINS_9allocatorIS3_EEEEE5resetB6v15007EPS3_ DATA
 0002:00011fb4 00000020H .xdata$_ZNSt3__122__tree_node_destructorINS_9allocatorINS_11__tree_nodeIiPvEEEEEclB6v15007EPS4_ DATA
 0002:00011fd4 00000008H .xdata$_ZNSt3__116allocator_traitsINS_9allocatorINS_11__tree_nodeIiPvEEEEE7destroyB6v15007IivvEEvRS5_PT_ DATA
 0002:00011fdc 00000008H .xdata$_ZNSt3__116allocator_traitsINS_9allocatorINS_11__tree_nodeIiPvEEEEE10deallocateB6v15007ERS5_PS4_y DATA
 0002:00011fe4 00000020H .xdata$_ZNSt3__19allocatorINS_11__tree_nodeIiPvEEE10deallocateB6v15007EPS3_y DATA
 0002:00012004 00000008H .xdata$_ZNSt3__115__tree_iteratorIiPNS_11__tree_nodeIiPvEExEC2B6v15007ES4_ DATA
 0002:0001200c 00000008H .xdata$_ZNSt3__14pairINS_15__tree_iteratorIiPNS_11__tree_nodeIiPvEExEEbEC2B6v15007IS6_RbLS3_0EEEOT_OT0_ DATA
 0002:00012014 00000008H .xdata$_ZNSt3__14pairINS_21__tree_const_iteratorIiPNS_11__tree_nodeIiPvEExEEbEC2B6v15007INS_15__tree_iteratorIiS5_xEEbLS3_0EEEONS0_IT_T0_EE DATA
 0002:0001201c 00000008H .xdata$_ZNSt3__121__tree_const_iteratorIiPNS_11__tree_nodeIiPvEExEC1B6v15007ENS_15__tree_iteratorIiS4_xEE DATA
 0002:00012024 00000008H .xdata$_ZNSt3__121__tree_const_iteratorIiPNS_11__tree_nodeIiPvEExEC2B6v15007ENS_15__tree_iteratorIiS4_xEE DATA
 0002:0001202c 00000008H .xdata$_ZNSt3__16__treeIiNS_4lessIiEENS_9allocatorIiEEE14__erase_uniqueIiEEyRKT_ DATA
 0002:00012034 00000008H .xdata$_ZNSt3__16__treeIiNS_4lessIiEENS_9allocatorIiEEE4findIiEENS_15__tree_iteratorIiPNS_11__tree_nodeIiPvEExEERKT_ DATA
 0002:0001203c 00000008H .xdata$_ZNSt3__1eqB6v15007ERKNS_15__tree_iteratorIiPNS_11__tree_nodeIiPvEExEES7_ DATA
 0002:00012044 00000008H .xdata$_ZNSt3__16__treeIiNS_4lessIiEENS_9allocatorIiEEE3endB6v15007Ev DATA
 0002:0001204c 00000008H .xdata$_ZNSt3__16__treeIiNS_4lessIiEENS_9allocatorIiEEE5eraseENS_21__tree_const_iteratorIiPNS_11__tree_nodeIiPvEExEE DATA
 0002:00012054 00000008H .xdata$_ZNSt3__16__treeIiNS_4lessIiEENS_9allocatorIiEEE13__lower_boundIiEENS_15__tree_iteratorIiPNS_11__tree_nodeIiPvEExEERKT_SB_PNS_15__tree_end_nodeIPNS_16__tree_node_baseIS9_EEEE DATA
 0002:0001205c 00000008H .xdata$_ZNSt3__1neB6v15007ERKNS_15__tree_iteratorIiPNS_11__tree_nodeIiPvEExEES7_ DATA
 0002:00012064 00000008H .xdata$_ZNKSt3__115__tree_iteratorIiPNS_11__tree_nodeIiPvEExEdeB6v15007Ev DATA
 0002:0001206c 00000008H .xdata$_ZNSt3__115__tree_iteratorIiPNS_11__tree_nodeIiPvEExEC1B6v15007EPNS_15__tree_end_nodeIPNS_16__tree_node_baseIS2_EEEE DATA
 0002:00012074 00000008H .xdata$_ZNSt3__115__tree_iteratorIiPNS_11__tree_nodeIiPvEExEC2B6v15007EPNS_15__tree_end_nodeIPNS_16__tree_node_baseIS2_EEEE DATA
 0002:0001207c 00000008H .xdata$_ZNKSt3__115__tree_iteratorIiPNS_11__tree_nodeIiPvEExE8__get_npB6v15007Ev DATA
 0002:00012084 00000008H .xdata$_ZNKSt3__121__tree_const_iteratorIiPNS_11__tree_nodeIiPvEExE8__get_npB6v15007Ev DATA
 0002:0001208c 00000020H .xdata$_ZNSt3__16__treeIiNS_4lessIiEENS_9allocatorIiEEE21__remove_node_pointerEPNS_11__tree_nodeIiPvEE DATA
 0002:000120ac 00000008H .xdata$_ZNSt3__115__tree_iteratorIiPNS_11__tree_nodeIiPvEExEppB6v15007Ev DATA
 0002:000120b4 00000008H .xdata$_ZNSt3__113__tree_removeIPNS_16__tree_node_baseIPvEEEEvT_S5_ DATA
 0002:000120bc 00000008H .xdata$_ZNSt3__116__tree_next_iterB6v15007IPNS_15__tree_end_nodeIPNS_16__tree_node_baseIPvEEEES5_EET_T0_ DATA
 0002:000120c4 00000008H .xdata$_ZNSt3__110__tree_minB6v15007IPNS_16__tree_node_baseIPvEEEET_S5_ DATA
 0002:000120cc 00000008H .xdata$_ZNSt3__111__tree_nextIPNS_16__tree_node_baseIPvEEEET_S5_ DATA
 0002:000120d4 00000008H .xdata$_ZNKSt3__16__treeIiNS_4lessIiEENS_9allocatorIiEEE4sizeB6v15007Ev DATA
 0002:000120dc 00000008H .xdata$_ZNKSt3__117__compressed_pairIyNS_4lessIiEEE5firstB6v15007Ev DATA
 0002:000120e4 00000020H .xdata$_ZNSt3__113unordered_setIiNS_4hashIiEENS_8equal_toIiEENS_9allocatorIiEEEC2B6v15007Ev DATA
 0002:00012104 00000008H .xdata$_ZNSt3__112__hash_tableIiNS_4hashIiEENS_8equal_toIiEENS_9allocatorIiEEEC1Ev DATA
 0002:0001210c 00000008H .xdata$_ZNSt3__119__debug_db_insert_cB6v15007INS_13unordered_setIiNS_4hashIiEENS_8equal_toIiEENS_9allocatorIiEEEEEEvPT_ DATA
 0002:00012114 00000020H .xdata$_ZNSt3__112__hash_tableIiNS_4hashIiEENS_8equal_toIiEENS_9allocatorIiEEEC2Ev DATA
 0002:00012134 00000008H .xdata$_ZNSt3__110unique_ptrIA_PNS_16__hash_node_baseIPNS_11__hash_nodeIiPvEEEENS_25__bucket_list_deallocatorINS_9allocatorIS7_EEEEEC1B6v15007ILb1EvEEv DATA
 0002:0001213c 00000008H .xdata$_ZNSt3__117__compressed_pairINS_16__hash_node_baseIPNS_11__hash_nodeIiPvEEEENS_9allocatorIS4_EEEC1B6v15007ILb1EvEEv DATA
 0002:00012144 00000008H .xdata$_ZNSt3__117__compressed_pairIyNS_4hashIiEEEC1B6v15007IiNS_18__default_init_tagEEEOT_OT0_ DATA
 0002:0001214c 00000008H .xdata$_ZNSt3__117__compressed_pairIfNS_8equal_toIiEEEC1B6v15007IfNS_18__default_init_tagEEEOT_OT0_ DATA
 0002:00012154 00000020H .xdata$_ZNSt3__110unique_ptrIA_PNS_16__hash_node_baseIPNS_11__hash_nodeIiPvEEEENS_25__bucket_list_deallocatorINS_9allocatorIS7_EEEEEC2B6v15007ILb1EvEEv DATA
 0002:00012174 00000008H .xdata$_ZNSt3__117__compressed_pairIPPNS_16__hash_node_baseIPNS_11__hash_nodeIiPvEEEENS_25__bucket_list_deallocatorINS_9allocatorIS7_EEEEEC1B6v15007INS_16__value_init_tagESF_EEOT_OT0_ DATA
 0002:0001217c 00000008H .xdata$_ZNSt3__117__compressed_pairIPPNS_16__hash_node_baseIPNS_11__hash_nodeIiPvEEEENS_25__bucket_list_deallocatorINS_9allocatorIS7_EEEEEC2B6v15007INS_16__value_init_tagESF_EEOT_OT0_ DATA
 0002:00012184 00000008H .xdata$_ZNSt3__122__compressed_pair_elemIPPNS_16__hash_node_baseIPNS_11__hash_nodeIiPvEEEELi0ELb0EEC2B6v15007ENS_16__value_init_tagE DATA
 0002:0001218c 00000008H .xdata$_ZNSt3__122__compressed_pair_elemINS_25__bucket_list_deallocatorINS_9allocatorIPNS_16__hash_node_baseIPNS_11__hash_nodeIiPvEEEEEEEELi1ELb0EEC2B6v15007ENS_16__value_init_tagE DATA
 0002:00012194 00000008H .xdata$_ZNSt3__125__bucket_list_deallocatorINS_9allocatorIPNS_16__hash_node_baseIPNS_11__hash_nodeIiPvEEEEEEEC1B6v15007Ev DATA
 0002:0001219c 00000020H .xdata$_ZNSt3__125__bucket_list_deallocatorINS_9allocatorIPNS_16__hash_node_baseIPNS_11__hash_nodeIiPvEEEEEEEC2B6v15007Ev DATA
 0002:000121bc 00000008H .xdata$_ZNSt3__117__compressed_pairIyNS_9allocatorIPNS_16__hash_node_baseIPNS_11__hash_nodeIiPvEEEEEEEC1B6v15007IiNS_18__default_init_tagEEEOT_OT0_ DATA
 0002:000121c4 00000008H .xdata$_ZNSt3__117__compressed_pairIyNS_9allocatorIPNS_16__hash_node_baseIPNS_11__hash_nodeIiPvEEEEEEEC2B6v15007IiNS_18__default_init_tagEEEOT_OT0_ DATA
 0002:000121cc 00000008H .xdata$_ZNSt3__122__compressed_pair_elemIyLi0ELb0EEC2B6v15007IivEEOT_ DATA
 0002:000121d4 00000008H .xdata$_ZNSt3__122__compressed_pair_elemINS_9allocatorIPNS_16__hash_node_baseIPNS_11__hash_nodeIiPvEEEEEELi1ELb1EEC2B6v15007ENS_18__default_init_tagE DATA
 0002:000121dc 00000008H .xdata$_ZNSt3__19allocatorIPNS_16__hash_node_baseIPNS_11__hash_nodeIiPvEEEEEC2B6v15007Ev DATA
 0002:000121e4 00000008H .xdata$_ZNSt3__116__non_trivial_ifILb1ENS_9allocatorIPNS_16__hash_node_baseIPNS_11__hash_nodeIiPvEEEEEEEC2B6v15007Ev DATA
 0002:000121ec 00000008H .xdata$_ZNSt3__117__compressed_pairINS_16__hash_node_baseIPNS_11__hash_nodeIiPvEEEENS_9allocatorIS4_EEEC2B6v15007ILb1EvEEv DATA
 0002:000121f4 00000008H .xdata$_ZNSt3__122__compressed_pair_elemINS_16__hash_node_baseIPNS_11__hash_nodeIiPvEEEELi0ELb0EEC2B6v15007ENS_16__value_init_tagE DATA
 0002:000121fc 00000008H .xdata$_ZNSt3__122__compressed_pair_elemINS_9allocatorINS_11__hash_nodeIiPvEEEELi1ELb1EEC2B6v15007ENS_16__value_init_tagE DATA
 0002:00012204 00000008H .xdata$_ZNSt3__116__hash_node_baseIPNS_11__hash_nodeIiPvEEEC1B6v15007Ev DATA
 0002:0001220c 00000008H .xdata$_ZNSt3__116__hash_node_baseIPNS_11__hash_nodeIiPvEEEC2B6v15007Ev DATA
 0002:00012214 00000008H .xdata$_ZNSt3__19allocatorINS_11__hash_nodeIiPvEEEC2B6v15007Ev DATA
 0002:0001221c 00000008H .xdata$_ZNSt3__116__non_trivial_ifILb1ENS_9allocatorINS_11__hash_nodeIiPvEEEEEC2B6v15007Ev DATA
 0002:00012224 00000008H .xdata$_ZNSt3__117__compressed_pairIyNS_4hashIiEEEC2B6v15007IiNS_18__default_init_tagEEEOT_OT0_ DATA
 0002:0001222c 00000008H .xdata$_ZNSt3__122__compressed_pair_elemINS_4hashIiEELi1ELb1EEC2B6v15007ENS_18__default_init_tagE DATA
 0002:00012234 00000008H .xdata$_ZNSt3__117__compressed_pairIfNS_8equal_toIiEEEC2B6v15007IfNS_18__default_init_tagEEEOT_OT0_ DATA
 0002:0001223c 00000008H .xdata$_ZNSt3__122__compressed_pair_elemIfLi0ELb0EEC2B6v15007IfvEEOT_ DATA
 0002:00012244 00000008H .xdata$_ZNSt3__122__compressed_pair_elemINS_8equal_toIiEELi1ELb1EEC2B6v15007ENS_18__default_init_tagE DATA
 0002:0001224c 00000008H .xdata$_ZNSt3__113unordered_setIiNS_4hashIiEENS_8equal_toIiEENS_9allocatorIiEEED2B6v15007Ev DATA
 0002:00012254 00000008H .xdata$_ZNSt3__112__hash_tableIiNS_4hashIiEENS_8equal_toIiEENS_9allocatorIiEEED1Ev DATA
 0002:0001225c 00000020H .xdata$_ZNSt3__112__hash_tableIiNS_4hashIiEENS_8equal_toIiEENS_9allocatorIiEEED2Ev DATA
 0002:0001227c 00000008H .xdata$_ZNSt3__112__hash_tableIiNS_4hashIiEENS_8equal_toIiEENS_9allocatorIiEEE17__deallocate_nodeEPNS_16__hash_node_baseIPNS_11__hash_nodeIiPvEEEE DATA
 0002:00012284 00000008H .xdata$_ZNSt3__118__debug_db_erase_cB6v15007INS_12__hash_tableIiNS_4hashIiEENS_8equal_toIiEENS_9allocatorIiEEEEEEvPT_ DATA
 0002:0001228c 00000008H .xdata$_ZNSt3__110unique_ptrIA_PNS_16__hash_node_baseIPNS_11__hash_nodeIiPvEEEENS_25__bucket_list_deallocatorINS_9allocatorIS7_EEEEED1B6v15007Ev DATA
 0002:00012294 00000008H .xdata$_ZNSt3__110unique_ptrIA_PNS_16__hash_node_baseIPNS_11__hash_nodeIiPvEEEENS_25__bucket_list_deallocatorINS_9allocatorIS7_EEEEED2B6v15007Ev DATA
 0002:0001229c 00000008H .xdata$_ZNSt3__110unique_ptrIA_PNS_16__hash_node_baseIPNS_11__hash_nodeIiPvEEEENS_25__bucket_list_deallocatorINS_9allocatorIS7_EEEEE5resetB6v15007EDn DATA
 0002:000122a4 00000008H .xdata$_ZNSt3__16__treeIiNS_4lessIiEENS_9allocatorIiEEE5beginB6v15007Ev DATA
 0002:000122ac 00000008H .xdata$_ZNSt3__1eqB6v15007ERKNS_21__tree_const_iteratorIiPNS_11__tree_nodeIiPvEExEES7_ DATA
 0002:000122b4 00000008H .xdata$_ZNSt3__114priority_queueI4CellNS_6vectorIS1_NS_9allocatorIS1_EEEENS_4lessIS1_EEEC2B6v15007Ev DATA
 0002:000122bc 00000008H .xdata$_ZNSt3__16vectorI4CellNS_9allocatorIS1_EEEC1B6v15007Ev DATA
 0002:000122c4 00000020H .xdata$_ZNSt3__16vectorI4CellNS_9allocatorIS1_EEEC2B6v15007Ev DATA
 0002:000122e4 00000008H .xdata$_ZNSt3__117__compressed_pairIP4CellNS_9allocatorIS1_EEEC1B6v15007IDnNS_18__default_init_tagEEEOT_OT0_ DATA
 0002:000122ec 00000008H .xdata$_ZNSt3__119__debug_db_insert_cB6v15007INS_6vectorI4CellNS_9allocatorIS2_EEEEEEvPT_ DATA
 0002:000122f4 00000008H .xdata$_ZNSt3__117__compressed_pairIP4CellNS_9allocatorIS1_EEEC2B6v15007IDnNS_18__default_init_tagEEEOT_OT0_ DATA
 0002:000122fc 00000008H .xdata$_ZNSt3__122__compressed_pair_elemIP4CellLi0ELb0EEC2B6v15007IDnvEEOT_ DATA
 0002:00012304 00000008H .xdata$_ZNSt3__122__compressed_pair_elemINS_9allocatorI4CellEELi1ELb1EEC2B6v15007ENS_18__default_init_tagE DATA
 0002:0001230c 00000008H .xdata$_ZNSt3__19allocatorI4CellEC2B6v15007Ev DATA
 0002:00012314 00000008H .xdata$_ZNSt3__116__non_trivial_ifILb1ENS_9allocatorI4CellEEEC2B6v15007Ev DATA
 0002:0001231c 00000008H .xdata$_ZNSt3__16vectorI4CellNS_9allocatorIS1_EEE9push_backB6v15007EOS1_ DATA
 0002:00012324 00000008H .xdata$_ZNSt3__19push_heapB6v15007INS_11__wrap_iterIP4CellEENS_4lessIS2_EEEEvT_S7_T0_ DATA
 0002:0001232c 00000008H .xdata$_ZNSt3__16vectorI4CellNS_9allocatorIS1_EEE5beginB6v15007Ev DATA
 0002:00012334 00000008H .xdata$_ZNSt3__16vectorI4CellNS_9allocatorIS1_EEE3endB6v15007Ev DATA
 0002:0001233c 00000008H .xdata$_ZNSt3__16vectorI4CellNS_9allocatorIS1_EEE9__end_capB6v15007Ev DATA
 0002:00012344 0000001cH .xdata$_ZNSt3__16vectorI4CellNS_9allocatorIS1_EEE22__construct_one_at_endB6v15007IJS1_EEEvDpOT_ DATA
 0002:00012360 00000020H .xdata$_ZNSt3__16vectorI4CellNS_9allocatorIS1_EEE21__push_back_slow_pathIS1_EEvOT_ DATA
 0002:00012380 00000008H .xdata$_ZNSt3__117__compressed_pairIP4CellNS_9allocatorIS1_EEE5firstB6v15007Ev DATA
 0002:00012388 00000008H .xdata$_ZNSt3__122__compressed_pair_elemIP4CellLi0ELb0EE5__getB6v15007Ev DATA
 0002:00012390 00000008H .xdata$_ZNSt3__16vectorI4CellNS_9allocatorIS1_EEE21_ConstructTransactionC1ERS4_y DATA
 0002:00012398 00000008H .xdata$_ZNSt3__116allocator_traitsINS_9allocatorI4CellEEE9constructB6v15007IS2_JS2_EvEEvRS3_PT_DpOT0_ DATA
 0002:000123a0 00000008H .xdata$_ZNSt3__16vectorI4CellNS_9allocatorIS1_EEE21_ConstructTransactionD1Ev DATA
 0002:000123a8 00000008H .xdata$_ZNSt3__16vectorI4CellNS_9allocatorIS1_EEE21_ConstructTransactionC2ERS4_y DATA
 0002:000123b0 00000008H .xdata$_ZNSt3__19allocatorI4CellE9constructB6v15007IS1_JS1_EEEvPT_DpOT0_ DATA
 0002:000123b8 00000008H .xdata$_ZNSt3__16vectorI4CellNS_9allocatorIS1_EEE21_ConstructTransactionD2Ev DATA
 0002:000123c0 00000008H .xdata$_ZNKSt3__16vectorI4CellNS_9allocatorIS1_EEE11__recommendB6v15007Ey DATA
 0002:000123c8 00000008H .xdata$_ZNSt3__114__split_bufferI4CellRNS_9allocatorIS1_EEEC1EyyS4_ DATA
 0002:000123d0 00000008H .xdata$_ZNSt3__16vectorI4CellNS_9allocatorIS1_EEE26__swap_out_circular_bufferERNS_14__split_bufferIS1_RS3_EE DATA
 0002:000123d8 00000008H .xdata$_ZNSt3__114__split_bufferI4CellRNS_9allocatorIS1_EEED1Ev DATA
 0002:000123e0 00000020H .xdata$_ZNKSt3__16vectorI4CellNS_9allocatorIS1_EEE8max_sizeEv DATA
 0002:00012400 00000008H .xdata$_ZNKSt3__16vectorI4CellNS_9allocatorIS1_EEE20__throw_length_errorB6v15007Ev DATA
 0002:00012408 00000008H .xdata$_ZNSt3__116allocator_traitsINS_9allocatorI4CellEEE8max_sizeB6v15007IS3_vEEyRKS3_ DATA
 0002:00012410 00000008H .xdata$_ZNKSt3__16vectorI4CellNS_9allocatorIS1_EEE7__allocB6v15007Ev DATA
 0002:00012418 00000008H .xdata$_ZNKSt3__19allocatorI4CellE8max_sizeB6v15007Ev DATA
 0002:00012420 00000008H .xdata$_ZNKSt3__117__compressed_pairIP4CellNS_9allocatorIS1_EEE6secondB6v15007Ev DATA
 0002:00012428 00000008H .xdata$_ZNKSt3__122__compressed_pair_elemINS_9allocatorI4CellEELi1ELb1EE5__getB6v15007Ev DATA
 0002:00012430 00000008H .xdata$_ZNSt3__114__split_bufferI4CellRNS_9allocatorIS1_EEEC2EyyS4_ DATA
 0002:00012438 00000008H .xdata$_ZNSt3__117__compressed_pairIP4CellRNS_9allocatorIS1_EEEC1B6v15007IDnS5_EEOT_OT0_ DATA
 0002:00012440 00000008H .xdata$_ZNSt3__119__allocate_at_leastB6v15007INS_9allocatorI4CellEEEENS_19__allocation_resultINS_16allocator_traitsIT_E7pointerEEERS6_y DATA
 0002:00012448 00000008H .xdata$_ZNSt3__114__split_bufferI4CellRNS_9allocatorIS1_EEE7__allocB6v15007Ev DATA
 0002:00012450 00000008H .xdata$_ZNSt3__114__split_bufferI4CellRNS_9allocatorIS1_EEE9__end_capB6v15007Ev DATA
 0002:00012458 00000008H .xdata$_ZNSt3__117__compressed_pairIP4CellRNS_9allocatorIS1_EEEC2B6v15007IDnS5_EEOT_OT0_ DATA
 0002:00012460 00000008H .xdata$_ZNSt3__122__compressed_pair_elemIRNS_9allocatorI4CellEELi1ELb0EEC2B6v15007IS4_vEEOT_ DATA
 0002:00012468 00000008H .xdata$_ZNSt3__19allocatorI4CellE8allocateB6v15007Ey DATA
 0002:00012470 00000008H .xdata$_ZNSt3__117__compressed_pairIP4CellRNS_9allocatorIS1_EEE6secondB6v15007Ev DATA
 0002:00012478 00000008H .xdata$_ZNSt3__122__compressed_pair_elemIRNS_9allocatorI4CellEELi1ELb0EE5__getB6v15007Ev DATA
 0002:00012480 00000008H .xdata$_ZNSt3__117__compressed_pairIP4CellRNS_9allocatorIS1_EEE5firstB6v15007Ev DATA
 0002:00012488 00000008H .xdata$_ZNSt3__142__uninitialized_allocator_move_if_noexceptB6v15007INS_9allocatorI4CellEENS_16reverse_iteratorIPS2_EES6_S2_vEET1_RT_T0_SA_S7_ DATA
 0002:00012490 00000008H .xdata$_ZNSt3__116reverse_iteratorIP4CellEC1B6v15007ES2_ DATA
 0002:00012498 00000008H .xdata$_ZNKSt3__116reverse_iteratorIP4CellE4baseB6v15007Ev DATA
 0002:000124a0 00000008H .xdata$_ZNSt3__14swapB6v15007IP4CellEENS_9enable_ifIXaasr21is_move_constructibleIT_EE5valuesr18is_move_assignableIS4_EE5valueEvE4typeERS4_S7_ DATA
 0002:000124a8 00000008H .xdata$_ZNKSt3__16vectorI4CellNS_9allocatorIS1_EEE14__annotate_newB6v15007Ey DATA
 0002:000124b0 00000008H .xdata$_ZNSt3__125__debug_db_invalidate_allB6v15007INS_6vectorI4CellNS_9allocatorIS2_EEEEEEvPT_ DATA
 0002:000124b8 00000008H .xdata$_ZNSt3__14moveB6v15007INS_16reverse_iteratorIP4CellEES4_EET0_T_S6_S5_ DATA
 0002:000124c0 00000008H .xdata$_ZNSt3__16__moveB6v15007INS_17_ClassicAlgPolicyENS_16reverse_iteratorIP4CellEES5_S5_EENS_9enable_ifIXaaaasr21is_copy_constructibleIT0_EE5valuesr21is_copy_constructibleIT1_EE5valuesr21is_copy_constructibleIT2_EE5valueENS_4pairIS7_S9_EEE4typeES7_S8_S9_ DATA
 0002:000124c8 00000008H .xdata$_ZNSt3__111__move_implB6v15007INS_17_ClassicAlgPolicyEP4CellS3_Li0EEENS_4pairINS_16reverse_iteratorIT0_EENS5_IT1_EEEES7_S7_S9_ DATA
 0002:000124d0 00000008H .xdata$_ZNSt3__113__unwrap_iterB6v15007INS_16reverse_iteratorIP4CellEENS_18__unwrap_iter_implIS4_Lb0EEELi0EEEDTclsrT0_8__unwrapclsr3stdE7declvalIT_EEEES8_ DATA
 0002:000124d8 00000008H .xdata$_ZNSt3__19make_pairB6v15007INS_16reverse_iteratorIP4CellEES4_EENS_4pairINS_18__unwrap_ref_decayIT_E4typeENS6_IT0_E4typeEEEOS7_OSA_ DATA
 0002:000124e0 00000020H .xdata$_ZNSt3__113__rewrap_iterB6v15007INS_16reverse_iteratorIP4CellEES4_NS_18__unwrap_iter_implIS4_Lb0EEEEET_S7_T0_ DATA
 0002:00012500 00000008H .xdata$_ZNSt3__113__unwrap_iterB6v15007IP4CellNS_18__unwrap_iter_implIS2_Lb1EEELi0EEEDTclsrT0_8__unwrapclsr3stdE7declvalIT_EEEES6_ DATA
 0002:00012508 00000008H .xdata$_ZNSt3__111__move_implB6v15007INS_17_ClassicAlgPolicyE4CellS2_vEENS_4pairIPT0_PT1_EES5_S5_S7_ DATA
 0002:00012510 00000008H .xdata$_ZNSt3__19make_pairB6v15007IRNS_16reverse_iteratorIP4CellEES4_EENS_4pairINS_18__unwrap_ref_decayIT_E4typeENS7_IT0_E4typeEEEOS8_OSB_ DATA
 0002:00012518 00000020H .xdata$_ZNSt3__113__rewrap_iterB6v15007IP4CellS2_NS_18__unwrap_iter_implIS2_Lb1EEEEET_S5_T0_ DATA
 0002:00012538 00000008H .xdata$_ZNSt3__118__unwrap_iter_implIP4CellLb1EE8__unwrapB6v15007ES2_ DATA
 0002:00012540 00000008H .xdata$_ZNSt3__19make_pairB6v15007IP4CellS2_EENS_4pairINS_18__unwrap_ref_decayIT_E4typeENS4_IT0_E4typeEEEOS5_OS8_ DATA
 0002:00012548 00000008H .xdata$_ZNSt3__14pairIP4CellS2_EC1B6v15007IS2_S2_LPv0EEEOT_OT0_ DATA
 0002:00012550 00000008H .xdata$_ZNSt3__14pairIP4CellS2_EC2B6v15007IS2_S2_LPv0EEEOT_OT0_ DATA
 0002:00012558 00000008H .xdata$_ZNSt3__14pairINS_16reverse_iteratorIP4CellEES4_EC1B6v15007IRS4_S4_LPv0EEEOT_OT0_ DATA
 0002:00012560 00000008H .xdata$_ZNSt3__14pairINS_16reverse_iteratorIP4CellEES4_EC2B6v15007IRS4_S4_LPv0EEEOT_OT0_ DATA
 0002:00012568 00000008H .xdata$_ZNSt3__118__unwrap_iter_implIP4CellLb1EE8__rewrapB6v15007ES2_S2_ DATA
 0002:00012570 00000008H .xdata$_ZNSt3__118__unwrap_iter_implINS_16reverse_iteratorIP4CellEELb0EE8__unwrapB6v15007ES4_ DATA
 0002:00012578 00000008H .xdata$_ZNSt3__14pairINS_16reverse_iteratorIP4CellEES4_EC1B6v15007IS4_S4_LPv0EEEOT_OT0_ DATA
 0002:00012580 00000008H .xdata$_ZNSt3__14pairINS_16reverse_iteratorIP4CellEES4_EC2B6v15007IS4_S4_LPv0EEEOT_OT0_ DATA
 0002:00012588 00000008H .xdata$_ZNSt3__118__unwrap_iter_implINS_16reverse_iteratorIP4CellEELb0EE8__rewrapB6v15007ES4_S4_ DATA
 0002:00012590 00000008H .xdata$_ZNSt3__116reverse_iteratorIP4CellEC2B6v15007ES2_ DATA
 0002:00012598 00000020H .xdata$_ZNSt3__114__split_bufferI4CellRNS_9allocatorIS1_EEED2Ev DATA
 0002:000125b8 00000008H .xdata$_ZNSt3__114__split_bufferI4CellRNS_9allocatorIS1_EEE5clearB6v15007Ev DATA
 0002:000125c0 00000008H .xdata$_ZNKSt3__114__split_bufferI4CellRNS_9allocatorIS1_EEE8capacityB6v15007Ev DATA
 0002:000125c8 00000008H .xdata$_ZNSt3__114__split_bufferI4CellRNS_9allocatorIS1_EEE17__destruct_at_endB6v15007EPS1_ DATA
 0002:000125d0 00000020H .xdata$_ZNSt3__114__split_bufferI4CellRNS_9allocatorIS1_EEE17__destruct_at_endB6v15007EPS1_NS_17integral_constantIbLb0EEE DATA
 0002:000125f0 00000008H .xdata$_ZNKSt3__114__split_bufferI4CellRNS_9allocatorIS1_EEE9__end_capB6v15007Ev DATA
 0002:000125f8 00000008H .xdata$_ZNKSt3__117__compressed_pairIP4CellRNS_9allocatorIS1_EEE5firstB6v15007Ev DATA
 0002:00012600 00000008H .xdata$_ZNSt3__111__push_heapB6v15007INS_17_ClassicAlgPolicyENS_11__wrap_iterIP4CellEENS_4lessIS3_EEEEvT0_S8_RT1_ DATA
 0002:00012608 00000008H .xdata$_ZNSt3__1miB6v15007IP4CellS2_EEDTmicldtfp_4baseEcldtfp0_4baseEERKNS_11__wrap_iterIT_EERKNS4_IT0_EE DATA
 0002:00012610 00000008H .xdata$_ZNSt3__19__sift_upB6v15007INS_17_ClassicAlgPolicyERNS_4lessI4CellEENS_11__wrap_iterIPS3_EEEEvT1_S9_OT0_NS_15iterator_traitsIS9_E15difference_typeE DATA
 0002:00012618 00000008H .xdata$_ZNKSt3__111__wrap_iterIP4CellE4baseB6v15007Ev DATA
 0002:00012620 00000008H .xdata$_ZNKSt3__111__wrap_iterIP4CellEplB6v15007Ex DATA
 0002:00012628 00000008H .xdata$_ZNKSt3__14lessI4CellEclB6v15007ERKS1_S4_ DATA
 0002:00012630 00000008H .xdata$_ZNKSt3__111__wrap_iterIP4CellEdeB6v15007Ev DATA
 0002:00012638 00000008H .xdata$_ZNSt3__111__wrap_iterIP4CellEmmB6v15007Ev DATA
 0002:00012640 00000008H .xdata$_ZNSt3__18_IterOpsINS_17_ClassicAlgPolicyEE11__iter_moveB6v15007IRNS_11__wrap_iterIP4CellEEEENS_9enable_ifIXsr12is_referenceIDTdeclsr3stdE7declvalIRT_EEEEE5valueEDTclsr3stdE4movedeclsr3stdE7declvalISB_EEEEE4typeEOSA_ DATA
 0002:00012648 00000008H .xdata$_ZNSt3__111__wrap_iterIP4CellEpLB6v15007Ex DATA
 0002:00012650 00000008H .xdata$_ZNK4CellltERKS_ DATA
 0002:00012658 00000008H .xdata$_ZNSt3__111__wrap_iterIP4CellEC1B6v15007EPKvS2_ DATA
 0002:00012660 00000008H .xdata$_ZNSt3__111__wrap_iterIP4CellEC2B6v15007EPKvS2_ DATA
 0002:00012668 00000008H .xdata$_ZNKSt3__16vectorI4CellNS_9allocatorIS1_EEE5emptyB6v15007Ev DATA
 0002:00012670 00000008H .xdata$_ZNKSt3__16vectorI4CellNS_9allocatorIS1_EEE5frontB6v15007Ev DATA
 0002:00012678 00000008H .xdata$_ZNSt3__18pop_heapB6v15007INS_11__wrap_iterIP4CellEENS_4lessIS2_EEEEvT_S7_T0_ DATA
 0002:00012680 00000008H .xdata$_ZNSt3__16vectorI4CellNS_9allocatorIS1_EEE8pop_backEv DATA
 0002:00012688 00000008H .xdata$_ZNSt3__110__pop_heapB6v15007INS_17_ClassicAlgPolicyENS_4lessI4CellEENS_11__wrap_iterIPS3_EEEEvT1_S8_RT0_NS_15iterator_traitsIS8_E15difference_typeE DATA
 0002:00012690 00000008H .xdata$_ZNSt3__117__floyd_sift_downINS_17_ClassicAlgPolicyERNS_4lessI4CellEENS_11__wrap_iterIPS3_EEEET1_S9_OT0_NS_15iterator_traitsIS9_E15difference_typeE DATA
 0002:00012698 00000008H .xdata$_ZNSt3__1eqB6v15007IP4CellEEbRKNS_11__wrap_iterIT_EES7_ DATA
 0002:000126a0 00000008H .xdata$_ZNSt3__111__wrap_iterIP4CellEppB6v15007Ev DATA
 0002:000126a8 00000020H .xdata$_ZNSt3__16vectorI4CellNS_9allocatorIS1_EEE17__destruct_at_endB6v15007EPS1_ DATA
 0002:000126c8 00000008H .xdata$_ZNSt3__16vectorI4CellNS_9allocatorIS1_EEE27__invalidate_iterators_pastB6v15007EPS1_ DATA
 0002:000126d0 00000008H .xdata$_ZNKSt3__16vectorI4CellNS_9allocatorIS1_EEE17__annotate_shrinkB6v15007Ey DATA
 0002:000126d8 00000020H .xdata$_ZNSt3__16vectorINS0_IiNS_9allocatorIiEEEENS1_IS3_EEEC2ERKS5_ DATA
 0002:000126f8 00000008H .xdata$_ZNSt3__116allocator_traitsINS_9allocatorINS_6vectorIiNS1_IiEEEEEEE37select_on_container_copy_constructionB6v15007IS5_vvEES5_RKS5_ DATA
 0002:00012700 00000008H .xdata$_ZNSt3__117__compressed_pairIPNS_6vectorIiNS_9allocatorIiEEEENS2_IS4_EEEC1B6v15007IDnS6_EEOT_OT0_ DATA
 0002:00012708 0000001cH .xdata$_ZNSt3__16vectorINS0_IiNS_9allocatorIiEEEENS1_IS3_EEE18__construct_at_endIPS3_EENS_9enable_ifIXsr27__is_cpp17_forward_iteratorIT_EE5valueEvE4typeES9_S9_y DATA
 0002:00012724 00000008H .xdata$_ZNSt3__117__compressed_pairIPNS_6vectorIiNS_9allocatorIiEEEENS2_IS4_EEEC2B6v15007IDnS6_EEOT_OT0_ DATA
 0002:0001272c 00000008H .xdata$_ZNSt3__122__compressed_pair_elemINS_9allocatorINS_6vectorIiNS1_IiEEEEEELi1ELb1EEC2B6v15007IS5_vEEOT_ DATA
 0002:00012734 00000034H .xdata$_ZNSt3__130__uninitialized_allocator_copyB6v15007INS_9allocatorINS_6vectorIiNS1_IiEEEEEEPS4_S6_S6_EET2_RT_T0_T1_S7_ DATA
 0002:00012768 00000008H .xdata$_ZNSt3__116allocator_traitsINS_9allocatorINS_6vectorIiNS1_IiEEEEEEE9constructB6v15007IS4_JRS4_EvEEvRS5_PT_DpOT0_ DATA
 0002:00012770 00000008H .xdata$_ZNSt3__129_AllocatorDestroyRangeReverseINS_9allocatorINS_6vectorIiNS1_IiEEEEEEPS4_EC1B6v15007ERS5_RS6_S9_ DATA
 0002:00012778 00000008H .xdata$_ZNKSt3__129_AllocatorDestroyRangeReverseINS_9allocatorINS_6vectorIiNS1_IiEEEEEEPS4_EclB6v15007Ev DATA
 0002:00012780 00000008H .xdata$_ZNSt3__19allocatorINS_6vectorIiNS0_IiEEEEE9constructB6v15007IS3_JRS3_EEEvPT_DpOT0_ DATA
 0002:00012788 00000008H .xdata$_ZNSt3__129_AllocatorDestroyRangeReverseINS_9allocatorINS_6vectorIiNS1_IiEEEEEEPS4_EC2B6v15007ERS5_RS6_S9_ DATA
 0002:00012790 00000008H .xdata$_ZNSt3__119__allocator_destroyB6v15007INS_9allocatorINS_6vectorIiNS1_IiEEEEEENS_16reverse_iteratorIPS4_EES8_EEvRT_T0_T1_ DATA
 0002:00012798 00000008H .xdata$_ZNSt3__116reverse_iteratorIPNS_6vectorIiNS_9allocatorIiEEEEEC1B6v15007ES5_ DATA
 0002:000127a0 00000008H .xdata$_ZNSt3__1neB6v15007IPNS_6vectorIiNS_9allocatorIiEEEES5_EEbRKNS_16reverse_iteratorIT_EERKNS6_IT0_EE DATA
 0002:000127a8 00000008H .xdata$_ZNSt3__112__to_addressB6v15007INS_16reverse_iteratorIPNS_6vectorIiNS_9allocatorIiEEEEEEvEENS_5decayIDTclsr19__to_address_helperIT_EE6__callcl7declvalIRKS9_EEEEE4typeESB_ DATA
 0002:000127b0 00000008H .xdata$_ZNSt3__116reverse_iteratorIPNS_6vectorIiNS_9allocatorIiEEEEEppB6v15007Ev DATA
 0002:000127b8 00000008H .xdata$_ZNKSt3__116reverse_iteratorIPNS_6vectorIiNS_9allocatorIiEEEEE4baseB6v15007Ev DATA
 0002:000127c0 00000020H .xdata$_ZNSt3__119__to_address_helperINS_16reverse_iteratorIPNS_6vectorIiNS_9allocatorIiEEEEEEvE6__callB6v15007ERKS7_ DATA
 0002:000127e0 00000008H .xdata$_ZNKSt3__116reverse_iteratorIPNS_6vectorIiNS_9allocatorIiEEEEEptB6v15007Ev DATA
 0002:000127e8 00000008H .xdata$_ZNKSt3__116reverse_iteratorIPNS_6vectorIiNS_9allocatorIiEEEEEdeB6v15007Ev DATA
 0002:000127f0 00000008H .xdata$_ZNSt3__116reverse_iteratorIPNS_6vectorIiNS_9allocatorIiEEEEEC2B6v15007ES5_ DATA
 0002:000127f8 00000008H .xdata$_ZNSt3__15queueI5StateNS_5dequeIS1_NS_9allocatorIS1_EEEEEC2B6v15007Ev DATA
 0002:00012800 00000008H .xdata$_ZNSt3__15dequeI5StateNS_9allocatorIS1_EEEC1B6v15007Ev DATA
 0002:00012808 00000008H .xdata$_ZNSt3__15dequeI5StateNS_9allocatorIS1_EEEC2B6v15007Ev DATA
 0002:00012810 00000020H .xdata$_ZNSt3__112__deque_baseI5StateNS_9allocatorIS1_EEEC2Ev DATA
 0002:00012830 00000008H .xdata$_ZNSt3__114__split_bufferIP5StateNS_9allocatorIS2_EEEC1Ev DATA
 0002:00012838 00000008H .xdata$_ZNSt3__117__compressed_pairIyNS_9allocatorI5StateEEEC1B6v15007IiNS_18__default_init_tagEEEOT_OT0_ DATA
 0002:00012840 00000020H .xdata$_ZNSt3__114__split_bufferIP5StateNS_9allocatorIS2_EEEC2Ev DATA
 0002:00012860 00000008H .xdata$_ZNSt3__117__compressed_pairIPP5StateNS_9allocatorIS2_EEEC1B6v15007IDnNS_18__default_init_tagEEEOT_OT0_ DATA
 0002:00012868 00000008H .xdata$_ZNSt3__117__compressed_pairIPP5StateNS_9allocatorIS2_EEEC2B6v15007IDnNS_18__default_init_tagEEEOT_OT0_ DATA
 0002:00012870 00000008H .xdata$_ZNSt3__122__compressed_pair_elemIPP5StateLi0ELb0EEC2B6v15007IDnvEEOT_ DATA
 0002:00012878 00000008H .xdata$_ZNSt3__122__compressed_pair_elemINS_9allocatorIP5StateEELi1ELb1EEC2B6v15007ENS_18__default_init_tagE DATA
 0002:00012880 00000008H .xdata$_ZNSt3__19allocatorIP5StateEC2B6v15007Ev DATA
 0002:00012888 00000008H .xdata$_ZNSt3__116__non_trivial_ifILb1ENS_9allocatorIP5StateEEEC2B6v15007Ev DATA
 0002:00012890 00000008H .xdata$_ZNSt3__117__compressed_pairIyNS_9allocatorI5StateEEEC2B6v15007IiNS_18__default_init_tagEEEOT_OT0_ DATA
 0002:00012898 00000008H .xdata$_ZNSt3__122__compressed_pair_elemINS_9allocatorI5StateEELi1ELb1EEC2B6v15007ENS_18__default_init_tagE DATA
 0002:000128a0 00000008H .xdata$_ZNSt3__19allocatorI5StateEC2B6v15007Ev DATA
 0002:000128a8 00000008H .xdata$_ZNSt3__116__non_trivial_ifILb1ENS_9allocatorI5StateEEEC2B6v15007Ev DATA
 0002:000128b0 00000008H .xdata$_ZNSt3__15dequeI5StateNS_9allocatorIS1_EEE9push_backEOS1_ DATA
 0002:000128b8 00000008H .xdata$_ZNKSt3__15dequeI5StateNS_9allocatorIS1_EEE12__back_spareB6v15007Ev DATA
 0002:000128c0 00000028H .xdata$_ZNSt3__15dequeI5StateNS_9allocatorIS1_EEE19__add_back_capacityEv DATA
 0002:000128e8 00000008H .xdata$_ZNSt3__116allocator_traitsINS_9allocatorI5StateEEE9constructB6v15007IS2_JS2_EvEEvRS3_PT_DpOT0_ DATA
 0002:000128f0 00000008H .xdata$_ZNKSt3__15dequeI5StateNS_9allocatorIS1_EEE10__capacityB6v15007Ev DATA
 0002:000128f8 00000008H .xdata$_ZNKSt3__112__deque_baseI5StateNS_9allocatorIS1_EEE4sizeB6v15007Ev DATA
 0002:00012900 00000008H .xdata$_ZNKSt3__117__compressed_pairIyNS_9allocatorI5StateEEE5firstB6v15007Ev DATA
 0002:00012908 00000008H .xdata$_ZNKSt3__15dequeI5StateNS_9allocatorIS1_EEE13__front_spareB6v15007Ev DATA
 0002:00012910 00000024H .xdata$_ZNSt3__114__split_bufferIP5StateNS_9allocatorIS2_EEE9push_backB6v15007ERKS2_ DATA
 0002:00012934 00000008H .xdata$_ZNKSt3__114__split_bufferIP5StateNS_9allocatorIS2_EEE12__back_spareB6v15007Ev DATA
 0002:0001293c 00000024H .xdata$_ZNSt3__114__split_bufferIP5StateNS_9allocatorIS2_EEE9push_backEOS2_ DATA
 0002:00012960 00000008H .xdata$_ZNSt3__116allocator_traitsINS_9allocatorI5StateEEE8allocateB6v15007ERS3_y DATA
 0002:00012968 00000024H .xdata$_ZNSt3__114__split_bufferIP5StateNS_9allocatorIS2_EEE10push_frontEOS2_ DATA
 0002:0001298c 00000008H .xdata$_ZNSt3__114__split_bufferIP5StateRNS_9allocatorIS2_EEEC1EyyS5_ DATA
 0002:00012994 00000008H .xdata$_ZNSt3__122__allocator_destructorINS_9allocatorI5StateEEEC1B6v15007ERS3_y DATA
 0002:0001299c 00000008H .xdata$_ZNSt3__110unique_ptrIP5StateNS_22__allocator_destructorINS_9allocatorIS1_EEEEEC1B6v15007ILb1EvEES2_NS_16__dependent_typeINS_27__unique_ptr_deleter_sfinaeIS6_EEXT_EE20__good_rval_ref_typeE DATA
 0002:000129a4 00000024H .xdata$_ZNSt3__114__split_bufferIP5StateRNS_9allocatorIS2_EEE9push_backEOS2_ DATA
 0002:000129c8 00000008H .xdata$_ZNKSt3__110unique_ptrIP5StateNS_22__allocator_destructorINS_9allocatorIS1_EEEEE3getB6v15007Ev DATA
 0002:000129d0 00000008H .xdata$_ZNSt3__110unique_ptrIP5StateNS_22__allocator_destructorINS_9allocatorIS1_EEEEE7releaseB6v15007Ev DATA
 0002:000129d8 00000024H .xdata$_ZNSt3__114__split_bufferIP5StateRNS_9allocatorIS2_EEE10push_frontERKS2_ DATA
 0002:000129fc 00000008H .xdata$_ZNSt3__14swapB6v15007IPP5StateEENS_9enable_ifIXaasr21is_move_constructibleIT_EE5valuesr18is_move_assignableIS5_EE5valueEvE4typeERS5_S8_ DATA
 0002:00012a04 00000008H .xdata$_ZNSt3__114__split_bufferIP5StateNS_9allocatorIS2_EEE9__end_capB6v15007Ev DATA
 0002:00012a0c 00000008H .xdata$_ZNSt3__114__split_bufferIP5StateRNS_9allocatorIS2_EEE9__end_capB6v15007Ev DATA
 0002:00012a14 00000008H .xdata$_ZNSt3__110unique_ptrIP5StateNS_22__allocator_destructorINS_9allocatorIS1_EEEEED1B6v15007Ev DATA
 0002:00012a1c 00000008H .xdata$_ZNSt3__114__split_bufferIP5StateRNS_9allocatorIS2_EEED1Ev DATA
 0002:00012a24 00000008H .xdata$_ZNSt3__14moveB6v15007IPP5StateS3_EET0_T_S5_S4_ DATA
 0002:00012a2c 00000020H .xdata$_ZNSt3__114__split_bufferIP5StateRNS_9allocatorIS2_EEE18__construct_at_endINS_13move_iteratorIPS2_EEEENS_9enable_ifIXsr27__is_cpp17_forward_iteratorIT_EE5valueEvE4typeESC_SC_ DATA
 0002:00012a4c 00000008H .xdata$_ZNSt3__113move_iteratorIPP5StateEC1B6v15007ES3_ DATA
 0002:00012a54 00000008H .xdata$_ZNSt3__116allocator_traitsINS_9allocatorIP5StateEEE9constructB6v15007IS3_JRKS3_EvEEvRS4_PT_DpOT0_ DATA
 0002:00012a5c 00000008H .xdata$_ZNSt3__16__moveB6v15007INS_17_ClassicAlgPolicyEPP5StateS4_S4_EENS_9enable_ifIXaaaasr21is_copy_constructibleIT0_EE5valuesr21is_copy_constructibleIT1_EE5valuesr21is_copy_constructibleIT2_EE5valueENS_4pairIS6_S8_EEE4typeES6_S7_S8_ DATA
 0002:00012a64 00000008H .xdata$_ZNSt3__111__move_implB6v15007INS_17_ClassicAlgPolicyEP5StateS3_vEENS_4pairIPT0_PT1_EES6_S6_S8_ DATA
 0002:00012a6c 00000008H .xdata$_ZNSt3__113__unwrap_iterB6v15007IPP5StateNS_18__unwrap_iter_implIS3_Lb1EEELi0EEEDTclsrT0_8__unwrapclsr3stdE7declvalIT_EEEES7_ DATA
 0002:00012a74 00000008H .xdata$_ZNSt3__19make_pairB6v15007IPP5StateS3_EENS_4pairINS_18__unwrap_ref_decayIT_E4typeENS5_IT0_E4typeEEEOS6_OS9_ DATA
 0002:00012a7c 00000020H .xdata$_ZNSt3__113__rewrap_iterB6v15007IPP5StateS3_NS_18__unwrap_iter_implIS3_Lb1EEEEET_S6_T0_ DATA
 0002:00012a9c 00000008H .xdata$_ZNSt3__118__unwrap_iter_implIPP5StateLb1EE8__unwrapB6v15007ES3_ DATA
 0002:00012aa4 00000008H .xdata$_ZNSt3__14pairIPP5StateS3_EC1B6v15007IS3_S3_LPv0EEEOT_OT0_ DATA
 0002:00012aac 00000008H .xdata$_ZNSt3__14pairIPP5StateS3_EC2B6v15007IS3_S3_LPv0EEEOT_OT0_ DATA
 0002:00012ab4 00000008H .xdata$_ZNSt3__118__unwrap_iter_implIPP5StateLb1EE8__rewrapB6v15007ES3_S3_ DATA
 0002:00012abc 00000008H .xdata$_ZNSt3__18distanceB6v15007INS_13move_iteratorIPP5StateEEEENS_15iterator_traitsIT_E15difference_typeES7_S7_ DATA
 0002:00012ac4 00000008H .xdata$_ZNSt3__114__split_bufferIP5StateRNS_9allocatorIS2_EEE21_ConstructTransactionC1EPPS2_y DATA
 0002:00012acc 00000008H .xdata$_ZNSt3__116allocator_traitsINS_9allocatorIP5StateEEE9constructB6v15007IS3_JS3_EvEEvRS4_PT_DpOT0_ DATA
 0002:00012ad4 00000008H .xdata$_ZNSt3__114__split_bufferIP5StateRNS_9allocatorIS2_EEE7__allocB6v15007Ev DATA
 0002:00012adc 00000008H .xdata$_ZNKSt3__113move_iteratorIPP5StateEdeB6v15007Ev DATA
 0002:00012ae4 00000008H .xdata$_ZNSt3__113move_iteratorIPP5StateEppB6v15007Ev DATA
 0002:00012aec 00000008H .xdata$_ZNSt3__114__split_bufferIP5StateRNS_9allocatorIS2_EEE21_ConstructTransactionD1Ev DATA
 0002:00012af4 00000008H .xdata$_ZNSt3__110__distanceB6v15007INS_13move_iteratorIPP5StateEEEENS_15iterator_traitsIT_E15difference_typeES7_S7_NS_26random_access_iterator_tagE DATA
 0002:00012afc 00000008H .xdata$_ZNSt3__1miB6v15007IPP5StateS3_EEDTmicldtfp_4baseEcldtfp0_4baseEERKNS_13move_iteratorIT_EERKNS5_IT0_EE DATA
 0002:00012b04 00000008H .xdata$_ZNKSt3__113move_iteratorIPP5StateE4baseB6v15007Ev DATA
 0002:00012b0c 00000008H .xdata$_ZNSt3__114__split_bufferIP5StateRNS_9allocatorIS2_EEE21_ConstructTransactionC2EPPS2_y DATA
 0002:00012b14 00000008H .xdata$_ZNSt3__19allocatorIP5StateE9constructB6v15007IS2_JS2_EEEvPT_DpOT0_ DATA
 0002:00012b1c 00000008H .xdata$_ZNSt3__117__compressed_pairIPP5StateRNS_9allocatorIS2_EEE6secondB6v15007Ev DATA
 0002:00012b24 00000008H .xdata$_ZNSt3__122__compressed_pair_elemIRNS_9allocatorIP5StateEELi1ELb0EE5__getB6v15007Ev DATA
 0002:00012b2c 00000008H .xdata$_ZNSt3__114__split_bufferIP5StateRNS_9allocatorIS2_EEE21_ConstructTransactionD2Ev DATA
 0002:00012b34 00000008H .xdata$_ZNSt3__113move_iteratorIPP5StateEC2B6v15007ES3_ DATA
 0002:00012b3c 00000008H .xdata$_ZNSt3__19allocatorIP5StateE9constructB6v15007IS2_JRKS2_EEEvPT_DpOT0_ DATA
 0002:00012b44 00000008H .xdata$_ZNSt3__19allocatorI5StateE8allocateB6v15007Ey DATA
 0002:00012b4c 00000008H .xdata$_ZNSt3__116allocator_traitsINS_9allocatorI5StateEEE8max_sizeB6v15007IS3_vEEyRKS3_ DATA
 0002:00012b54 00000008H .xdata$_ZNKSt3__19allocatorI5StateE8max_sizeB6v15007Ev DATA
 0002:00012b5c 00000008H .xdata$_ZNSt3__113move_backwardB6v15007IPP5StateS3_EET0_T_S5_S4_ DATA
 0002:00012b64 00000008H .xdata$_ZNSt3__115__move_backwardB6v15007INS_17_ClassicAlgPolicyEPP5StateS4_EET1_T0_S6_S5_ DATA
 0002:00012b6c 00000008H .xdata$_ZNSt3__120__move_backward_implB6v15007INS_17_ClassicAlgPolicyEP5StateS3_EENS_9enable_ifIXaasr7is_sameINS_12remove_constIT0_E4typeET1_EE5valuesr28is_trivially_move_assignableIS9_EE5valueEPS9_E4typeEPS6_SD_SA_ DATA
 0002:00012b74 00000008H .xdata$_ZNSt3__114__split_bufferIP5StateRNS_9allocatorIS2_EEEC2EyyS5_ DATA
 0002:00012b7c 00000008H .xdata$_ZNSt3__117__compressed_pairIPP5StateRNS_9allocatorIS2_EEEC1B6v15007IDnS6_EEOT_OT0_ DATA
 0002:00012b84 00000008H .xdata$_ZNSt3__119__allocate_at_leastB6v15007INS_9allocatorIP5StateEEEENS_19__allocation_resultINS_16allocator_traitsIT_E7pointerEEERS7_y DATA
 0002:00012b8c 00000008H .xdata$_ZNSt3__117__compressed_pairIPP5StateRNS_9allocatorIS2_EEEC2B6v15007IDnS6_EEOT_OT0_ DATA
 0002:00012b94 00000008H .xdata$_ZNSt3__122__compressed_pair_elemIRNS_9allocatorIP5StateEELi1ELb0EEC2B6v15007IS5_vEEOT_ DATA
 0002:00012b9c 00000008H .xdata$_ZNSt3__19allocatorIP5StateE8allocateB6v15007Ey DATA
 0002:00012ba4 00000008H .xdata$_ZNSt3__116allocator_traitsINS_9allocatorIP5StateEEE8max_sizeB6v15007IS4_vEEyRKS4_ DATA
 0002:00012bac 00000008H .xdata$_ZNKSt3__19allocatorIP5StateE8max_sizeB6v15007Ev DATA
 0002:00012bb4 00000008H .xdata$_ZNSt3__122__allocator_destructorINS_9allocatorI5StateEEEC2B6v15007ERS3_y DATA
 0002:00012bbc 00000020H .xdata$_ZNSt3__110unique_ptrIP5StateNS_22__allocator_destructorINS_9allocatorIS1_EEEEEC2B6v15007ILb1EvEES2_NS_16__dependent_typeINS_27__unique_ptr_deleter_sfinaeIS6_EEXT_EE20__good_rval_ref_typeE DATA
 0002:00012bdc 00000008H .xdata$_ZNSt3__117__compressed_pairIP5StateNS_22__allocator_destructorINS_9allocatorIS1_EEEEEC1B6v15007IRS2_S6_EEOT_OT0_ DATA
 0002:00012be4 00000008H .xdata$_ZNSt3__117__compressed_pairIP5StateNS_22__allocator_destructorINS_9allocatorIS1_EEEEEC2B6v15007IRS2_S6_EEOT_OT0_ DATA
 0002:00012bec 00000008H .xdata$_ZNSt3__122__compressed_pair_elemIP5StateLi0ELb0EEC2B6v15007IRS2_vEEOT_ DATA
 0002:00012bf4 00000008H .xdata$_ZNSt3__122__compressed_pair_elemINS_22__allocator_destructorINS_9allocatorI5StateEEEELi1ELb0EEC2B6v15007IS5_vEEOT_ DATA
 0002:00012bfc 00000008H .xdata$_ZNKSt3__117__compressed_pairIP5StateNS_22__allocator_destructorINS_9allocatorIS1_EEEEE5firstB6v15007Ev DATA
 0002:00012c04 00000008H .xdata$_ZNKSt3__122__compressed_pair_elemIP5StateLi0ELb0EE5__getB6v15007Ev DATA
 0002:00012c0c 00000008H .xdata$_ZNSt3__117__compressed_pairIP5StateNS_22__allocator_destructorINS_9allocatorIS1_EEEEE5firstB6v15007Ev DATA
 0002:00012c14 00000008H .xdata$_ZNSt3__122__compressed_pair_elemIP5StateLi0ELb0EE5__getB6v15007Ev DATA
 0002:00012c1c 00000008H .xdata$_ZNSt3__117__compressed_pairIPP5StateNS_9allocatorIS2_EEE5firstB6v15007Ev DATA
 0002:00012c24 00000008H .xdata$_ZNSt3__122__compressed_pair_elemIPP5StateLi0ELb0EE5__getB6v15007Ev DATA
 0002:00012c2c 00000008H .xdata$_ZNSt3__117__compressed_pairIPP5StateRNS_9allocatorIS2_EEE5firstB6v15007Ev DATA
 0002:00012c34 00000008H .xdata$_ZNSt3__110unique_ptrIP5StateNS_22__allocator_destructorINS_9allocatorIS1_EEEEED2B6v15007Ev DATA
 0002:00012c3c 00000008H .xdata$_ZNSt3__110unique_ptrIP5StateNS_22__allocator_destructorINS_9allocatorIS1_EEEEE5resetB6v15007ES2_ DATA
 0002:00012c44 00000008H .xdata$_ZNSt3__117__compressed_pairIP5StateNS_22__allocator_destructorINS_9allocatorIS1_EEEEE6secondB6v15007Ev DATA
 0002:00012c4c 00000008H .xdata$_ZNSt3__122__allocator_destructorINS_9allocatorI5StateEEEclB6v15007EPS2_ DATA
 0002:00012c54 00000008H .xdata$_ZNSt3__122__compressed_pair_elemINS_22__allocator_destructorINS_9allocatorI5StateEEEELi1ELb0EE5__getB6v15007Ev DATA
 0002:00012c5c 00000020H .xdata$_ZNSt3__114__split_bufferIP5StateRNS_9allocatorIS2_EEED2Ev DATA
 0002:00012c7c 00000008H .xdata$_ZNSt3__114__split_bufferIP5StateRNS_9allocatorIS2_EEE5clearB6v15007Ev DATA
 0002:00012c84 00000008H .xdata$_ZNKSt3__114__split_bufferIP5StateRNS_9allocatorIS2_EEE8capacityB6v15007Ev DATA
 0002:00012c8c 00000008H .xdata$_ZNSt3__114__split_bufferIP5StateRNS_9allocatorIS2_EEE17__destruct_at_endB6v15007EPS2_ DATA
 0002:00012c94 00000020H .xdata$_ZNSt3__114__split_bufferIP5StateRNS_9allocatorIS2_EEE17__destruct_at_endB6v15007EPS2_NS_17integral_constantIbLb0EEE DATA
 0002:00012cb4 00000008H .xdata$_ZNKSt3__114__split_bufferIP5StateRNS_9allocatorIS2_EEE9__end_capB6v15007Ev DATA
 0002:00012cbc 00000008H .xdata$_ZNKSt3__117__compressed_pairIPP5StateRNS_9allocatorIS2_EEE5firstB6v15007Ev DATA
 0002:00012cc4 00000008H .xdata$_ZNSt3__19allocatorI5StateE9constructB6v15007IS1_JS1_EEEvPT_DpOT0_ DATA
 0002:00012ccc 00000008H .xdata$_ZN5StateC1EOS_  DATA
 0002:00012cd4 00000008H .xdata$_ZN5StateC2EOS_  DATA
 0002:00012cdc 00000008H .xdata$_ZNSt3__16vectorINS0_IiNS_9allocatorIiEEEENS1_IS3_EEEC1B6v15007EOS5_ DATA
 0002:00012ce4 00000020H .xdata$_ZNSt3__16vectorINS0_IiNS_9allocatorIiEEEENS1_IS3_EEEC2B6v15007EOS5_ DATA
 0002:00012d04 00000008H .xdata$_ZNKSt3__15dequeI5StateNS_9allocatorIS1_EEE5emptyB6v15007Ev DATA
 0002:00012d0c 00000008H .xdata$_ZNSt3__15dequeI5StateNS_9allocatorIS1_EEE5frontEv DATA
 0002:00012d14 00000008H .xdata$_ZNSt3__15dequeI5StateNS_9allocatorIS1_EEE9pop_frontEv DATA
 0002:00012d1c 00000008H .xdata$_ZNSt3__112__to_addressB6v15007I5StateEEPT_S3_ DATA
 0002:00012d24 00000008H .xdata$_ZNSt3__15dequeI5StateNS_9allocatorIS1_EEE26__maybe_remove_front_spareB6v15007Eb DATA
 0002:00012d2c 00000008H .xdata$_ZNKSt3__15dequeI5StateNS_9allocatorIS1_EEE20__front_spare_blocksB6v15007Ev DATA
 0002:00012d34 00000008H .xdata$_ZNSt3__16vectorINS0_IiNS_9allocatorIiEEEENS1_IS3_EEE19__copy_assign_allocB6v15007ERKS5_ DATA
 0002:00012d3c 00000008H .xdata$_ZNSt3__16vectorINS0_IiNS_9allocatorIiEEEENS1_IS3_EEE6assignIPS3_EENS_9enable_ifIXaasr27__is_cpp17_forward_iteratorIT_EE5valuesr16is_constructibleIS3_NS_15iterator_traitsIS9_E9referenceEEE5valueEvE4typeES9_S9_ DATA
 0002:00012d44 00000008H .xdata$_ZNSt3__16vectorINS0_IiNS_9allocatorIiEEEENS1_IS3_EEE19__copy_assign_allocB6v15007ERKS5_NS_17integral_constantIbLb0EEE DATA
 0002:00012d4c 00000008H .xdata$_ZNSt3__18distanceB6v15007IPNS_6vectorIiNS_9allocatorIiEEEEEENS_15iterator_traitsIT_E15difference_typeES7_S7_ DATA
 0002:00012d54 00000008H .xdata$_ZNSt3__17advanceB6v15007IPNS_6vectorIiNS_9allocatorIiEEEEyyvEEvRT_T0_ DATA
 0002:00012d5c 00000008H .xdata$_ZNSt3__14copyB6v15007IPNS_6vectorIiNS_9allocatorIiEEEES5_EET0_T_S7_S6_ DATA
 0002:00012d64 00000020H .xdata$_ZNSt3__16vectorINS0_IiNS_9allocatorIiEEEENS1_IS3_EEE17__destruct_at_endB6v15007EPS3_ DATA
 0002:00012d84 00000008H .xdata$_ZNKSt3__16vectorINS0_IiNS_9allocatorIiEEEENS1_IS3_EEE11__recommendB6v15007Ey DATA
 0002:00012d8c 00000008H .xdata$_ZNSt3__110__distanceB6v15007IPNS_6vectorIiNS_9allocatorIiEEEEEENS_15iterator_traitsIT_E15difference_typeES7_S7_NS_26random_access_iterator_tagE DATA
 0002:00012d94 00000008H .xdata$_ZNSt3__121__convert_to_integralB6v15007Ey DATA
 0002:00012d9c 00000008H .xdata$_ZNSt3__19__advanceB6v15007IPNS_6vectorIiNS_9allocatorIiEEEEEEvRT_NS_15iterator_traitsIS6_E15difference_typeENS_26random_access_iterator_tagE DATA
 0002:00012da4 00000008H .xdata$_ZNSt3__16__copyB6v15007IPNS_6vectorIiNS_9allocatorIiEEEES5_S5_Li0EEENS_4pairIT_T1_EES7_T0_S8_ DATA
 0002:00012dac 00000008H .xdata$_ZNSt3__114__unwrap_rangeB6v15007IPNS_6vectorIiNS_9allocatorIiEEEES5_EENS_4pairIT0_S7_EET_S9_ DATA
 0002:00012db4 00000008H .xdata$_ZNSt3__111__copy_implB6v15007IPNS_6vectorIiNS_9allocatorIiEEEES5_S5_EENS_4pairIT_T1_EES7_T0_S8_ DATA
 0002:00012dbc 00000008H .xdata$_ZNSt3__113__unwrap_iterB6v15007IPNS_6vectorIiNS_9allocatorIiEEEENS_18__unwrap_iter_implIS5_Lb1EEELi0EEEDTclsrT0_8__unwrapclsr3stdE7declvalIT_EEEES9_ DATA
 0002:00012dc4 00000008H .xdata$_ZNSt3__19make_pairB6v15007IPNS_6vectorIiNS_9allocatorIiEEEES5_EENS_4pairINS_18__unwrap_ref_decayIT_E4typeENS7_IT0_E4typeEEEOS8_OSB_ DATA
 0002:00012dcc 00000008H .xdata$_ZNSt3__114__rewrap_rangeB6v15007IPNS_6vectorIiNS_9allocatorIiEEEES5_EET_S6_T0_ DATA
 0002:00012dd4 00000020H .xdata$_ZNSt3__113__rewrap_iterB6v15007IPNS_6vectorIiNS_9allocatorIiEEEES5_NS_18__unwrap_iter_implIS5_Lb1EEEEET_S8_T0_ DATA
 0002:00012df4 00000008H .xdata$_ZNSt3__16vectorIiNS_9allocatorIiEEEaSB6v15007ERKS3_ DATA
 0002:00012dfc 00000008H .xdata$_ZNSt3__14pairIPNS_6vectorIiNS_9allocatorIiEEEES5_EC1B6v15007IS5_S5_LPv0EEEOT_OT0_ DATA
 0002:00012e04 00000008H .xdata$_ZNSt3__16vectorIiNS_9allocatorIiEEE19__copy_assign_allocB6v15007ERKS3_ DATA
 0002:00012e0c 00000008H .xdata$_ZNSt3__16vectorIiNS_9allocatorIiEEE6assignIPiEENS_9enable_ifIXaasr27__is_cpp17_forward_iteratorIT_EE5valuesr16is_constructibleIiNS_15iterator_traitsIS7_E9referenceEEE5valueEvE4typeES7_S7_ DATA
 0002:00012e14 00000008H .xdata$_ZNSt3__16vectorIiNS_9allocatorIiEEE19__copy_assign_allocB6v15007ERKS3_NS_17integral_constantIbLb0EEE DATA
 0002:00012e1c 00000008H .xdata$_ZNSt3__18distanceB6v15007IPiEENS_15iterator_traitsIT_E15difference_typeES3_S3_ DATA
 0002:00012e24 00000008H .xdata$_ZNSt3__17advanceB6v15007IPiyyvEEvRT_T0_ DATA
 0002:00012e2c 00000008H .xdata$_ZNSt3__14copyB6v15007IPiS1_EET0_T_S3_S2_ DATA
 0002:00012e34 00000020H .xdata$_ZNSt3__16vectorIiNS_9allocatorIiEEE17__destruct_at_endB6v15007EPi DATA
 0002:00012e54 00000008H .xdata$_ZNSt3__16vectorIiNS_9allocatorIiEEE13__vdeallocateEv DATA
 0002:00012e5c 00000008H .xdata$_ZNKSt3__16vectorIiNS_9allocatorIiEEE11__recommendB6v15007Ey DATA
 0002:00012e64 00000008H .xdata$_ZNSt3__125__debug_db_invalidate_allB6v15007INS_6vectorIiNS_9allocatorIiEEEEEEvPT_ DATA
 0002:00012e6c 00000008H .xdata$_ZNSt3__110__distanceB6v15007IPiEENS_15iterator_traitsIT_E15difference_typeES3_S3_NS_26random_access_iterator_tagE DATA
 0002:00012e74 00000008H .xdata$_ZNSt3__19__advanceB6v15007IPiEEvRT_NS_15iterator_traitsIS2_E15difference_typeENS_26random_access_iterator_tagE DATA
 0002:00012e7c 00000008H .xdata$_ZNSt3__16__copyB6v15007IPiS1_S1_Li0EEENS_4pairIT_T1_EES3_T0_S4_ DATA
 0002:00012e84 00000008H .xdata$_ZNSt3__114__unwrap_rangeB6v15007IPiS1_EENS_4pairIT0_S3_EET_S5_ DATA
 0002:00012e8c 00000008H .xdata$_ZNSt3__111__copy_implB6v15007IiivEENS_4pairIPT_PT0_EES3_S3_S5_ DATA
 0002:00012e94 00000008H .xdata$_ZNSt3__19make_pairB6v15007IPiS1_EENS_4pairINS_18__unwrap_ref_decayIT_E4typeENS3_IT0_E4typeEEEOS4_OS7_ DATA
 0002:00012e9c 00000008H .xdata$_ZNSt3__114__rewrap_rangeB6v15007IPiS1_EET_S2_T0_ DATA
 0002:00012ea4 00000008H .xdata$_ZNSt3__14pairIPiS1_EC1B6v15007IS1_S1_LPv0EEEOT_OT0_ DATA
 0002:00012eac 00000008H .xdata$_ZNSt3__14pairIPiS1_EC2B6v15007IS1_S1_LPv0EEEOT_OT0_ DATA
 0002:00012eb4 00000008H .xdata$_ZNSt3__16vectorIiNS_9allocatorIiEEE27__invalidate_iterators_pastB6v15007EPi DATA
 0002:00012ebc 00000008H .xdata$_ZNKSt3__16vectorIiNS_9allocatorIiEEE17__annotate_shrinkB6v15007Ey DATA
 0002:00012ec4 00000020H .xdata$_ZNSt3__16vectorIiNS_9allocatorIiEEE5clearB6v15007Ev DATA
 0002:00012ee4 00000008H .xdata$_ZNSt3__14pairIPNS_6vectorIiNS_9allocatorIiEEEES5_EC2B6v15007IS5_S5_LPv0EEEOT_OT0_ DATA
 0002:00012eec 00000008H .xdata$_ZNSt3__118__unwrap_iter_implIPNS_6vectorIiNS_9allocatorIiEEEELb1EE8__unwrapB6v15007ES5_ DATA
 0002:00012ef4 00000008H .xdata$_ZNSt3__118__unwrap_iter_implIPNS_6vectorIiNS_9allocatorIiEEEELb1EE8__rewrapB6v15007ES5_S5_ DATA
 0002:00012efc 00000008H .xdata$_ZNSt3__16vectorINS0_IiNS_9allocatorIiEEEENS1_IS3_EEE27__invalidate_iterators_pastB6v15007EPS3_ DATA
 0002:00012f04 00000020H .xdata$_ZNSt3__16vectorINS_3setIiNS_4lessIiEENS_9allocatorIiEEEENS4_IS6_EEEC2Ey DATA
 0002:00012f24 00000008H .xdata$_ZNSt3__117__compressed_pairIPNS_3setIiNS_4lessIiEENS_9allocatorIiEEEENS4_IS6_EEEC1B6v15007IDnNS_18__default_init_tagEEEOT_OT0_ DATA
 0002:00012f2c 00000008H .xdata$_ZNSt3__118__make_transactionB6v15007INS_6vectorINS_3setIiNS_4lessIiEENS_9allocatorIiEEEENS5_IS7_EEE16__destroy_vectorEEENS_13__transactionIT_EESC_ DATA
 0002:00012f34 00000008H .xdata$_ZNSt3__16vectorINS_3setIiNS_4lessIiEENS_9allocatorIiEEEENS4_IS6_EEE16__destroy_vectorC1ERS8_ DATA
 0002:00012f3c 00000008H .xdata$_ZNSt3__119__debug_db_insert_cB6v15007INS_6vectorINS_3setIiNS_4lessIiEENS_9allocatorIiEEEENS5_IS7_EEEEEEvPT_ DATA
 0002:00012f44 00000008H .xdata$_ZNSt3__16vectorINS_3setIiNS_4lessIiEENS_9allocatorIiEEEENS4_IS6_EEE11__vallocateB6v15007Ey DATA
 0002:00012f4c 00000020H .xdata$_ZNSt3__16vectorINS_3setIiNS_4lessIiEENS_9allocatorIiEEEENS4_IS6_EEE18__construct_at_endEy DATA
 0002:00012f6c 00000008H .xdata$_ZNSt3__113__transactionINS_6vectorINS_3setIiNS_4lessIiEENS_9allocatorIiEEEENS5_IS7_EEE16__destroy_vectorEE10__completeB6v15007Ev DATA
 0002:00012f74 00000008H .xdata$_ZNSt3__113__transactionINS_6vectorINS_3setIiNS_4lessIiEENS_9allocatorIiEEEENS5_IS7_EEE16__destroy_vectorEED1B6v15007Ev DATA
 0002:00012f7c 00000008H .xdata$_ZNSt3__117__compressed_pairIPNS_3setIiNS_4lessIiEENS_9allocatorIiEEEENS4_IS6_EEEC2B6v15007IDnNS_18__default_init_tagEEEOT_OT0_ DATA
 0002:00012f84 00000008H .xdata$_ZNSt3__122__compressed_pair_elemIPNS_3setIiNS_4lessIiEENS_9allocatorIiEEEELi0ELb0EEC2B6v15007IDnvEEOT_ DATA
 0002:00012f8c 00000008H .xdata$_ZNSt3__122__compressed_pair_elemINS_9allocatorINS_3setIiNS_4lessIiEENS1_IiEEEEEELi1ELb1EEC2B6v15007ENS_18__default_init_tagE DATA
 0002:00012f94 00000008H .xdata$_ZNSt3__19allocatorINS_3setIiNS_4lessIiEENS0_IiEEEEEC2B6v15007Ev DATA
 0002:00012f9c 00000008H .xdata$_ZNSt3__116__non_trivial_ifILb1ENS_9allocatorINS_3setIiNS_4lessIiEENS1_IiEEEEEEEC2B6v15007Ev DATA
 0002:00012fa4 00000008H .xdata$_ZNSt3__113__transactionINS_6vectorINS_3setIiNS_4lessIiEENS_9allocatorIiEEEENS5_IS7_EEE16__destroy_vectorEEC1B6v15007ESA_ DATA
 0002:00012fac 00000008H .xdata$_ZNSt3__113__transactionINS_6vectorINS_3setIiNS_4lessIiEENS_9allocatorIiEEEENS5_IS7_EEE16__destroy_vectorEEC2B6v15007ESA_ DATA
 0002:00012fb4 00000008H .xdata$_ZNSt3__16vectorINS_3setIiNS_4lessIiEENS_9allocatorIiEEEENS4_IS6_EEE16__destroy_vectorC2ERS8_ DATA
 0002:00012fbc 00000020H .xdata$_ZNKSt3__16vectorINS_3setIiNS_4lessIiEENS_9allocatorIiEEEENS4_IS6_EEE8max_sizeEv DATA
 0002:00012fdc 00000008H .xdata$_ZNKSt3__16vectorINS_3setIiNS_4lessIiEENS_9allocatorIiEEEENS4_IS6_EEE20__throw_length_errorB6v15007Ev DATA
 0002:00012fe4 00000008H .xdata$_ZNSt3__119__allocate_at_leastB6v15007INS_9allocatorINS_3setIiNS_4lessIiEENS1_IiEEEEEEEENS_19__allocation_resultINS_16allocator_traitsIT_E7pointerEEERSA_y DATA
 0002:00012fec 00000008H .xdata$_ZNSt3__16vectorINS_3setIiNS_4lessIiEENS_9allocatorIiEEEENS4_IS6_EEE7__allocB6v15007Ev DATA
 0002:00012ff4 00000008H .xdata$_ZNSt3__16vectorINS_3setIiNS_4lessIiEENS_9allocatorIiEEEENS4_IS6_EEE9__end_capB6v15007Ev DATA
 0002:00012ffc 00000008H .xdata$_ZNKSt3__16vectorINS_3setIiNS_4lessIiEENS_9allocatorIiEEEENS4_IS6_EEE14__annotate_newB6v15007Ey DATA
 0002:00013004 00000008H .xdata$_ZNSt3__116allocator_traitsINS_9allocatorINS_3setIiNS_4lessIiEENS1_IiEEEEEEE8max_sizeB6v15007IS7_vEEyRKS7_ DATA
 0002:0001300c 00000008H .xdata$_ZNKSt3__16vectorINS_3setIiNS_4lessIiEENS_9allocatorIiEEEENS4_IS6_EEE7__allocB6v15007Ev DATA
 0002:00013014 00000008H .xdata$_ZNKSt3__19allocatorINS_3setIiNS_4lessIiEENS0_IiEEEEE8max_sizeB6v15007Ev DATA
 0002:0001301c 00000008H .xdata$_ZNKSt3__117__compressed_pairIPNS_3setIiNS_4lessIiEENS_9allocatorIiEEEENS4_IS6_EEE6secondB6v15007Ev DATA
 0002:00013024 00000008H .xdata$_ZNKSt3__122__compressed_pair_elemINS_9allocatorINS_3setIiNS_4lessIiEENS1_IiEEEEEELi1ELb1EE5__getB6v15007Ev DATA
 0002:0001302c 00000008H .xdata$_ZNSt3__19allocatorINS_3setIiNS_4lessIiEENS0_IiEEEEE8allocateB6v15007Ey DATA
 0002:00013034 00000008H .xdata$_ZNSt3__117__compressed_pairIPNS_3setIiNS_4lessIiEENS_9allocatorIiEEEENS4_IS6_EEE6secondB6v15007Ev DATA
 0002:0001303c 00000008H .xdata$_ZNSt3__122__compressed_pair_elemINS_9allocatorINS_3setIiNS_4lessIiEENS1_IiEEEEEELi1ELb1EE5__getB6v15007Ev DATA
 0002:00013044 00000008H .xdata$_ZNSt3__117__compressed_pairIPNS_3setIiNS_4lessIiEENS_9allocatorIiEEEENS4_IS6_EEE5firstB6v15007Ev DATA
 0002:0001304c 00000008H .xdata$_ZNSt3__122__compressed_pair_elemIPNS_3setIiNS_4lessIiEENS_9allocatorIiEEEELi0ELb0EE5__getB6v15007Ev DATA
 0002:00013054 00000008H .xdata$_ZNKSt3__16vectorINS_3setIiNS_4lessIiEENS_9allocatorIiEEEENS4_IS6_EEE31__annotate_contiguous_containerB6v15007EPKvSA_SA_SA_ DATA
 0002:0001305c 00000008H .xdata$_ZNKSt3__16vectorINS_3setIiNS_4lessIiEENS_9allocatorIiEEEENS4_IS6_EEE4dataB6v15007Ev DATA
 0002:00013064 00000008H .xdata$_ZNKSt3__16vectorINS_3setIiNS_4lessIiEENS_9allocatorIiEEEENS4_IS6_EEE8capacityB6v15007Ev DATA
 0002:0001306c 00000008H .xdata$_ZNSt3__112__to_addressB6v15007INS_3setIiNS_4lessIiEENS_9allocatorIiEEEEEEPT_S8_ DATA
 0002:00013074 00000008H .xdata$_ZNKSt3__16vectorINS_3setIiNS_4lessIiEENS_9allocatorIiEEEENS4_IS6_EEE9__end_capB6v15007Ev DATA
 0002:0001307c 00000008H .xdata$_ZNKSt3__117__compressed_pairIPNS_3setIiNS_4lessIiEENS_9allocatorIiEEEENS4_IS6_EEE5firstB6v15007Ev DATA
 0002:00013084 00000008H .xdata$_ZNKSt3__122__compressed_pair_elemIPNS_3setIiNS_4lessIiEENS_9allocatorIiEEEELi0ELb0EE5__getB6v15007Ev DATA
 0002:0001308c 00000008H .xdata$_ZNSt3__16vectorINS_3setIiNS_4lessIiEENS_9allocatorIiEEEENS4_IS6_EEE21_ConstructTransactionC1ERS8_y DATA
 0002:00013094 00000008H .xdata$_ZNSt3__116allocator_traitsINS_9allocatorINS_3setIiNS_4lessIiEENS1_IiEEEEEEE9constructB6v15007IS6_JEvEEvRS7_PT_DpOT0_ DATA
 0002:0001309c 00000008H .xdata$_ZNSt3__16vectorINS_3setIiNS_4lessIiEENS_9allocatorIiEEEENS4_IS6_EEE21_ConstructTransactionD1Ev DATA
 0002:000130a4 00000008H .xdata$_ZNSt3__16vectorINS_3setIiNS_4lessIiEENS_9allocatorIiEEEENS4_IS6_EEE21_ConstructTransactionC2ERS8_y DATA
 0002:000130ac 00000008H .xdata$_ZNSt3__19allocatorINS_3setIiNS_4lessIiEENS0_IiEEEEE9constructB6v15007IS5_JEEEvPT_DpOT0_ DATA
 0002:000130b4 00000008H .xdata$_ZNSt3__13setIiNS_4lessIiEENS_9allocatorIiEEEC1B6v15007Ev DATA
 0002:000130bc 00000008H .xdata$_ZNSt3__13setIiNS_4lessIiEENS_9allocatorIiEEEC2B6v15007Ev DATA
 0002:000130c4 00000008H .xdata$_ZNSt3__16__treeIiNS_4lessIiEENS_9allocatorIiEEEC1ERKS2_ DATA
 0002:000130cc 00000020H .xdata$_ZNSt3__16__treeIiNS_4lessIiEENS_9allocatorIiEEEC2ERKS2_ DATA
 0002:000130ec 00000008H .xdata$_ZNSt3__117__compressed_pairINS_15__tree_end_nodeIPNS_16__tree_node_baseIPvEEEENS_9allocatorINS_11__tree_nodeIiS3_EEEEEC1B6v15007ILb1EvEEv DATA
 0002:000130f4 00000008H .xdata$_ZNSt3__117__compressed_pairIyNS_4lessIiEEEC1B6v15007IiRKS2_EEOT_OT0_ DATA
 0002:000130fc 00000008H .xdata$_ZNSt3__117__compressed_pairINS_15__tree_end_nodeIPNS_16__tree_node_baseIPvEEEENS_9allocatorINS_11__tree_nodeIiS3_EEEEEC2B6v15007ILb1EvEEv DATA
 0002:00013104 00000008H .xdata$_ZNSt3__122__compressed_pair_elemINS_15__tree_end_nodeIPNS_16__tree_node_baseIPvEEEELi0ELb0EEC2B6v15007ENS_16__value_init_tagE DATA
 0002:0001310c 00000008H .xdata$_ZNSt3__122__compressed_pair_elemINS_9allocatorINS_11__tree_nodeIiPvEEEELi1ELb1EEC2B6v15007ENS_16__value_init_tagE DATA
 0002:00013114 00000008H .xdata$_ZNSt3__115__tree_end_nodeIPNS_16__tree_node_baseIPvEEEC1B6v15007Ev DATA
 0002:0001311c 00000008H .xdata$_ZNSt3__115__tree_end_nodeIPNS_16__tree_node_baseIPvEEEC2B6v15007Ev DATA
 0002:00013124 00000008H .xdata$_ZNSt3__19allocatorINS_11__tree_nodeIiPvEEEC2B6v15007Ev DATA
 0002:0001312c 00000008H .xdata$_ZNSt3__116__non_trivial_ifILb1ENS_9allocatorINS_11__tree_nodeIiPvEEEEEC2B6v15007Ev DATA
 0002:00013134 00000008H .xdata$_ZNSt3__117__compressed_pairIyNS_4lessIiEEEC2B6v15007IiRKS2_EEOT_OT0_ DATA
 0002:0001313c 00000008H .xdata$_ZNSt3__122__compressed_pair_elemINS_4lessIiEELi1ELb1EEC2B6v15007IRKS2_vEEOT_ DATA
 0002:00013144 00000008H .xdata$_ZNSt3__16vectorINS_3setIiNS_4lessIiEENS_9allocatorIiEEEENS4_IS6_EEE21_ConstructTransactionD2Ev DATA
 0002:0001314c 00000020H .xdata$_ZNSt3__113__transactionINS_6vectorINS_3setIiNS_4lessIiEENS_9allocatorIiEEEENS5_IS7_EEE16__destroy_vectorEED2B6v15007Ev DATA
 0002:0001316c 00000008H .xdata$_ZNSt3__16vectorINS_3setIiNS_4lessIiEENS_9allocatorIiEEEENS4_IS6_EEE16__destroy_vectorclB6v15007Ev DATA
 0002:00013174 00000008H .xdata$_ZNKSt3__16vectorINS_3setIiNS_4lessIiEENS_9allocatorIiEEEENS4_IS6_EEE17__annotate_deleteB6v15007Ev DATA
 0002:0001317c 00000008H .xdata$_ZNSt3__118__debug_db_erase_cB6v15007INS_6vectorINS_3setIiNS_4lessIiEENS_9allocatorIiEEEENS5_IS7_EEEEEEvPT_ DATA
 0002:00013184 00000008H .xdata$_ZNSt3__16vectorINS_3setIiNS_4lessIiEENS_9allocatorIiEEEENS4_IS6_EEE7__clearB6v15007Ev DATA
 0002:0001318c 00000008H .xdata$_ZNSt3__116allocator_traitsINS_9allocatorINS_3setIiNS_4lessIiEENS1_IiEEEEEEE10deallocateB6v15007ERS7_PS6_y DATA
 0002:00013194 00000008H .xdata$_ZNKSt3__16vectorINS_3setIiNS_4lessIiEENS_9allocatorIiEEEENS4_IS6_EEE4sizeB6v15007Ev DATA
 0002:0001319c 00000020H .xdata$_ZNSt3__16vectorINS_3setIiNS_4lessIiEENS_9allocatorIiEEEENS4_IS6_EEE22__base_destruct_at_endB6v15007EPS6_ DATA
 0002:000131bc 00000008H .xdata$_ZNSt3__116allocator_traitsINS_9allocatorINS_3setIiNS_4lessIiEENS1_IiEEEEEEE7destroyB6v15007IS6_vEEvRS7_PT_ DATA
 0002:000131c4 00000008H .xdata$_ZNSt3__19allocatorINS_3setIiNS_4lessIiEENS0_IiEEEEE7destroyB6v15007EPS5_ DATA
 0002:000131cc 00000008H .xdata$_ZNSt3__13setIiNS_4lessIiEENS_9allocatorIiEEED1B6v15007Ev DATA
 0002:000131d4 00000008H .xdata$_ZNSt3__13setIiNS_4lessIiEENS_9allocatorIiEEED2B6v15007Ev DATA
 0002:000131dc 00000008H .xdata$_ZNSt3__16__treeIiNS_4lessIiEENS_9allocatorIiEEED1Ev DATA
 0002:000131e4 00000008H .xdata$_ZNSt3__16__treeIiNS_4lessIiEENS_9allocatorIiEEED2Ev DATA
 0002:000131ec 00000008H .xdata$_ZNSt3__16__treeIiNS_4lessIiEENS_9allocatorIiEEE7destroyEPNS_11__tree_nodeIiPvEE DATA
 0002:000131f4 00000020H .xdata$_ZNSt3__19allocatorINS_3setIiNS_4lessIiEENS0_IiEEEEE10deallocateB6v15007EPS5_y DATA
 0002:00013214 00000020H .xdata$_ZNSt3__16vectorINS_3setIiNS_4lessIiEENS_9allocatorIiEEEENS4_IS6_EEED2B6v15007Ev DATA
 0002:00013234 00000020H .xdata$_ZNSt3__16vectorINS0_INS_3setIiNS_4lessIiEENS_9allocatorIiEEEENS4_IS6_EEEENS4_IS8_EEEC2EyRKS8_ DATA
 0002:00013254 00000008H .xdata$_ZNSt3__117__compressed_pairIPNS_6vectorINS_3setIiNS_4lessIiEENS_9allocatorIiEEEENS5_IS7_EEEENS5_IS9_EEEC1B6v15007IDnNS_18__default_init_tagEEEOT_OT0_ DATA
 0002:0001325c 00000008H .xdata$_ZNSt3__118__make_transactionB6v15007INS_6vectorINS1_INS_3setIiNS_4lessIiEENS_9allocatorIiEEEENS5_IS7_EEEENS5_IS9_EEE16__destroy_vectorEEENS_13__transactionIT_EESE_ DATA
 0002:00013264 00000008H .xdata$_ZNSt3__16vectorINS0_INS_3setIiNS_4lessIiEENS_9allocatorIiEEEENS4_IS6_EEEENS4_IS8_EEE16__destroy_vectorC1ERSA_ DATA
 0002:0001326c 00000008H .xdata$_ZNSt3__119__debug_db_insert_cB6v15007INS_6vectorINS1_INS_3setIiNS_4lessIiEENS_9allocatorIiEEEENS5_IS7_EEEENS5_IS9_EEEEEEvPT_ DATA
 0002:00013274 00000008H .xdata$_ZNSt3__16vectorINS0_INS_3setIiNS_4lessIiEENS_9allocatorIiEEEENS4_IS6_EEEENS4_IS8_EEE11__vallocateB6v15007Ey DATA
 0002:0001327c 00000020H .xdata$_ZNSt3__16vectorINS0_INS_3setIiNS_4lessIiEENS_9allocatorIiEEEENS4_IS6_EEEENS4_IS8_EEE18__construct_at_endEyRKS8_ DATA
 0002:0001329c 00000008H .xdata$_ZNSt3__113__transactionINS_6vectorINS1_INS_3setIiNS_4lessIiEENS_9allocatorIiEEEENS5_IS7_EEEENS5_IS9_EEE16__destroy_vectorEE10__completeB6v15007Ev DATA
 0002:000132a4 00000008H .xdata$_ZNSt3__113__transactionINS_6vectorINS1_INS_3setIiNS_4lessIiEENS_9allocatorIiEEEENS5_IS7_EEEENS5_IS9_EEE16__destroy_vectorEED1B6v15007Ev DATA
 0002:000132ac 00000008H .xdata$_ZNSt3__117__compressed_pairIPNS_6vectorINS_3setIiNS_4lessIiEENS_9allocatorIiEEEENS5_IS7_EEEENS5_IS9_EEEC2B6v15007IDnNS_18__default_init_tagEEEOT_OT0_ DATA
 0002:000132b4 00000008H .xdata$_ZNSt3__122__compressed_pair_elemIPNS_6vectorINS_3setIiNS_4lessIiEENS_9allocatorIiEEEENS5_IS7_EEEELi0ELb0EEC2B6v15007IDnvEEOT_ DATA
 0002:000132bc 00000008H .xdata$_ZNSt3__122__compressed_pair_elemINS_9allocatorINS_6vectorINS_3setIiNS_4lessIiEENS1_IiEEEENS1_IS7_EEEEEELi1ELb1EEC2B6v15007ENS_18__default_init_tagE DATA
 0002:000132c4 00000008H .xdata$_ZNSt3__19allocatorINS_6vectorINS_3setIiNS_4lessIiEENS0_IiEEEENS0_IS6_EEEEEC2B6v15007Ev DATA
 0002:000132cc 00000008H .xdata$_ZNSt3__116__non_trivial_ifILb1ENS_9allocatorINS_6vectorINS_3setIiNS_4lessIiEENS1_IiEEEENS1_IS7_EEEEEEEC2B6v15007Ev DATA
 0002:000132d4 00000008H .xdata$_ZNSt3__113__transactionINS_6vectorINS1_INS_3setIiNS_4lessIiEENS_9allocatorIiEEEENS5_IS7_EEEENS5_IS9_EEE16__destroy_vectorEEC1B6v15007ESC_ DATA
 0002:000132dc 00000008H .xdata$_ZNSt3__113__transactionINS_6vectorINS1_INS_3setIiNS_4lessIiEENS_9allocatorIiEEEENS5_IS7_EEEENS5_IS9_EEE16__destroy_vectorEEC2B6v15007ESC_ DATA
 0002:000132e4 00000008H .xdata$_ZNSt3__16vectorINS0_INS_3setIiNS_4lessIiEENS_9allocatorIiEEEENS4_IS6_EEEENS4_IS8_EEE16__destroy_vectorC2ERSA_ DATA
 0002:000132ec 00000020H .xdata$_ZNKSt3__16vectorINS0_INS_3setIiNS_4lessIiEENS_9allocatorIiEEEENS4_IS6_EEEENS4_IS8_EEE8max_sizeEv DATA
 0002:0001330c 00000008H .xdata$_ZNKSt3__16vectorINS0_INS_3setIiNS_4lessIiEENS_9allocatorIiEEEENS4_IS6_EEEENS4_IS8_EEE20__throw_length_errorB6v15007Ev DATA
 0002:00013314 00000008H .xdata$_ZNSt3__119__allocate_at_leastB6v15007INS_9allocatorINS_6vectorINS_3setIiNS_4lessIiEENS1_IiEEEENS1_IS7_EEEEEEEENS_19__allocation_resultINS_16allocator_traitsIT_E7pointerEEERSD_y DATA
 0002:0001331c 00000008H .xdata$_ZNSt3__16vectorINS0_INS_3setIiNS_4lessIiEENS_9allocatorIiEEEENS4_IS6_EEEENS4_IS8_EEE7__allocB6v15007Ev DATA
 0002:00013324 00000008H .xdata$_ZNSt3__16vectorINS0_INS_3setIiNS_4lessIiEENS_9allocatorIiEEEENS4_IS6_EEEENS4_IS8_EEE9__end_capB6v15007Ev DATA
 0002:0001332c 00000008H .xdata$_ZNKSt3__16vectorINS0_INS_3setIiNS_4lessIiEENS_9allocatorIiEEEENS4_IS6_EEEENS4_IS8_EEE14__annotate_newB6v15007Ey DATA
 0002:00013334 00000008H .xdata$_ZNSt3__116allocator_traitsINS_9allocatorINS_6vectorINS_3setIiNS_4lessIiEENS1_IiEEEENS1_IS7_EEEEEEE8max_sizeB6v15007ISA_vEEyRKSA_ DATA
 0002:0001333c 00000008H .xdata$_ZNKSt3__16vectorINS0_INS_3setIiNS_4lessIiEENS_9allocatorIiEEEENS4_IS6_EEEENS4_IS8_EEE7__allocB6v15007Ev DATA
 0002:00013344 00000008H .xdata$_ZNKSt3__19allocatorINS_6vectorINS_3setIiNS_4lessIiEENS0_IiEEEENS0_IS6_EEEEE8max_sizeB6v15007Ev DATA
 0002:0001334c 00000008H .xdata$_ZNKSt3__117__compressed_pairIPNS_6vectorINS_3setIiNS_4lessIiEENS_9allocatorIiEEEENS5_IS7_EEEENS5_IS9_EEE6secondB6v15007Ev DATA
 0002:00013354 00000008H .xdata$_ZNKSt3__122__compressed_pair_elemINS_9allocatorINS_6vectorINS_3setIiNS_4lessIiEENS1_IiEEEENS1_IS7_EEEEEELi1ELb1EE5__getB6v15007Ev DATA
 0002:0001335c 00000008H .xdata$_ZNSt3__19allocatorINS_6vectorINS_3setIiNS_4lessIiEENS0_IiEEEENS0_IS6_EEEEE8allocateB6v15007Ey DATA
 0002:00013364 00000008H .xdata$_ZNSt3__117__compressed_pairIPNS_6vectorINS_3setIiNS_4lessIiEENS_9allocatorIiEEEENS5_IS7_EEEENS5_IS9_EEE6secondB6v15007Ev DATA
 0002:0001336c 00000008H .xdata$_ZNSt3__122__compressed_pair_elemINS_9allocatorINS_6vectorINS_3setIiNS_4lessIiEENS1_IiEEEENS1_IS7_EEEEEELi1ELb1EE5__getB6v15007Ev DATA
 0002:00013374 00000008H .xdata$_ZNSt3__117__compressed_pairIPNS_6vectorINS_3setIiNS_4lessIiEENS_9allocatorIiEEEENS5_IS7_EEEENS5_IS9_EEE5firstB6v15007Ev DATA
 0002:0001337c 00000008H .xdata$_ZNSt3__122__compressed_pair_elemIPNS_6vectorINS_3setIiNS_4lessIiEENS_9allocatorIiEEEENS5_IS7_EEEELi0ELb0EE5__getB6v15007Ev DATA
 0002:00013384 00000008H .xdata$_ZNKSt3__16vectorINS0_INS_3setIiNS_4lessIiEENS_9allocatorIiEEEENS4_IS6_EEEENS4_IS8_EEE31__annotate_contiguous_containerB6v15007EPKvSC_SC_SC_ DATA
 0002:0001338c 00000008H .xdata$_ZNKSt3__16vectorINS0_INS_3setIiNS_4lessIiEENS_9allocatorIiEEEENS4_IS6_EEEENS4_IS8_EEE4dataB6v15007Ev DATA
 0002:00013394 00000008H .xdata$_ZNKSt3__16vectorINS0_INS_3setIiNS_4lessIiEENS_9allocatorIiEEEENS4_IS6_EEEENS4_IS8_EEE8capacityB6v15007Ev DATA
 0002:0001339c 00000008H .xdata$_ZNSt3__112__to_addressB6v15007INS_6vectorINS_3setIiNS_4lessIiEENS_9allocatorIiEEEENS5_IS7_EEEEEEPT_SB_ DATA
 0002:000133a4 00000008H .xdata$_ZNKSt3__16vectorINS0_INS_3setIiNS_4lessIiEENS_9allocatorIiEEEENS4_IS6_EEEENS4_IS8_EEE9__end_capB6v15007Ev DATA
 0002:000133ac 00000008H .xdata$_ZNKSt3__117__compressed_pairIPNS_6vectorINS_3setIiNS_4lessIiEENS_9allocatorIiEEEENS5_IS7_EEEENS5_IS9_EEE5firstB6v15007Ev DATA
 0002:000133b4 00000008H .xdata$_ZNKSt3__122__compressed_pair_elemIPNS_6vectorINS_3setIiNS_4lessIiEENS_9allocatorIiEEEENS5_IS7_EEEELi0ELb0EE5__getB6v15007Ev DATA
 0002:000133bc 00000008H .xdata$_ZNSt3__16vectorINS0_INS_3setIiNS_4lessIiEENS_9allocatorIiEEEENS4_IS6_EEEENS4_IS8_EEE21_ConstructTransactionC1ERSA_y DATA
 0002:000133c4 00000008H .xdata$_ZNSt3__116allocator_traitsINS_9allocatorINS_6vectorINS_3setIiNS_4lessIiEENS1_IiEEEENS1_IS7_EEEEEEE9constructB6v15007IS9_JRKS9_EvEEvRSA_PT_DpOT0_ DATA
 0002:000133cc 00000008H .xdata$_ZNSt3__16vectorINS0_INS_3setIiNS_4lessIiEENS_9allocatorIiEEEENS4_IS6_EEEENS4_IS8_EEE21_ConstructTransactionD1Ev DATA
 0002:000133d4 00000008H .xdata$_ZNSt3__16vectorINS0_INS_3setIiNS_4lessIiEENS_9allocatorIiEEEENS4_IS6_EEEENS4_IS8_EEE21_ConstructTransactionC2ERSA_y DATA
 0002:000133dc 00000008H .xdata$_ZNSt3__19allocatorINS_6vectorINS_3setIiNS_4lessIiEENS0_IiEEEENS0_IS6_EEEEE9constructB6v15007IS8_JRKS8_EEEvPT_DpOT0_ DATA
 0002:000133e4 00000008H .xdata$_ZNSt3__16vectorINS_3setIiNS_4lessIiEENS_9allocatorIiEEEENS4_IS6_EEEC1ERKS8_ DATA
 0002:000133ec 00000020H .xdata$_ZNSt3__16vectorINS_3setIiNS_4lessIiEENS_9allocatorIiEEEENS4_IS6_EEEC2ERKS8_ DATA
 0002:0001340c 00000008H .xdata$_ZNSt3__116allocator_traitsINS_9allocatorINS_3setIiNS_4lessIiEENS1_IiEEEEEEE37select_on_container_copy_constructionB6v15007IS7_vvEES7_RKS7_ DATA
 0002:00013414 00000008H .xdata$_ZNSt3__117__compressed_pairIPNS_3setIiNS_4lessIiEENS_9allocatorIiEEEENS4_IS6_EEEC1B6v15007IDnS8_EEOT_OT0_ DATA
 0002:0001341c 0000001cH .xdata$_ZNSt3__16vectorINS_3setIiNS_4lessIiEENS_9allocatorIiEEEENS4_IS6_EEE18__construct_at_endIPS6_EENS_9enable_ifIXsr27__is_cpp17_forward_iteratorIT_EE5valueEvE4typeESC_SC_y DATA
 0002:00013438 00000008H .xdata$_ZNSt3__117__compressed_pairIPNS_3setIiNS_4lessIiEENS_9allocatorIiEEEENS4_IS6_EEEC2B6v15007IDnS8_EEOT_OT0_ DATA
 0002:00013440 00000008H .xdata$_ZNSt3__122__compressed_pair_elemINS_9allocatorINS_3setIiNS_4lessIiEENS1_IiEEEEEELi1ELb1EEC2B6v15007IS7_vEEOT_ DATA
 0002:00013448 00000034H .xdata$_ZNSt3__130__uninitialized_allocator_copyB6v15007INS_9allocatorINS_3setIiNS_4lessIiEENS1_IiEEEEEEPS6_S8_S8_EET2_RT_T0_T1_S9_ DATA
 0002:0001347c 00000008H .xdata$_ZNSt3__116allocator_traitsINS_9allocatorINS_3setIiNS_4lessIiEENS1_IiEEEEEEE9constructB6v15007IS6_JRS6_EvEEvRS7_PT_DpOT0_ DATA
 0002:00013484 00000008H .xdata$_ZNSt3__129_AllocatorDestroyRangeReverseINS_9allocatorINS_3setIiNS_4lessIiEENS1_IiEEEEEEPS6_EC1B6v15007ERS7_RS8_SB_ DATA
 0002:0001348c 00000008H .xdata$_ZNKSt3__129_AllocatorDestroyRangeReverseINS_9allocatorINS_3setIiNS_4lessIiEENS1_IiEEEEEEPS6_EclB6v15007Ev DATA
 0002:00013494 00000008H .xdata$_ZNSt3__19allocatorINS_3setIiNS_4lessIiEENS0_IiEEEEE9constructB6v15007IS5_JRS5_EEEvPT_DpOT0_ DATA
 0002:0001349c 00000008H .xdata$_ZNSt3__13setIiNS_4lessIiEENS_9allocatorIiEEEC1B6v15007ERKS5_ DATA
 0002:000134a4 0000001cH .xdata$_ZNSt3__13setIiNS_4lessIiEENS_9allocatorIiEEEC2B6v15007ERKS5_ DATA
 0002:000134c0 00000008H .xdata$_ZNSt3__16__treeIiNS_4lessIiEENS_9allocatorIiEEEC1ERKS5_ DATA
 0002:000134c8 00000008H .xdata$_ZNSt3__13setIiNS_4lessIiEENS_9allocatorIiEEE6insertB6v15007INS_21__tree_const_iteratorIiPNS_11__tree_nodeIiPvEExEEEEvT_SD_ DATA
 0002:000134d0 00000008H .xdata$_ZNKSt3__13setIiNS_4lessIiEENS_9allocatorIiEEE5beginB6v15007Ev DATA
 0002:000134d8 00000008H .xdata$_ZNKSt3__13setIiNS_4lessIiEENS_9allocatorIiEEE3endB6v15007Ev DATA
 0002:000134e0 00000008H .xdata$_ZNSt3__16__treeIiNS_4lessIiEENS_9allocatorIiEEEC2ERKS5_ DATA
 0002:000134e8 00000008H .xdata$_ZNSt3__116allocator_traitsINS_9allocatorINS_11__tree_nodeIiPvEEEEE37select_on_container_copy_constructionB6v15007IS5_vvEES5_RKS5_ DATA
 0002:000134f0 00000008H .xdata$_ZNKSt3__16__treeIiNS_4lessIiEENS_9allocatorIiEEE12__node_allocB6v15007Ev DATA
 0002:000134f8 00000008H .xdata$_ZNSt3__117__compressed_pairINS_15__tree_end_nodeIPNS_16__tree_node_baseIPvEEEENS_9allocatorINS_11__tree_nodeIiS3_EEEEEC1B6v15007INS_18__default_init_tagESA_EEOT_OT0_ DATA
 0002:00013500 00000008H .xdata$_ZNKSt3__16__treeIiNS_4lessIiEENS_9allocatorIiEEE10value_compB6v15007Ev DATA
 0002:00013508 00000008H .xdata$_ZNKSt3__117__compressed_pairINS_15__tree_end_nodeIPNS_16__tree_node_baseIPvEEEENS_9allocatorINS_11__tree_nodeIiS3_EEEEE6secondB6v15007Ev DATA
 0002:00013510 00000008H .xdata$_ZNKSt3__122__compressed_pair_elemINS_9allocatorINS_11__tree_nodeIiPvEEEELi1ELb1EE5__getB6v15007Ev DATA
 0002:00013518 00000008H .xdata$_ZNSt3__117__compressed_pairINS_15__tree_end_nodeIPNS_16__tree_node_baseIPvEEEENS_9allocatorINS_11__tree_nodeIiS3_EEEEEC2B6v15007INS_18__default_init_tagESA_EEOT_OT0_ DATA
 0002:00013520 00000008H .xdata$_ZNSt3__122__compressed_pair_elemINS_15__tree_end_nodeIPNS_16__tree_node_baseIPvEEEELi0ELb0EEC2B6v15007ENS_18__default_init_tagE DATA
 0002:00013528 00000008H .xdata$_ZNSt3__122__compressed_pair_elemINS_9allocatorINS_11__tree_nodeIiPvEEEELi1ELb1EEC2B6v15007IS5_vEEOT_ DATA
 0002:00013530 00000008H .xdata$_ZNKSt3__117__compressed_pairIyNS_4lessIiEEE6secondB6v15007Ev DATA
 0002:00013538 00000008H .xdata$_ZNKSt3__122__compressed_pair_elemINS_4lessIiEELi1ELb1EE5__getB6v15007Ev DATA
 0002:00013540 00000008H .xdata$_ZNKSt3__13setIiNS_4lessIiEENS_9allocatorIiEEE4cendB6v15007Ev DATA
 0002:00013548 00000008H .xdata$_ZNSt3__16__treeIiNS_4lessIiEENS_9allocatorIiEEE15__insert_uniqueB6v15007ENS_21__tree_const_iteratorIiPNS_11__tree_nodeIiPvEExEERKi DATA
 0002:00013550 00000008H .xdata$_ZNSt3__16__treeIiNS_4lessIiEENS_9allocatorIiEEE30__emplace_hint_unique_key_argsIiJRKiEEENS_4pairINS_15__tree_iteratorIiPNS_11__tree_nodeIiPvEExEEbEENS_21__tree_const_iteratorIiSE_xEERKT_DpOT0_ DATA
 0002:00013558 00000008H .xdata$_ZNSt3__16__treeIiNS_4lessIiEENS_9allocatorIiEEE12__find_equalIiEERPNS_16__tree_node_baseIPvEENS_21__tree_const_iteratorIiPNS_11__tree_nodeIiS8_EExEERPNS_15__tree_end_nodeISA_EESB_RKT_ DATA
 0002:00013560 00000008H .xdata$_ZNSt3__121__tree_const_iteratorIiPNS_11__tree_nodeIiPvEExEmmB6v15007Ev DATA
 0002:00013568 00000008H .xdata$_ZNSt3__14nextB6v15007INS_21__tree_const_iteratorIiPNS_11__tree_nodeIiPvEExEEEENS_9enable_ifIXsr25__is_cpp17_input_iteratorIT_EE5valueES8_E4typeES8_NS_15iterator_traitsIS8_E15difference_typeE DATA
 0002:00013570 00000008H .xdata$_ZNSt3__116__tree_prev_iterB6v15007IPNS_16__tree_node_baseIPvEEPNS_15__tree_end_nodeIS4_EEEET_T0_ DATA
 0002:00013578 00000008H .xdata$_ZNSt3__110__tree_maxB6v15007IPNS_16__tree_node_baseIPvEEEET_S5_ DATA
 0002:00013580 00000008H .xdata$_ZNSt3__17advanceB6v15007INS_21__tree_const_iteratorIiPNS_11__tree_nodeIiPvEExEExxvEEvRT_T0_ DATA
 0002:00013588 00000008H .xdata$_ZNSt3__121__convert_to_integralB6v15007Ex DATA
 0002:00013590 00000008H .xdata$_ZNSt3__19__advanceB6v15007INS_21__tree_const_iteratorIiPNS_11__tree_nodeIiPvEExEEEEvRT_NS_15iterator_traitsIS7_E15difference_typeENS_26bidirectional_iterator_tagE DATA
 0002:00013598 00000008H .xdata$_ZNKSt3__16__treeIiNS_4lessIiEENS_9allocatorIiEEE5beginB6v15007Ev DATA
 0002:000135a0 00000008H .xdata$_ZNKSt3__16__treeIiNS_4lessIiEENS_9allocatorIiEEE12__begin_nodeB6v15007Ev DATA
 0002:000135a8 00000008H .xdata$_ZNSt3__121__tree_const_iteratorIiPNS_11__tree_nodeIiPvEExEC1B6v15007EPNS_15__tree_end_nodeIPNS_16__tree_node_baseIS2_EEEE DATA
 0002:000135b0 00000008H .xdata$_ZNSt3__121__tree_const_iteratorIiPNS_11__tree_nodeIiPvEExEC2B6v15007EPNS_15__tree_end_nodeIPNS_16__tree_node_baseIS2_EEEE DATA
 0002:000135b8 00000008H .xdata$_ZNKSt3__16__treeIiNS_4lessIiEENS_9allocatorIiEEE3endB6v15007Ev DATA
 0002:000135c0 00000008H .xdata$_ZNSt3__129_AllocatorDestroyRangeReverseINS_9allocatorINS_3setIiNS_4lessIiEENS1_IiEEEEEEPS6_EC2B6v15007ERS7_RS8_SB_ DATA
 0002:000135c8 00000008H .xdata$_ZNSt3__119__allocator_destroyB6v15007INS_9allocatorINS_3setIiNS_4lessIiEENS1_IiEEEEEENS_16reverse_iteratorIPS6_EESA_EEvRT_T0_T1_ DATA
 0002:000135d0 00000008H .xdata$_ZNSt3__116reverse_iteratorIPNS_3setIiNS_4lessIiEENS_9allocatorIiEEEEEC1B6v15007ES7_ DATA
 0002:000135d8 00000008H .xdata$_ZNSt3__1neB6v15007IPNS_3setIiNS_4lessIiEENS_9allocatorIiEEEES7_EEbRKNS_16reverse_iteratorIT_EERKNS8_IT0_EE DATA
 0002:000135e0 00000008H .xdata$_ZNSt3__112__to_addressB6v15007INS_16reverse_iteratorIPNS_3setIiNS_4lessIiEENS_9allocatorIiEEEEEEvEENS_5decayIDTclsr19__to_address_helperIT_EE6__callcl7declvalIRKSB_EEEEE4typeESD_ DATA
 0002:000135e8 00000008H .xdata$_ZNSt3__116reverse_iteratorIPNS_3setIiNS_4lessIiEENS_9allocatorIiEEEEEppB6v15007Ev DATA
 0002:000135f0 00000008H .xdata$_ZNKSt3__116reverse_iteratorIPNS_3setIiNS_4lessIiEENS_9allocatorIiEEEEE4baseB6v15007Ev DATA
 0002:000135f8 00000020H .xdata$_ZNSt3__119__to_address_helperINS_16reverse_iteratorIPNS_3setIiNS_4lessIiEENS_9allocatorIiEEEEEEvE6__callB6v15007ERKS9_ DATA
 0002:00013618 00000008H .xdata$_ZNKSt3__116reverse_iteratorIPNS_3setIiNS_4lessIiEENS_9allocatorIiEEEEEptB6v15007Ev DATA
 0002:00013620 00000008H .xdata$_ZNKSt3__116reverse_iteratorIPNS_3setIiNS_4lessIiEENS_9allocatorIiEEEEEdeB6v15007Ev DATA
 0002:00013628 00000008H .xdata$_ZNSt3__116reverse_iteratorIPNS_3setIiNS_4lessIiEENS_9allocatorIiEEEEEC2B6v15007ES7_ DATA
 0002:00013630 00000008H .xdata$_ZNSt3__16vectorINS0_INS_3setIiNS_4lessIiEENS_9allocatorIiEEEENS4_IS6_EEEENS4_IS8_EEE21_ConstructTransactionD2Ev DATA
 0002:00013638 00000020H .xdata$_ZNSt3__113__transactionINS_6vectorINS1_INS_3setIiNS_4lessIiEENS_9allocatorIiEEEENS5_IS7_EEEENS5_IS9_EEE16__destroy_vectorEED2B6v15007Ev DATA
 0002:00013658 00000008H .xdata$_ZNSt3__16vectorINS0_INS_3setIiNS_4lessIiEENS_9allocatorIiEEEENS4_IS6_EEEENS4_IS8_EEE16__destroy_vectorclB6v15007Ev DATA
 0002:00013660 00000008H .xdata$_ZNKSt3__16vectorINS0_INS_3setIiNS_4lessIiEENS_9allocatorIiEEEENS4_IS6_EEEENS4_IS8_EEE17__annotate_deleteB6v15007Ev DATA
 0002:00013668 00000008H .xdata$_ZNSt3__118__debug_db_erase_cB6v15007INS_6vectorINS1_INS_3setIiNS_4lessIiEENS_9allocatorIiEEEENS5_IS7_EEEENS5_IS9_EEEEEEvPT_ DATA
 0002:00013670 00000008H .xdata$_ZNSt3__16vectorINS0_INS_3setIiNS_4lessIiEENS_9allocatorIiEEEENS4_IS6_EEEENS4_IS8_EEE7__clearB6v15007Ev DATA
 0002:00013678 00000008H .xdata$_ZNSt3__116allocator_traitsINS_9allocatorINS_6vectorINS_3setIiNS_4lessIiEENS1_IiEEEENS1_IS7_EEEEEEE10deallocateB6v15007ERSA_PS9_y DATA
 0002:00013680 00000008H .xdata$_ZNKSt3__16vectorINS0_INS_3setIiNS_4lessIiEENS_9allocatorIiEEEENS4_IS6_EEEENS4_IS8_EEE4sizeB6v15007Ev DATA
 0002:00013688 00000020H .xdata$_ZNSt3__16vectorINS0_INS_3setIiNS_4lessIiEENS_9allocatorIiEEEENS4_IS6_EEEENS4_IS8_EEE22__base_destruct_at_endB6v15007EPS8_ DATA
 0002:000136a8 00000008H .xdata$_ZNSt3__116allocator_traitsINS_9allocatorINS_6vectorINS_3setIiNS_4lessIiEENS1_IiEEEENS1_IS7_EEEEEEE7destroyB6v15007IS9_vEEvRSA_PT_ DATA
 0002:000136b0 00000008H .xdata$_ZNSt3__19allocatorINS_6vectorINS_3setIiNS_4lessIiEENS0_IiEEEENS0_IS6_EEEEE7destroyB6v15007EPS8_ DATA
 0002:000136b8 00000020H .xdata$_ZNSt3__19allocatorINS_6vectorINS_3setIiNS_4lessIiEENS0_IiEEEENS0_IS6_EEEEE10deallocateB6v15007EPS8_y DATA
 0002:000136d8 00000020H .xdata$_ZNSt3__16vectorINS0_INS_3setIiNS_4lessIiEENS_9allocatorIiEEEENS4_IS6_EEEENS4_IS8_EEED2B6v15007Ev DATA
 0002:000136f8 00000028H .xdata                  DATA
 0002:00013720 00000008H .xdata$_ZN6TForm3D0Ev   DATA
 0002:00013728 0000002cH .xdata                  DATA
 0002:00013754 00000008H .xdata$_ZN6TForm2D0Ev   DATA
 0002:0001375c 000006b8H .xdata                  DATA
 0002:00013e14 00000020H .xdata$_ZN6System8Sysutils11ERangeErrorC3ENS_13UnicodeStringE DATA
 0002:00013e34 00000020H .xdata$_ZN6System11AnsiStringTILt0EED2Ev DATA
 0002:00013e54 00000020H .xdata$_ZN6System8Sysutils9EIntErrorC3ENS_13UnicodeStringE DATA
 0002:00013e74 00000020H .xdata$_ZN6System8Sysutils9EExternalC3ENS_13UnicodeStringE DATA
 0002:00013e94 00000020H .xdata$_ZN6System8Sysutils11ERangeErrorC3ENS_13UnicodeStringE DATA
 0002:00013eb4 00000008H .xdata$_ZN6System8Sysutils11ERangeErrorD0Ev DATA
 0002:00013ebc 00000008H .xdata$_ZN6System11WideCharLenIwEEiPKT_ DATA
 0002:00013ec4 00000008H .xdata$_ZN6System11WideCharLenIDsEEiPKT_ DATA
 0002:00013ecc 00000008H .xdata$_ZN6System11AnsiStringTILt0EEC2EPKci DATA
 0002:00013ed4 00000020H .xdata$_ZN6System11AnsiStringTILt0EED2Ev DATA
 0002:00013ef4 00000008H .xdata$_ZN6System11AnsiStringTILt0EEC2Ev DATA
 0002:00013efc 00000008H .xdata$_ZN6System13UnicodeStringC2ILt0EEERKNS_11AnsiStringTIXT_EEE DATA
 0002:00013f04 00000020H .xdata$_ZN6System8Sysutils9EIntErrorC3ENS_13UnicodeStringE DATA
 0002:00013f24 00000020H .xdata$_ZN6System8Sysutils9EExternalC3ENS_13UnicodeStringE DATA
 0002:00013f44 00000008H .xdata$_ZN6System8Sysutils9EIntErrorD0Ev DATA
 0002:00013f4c 00000008H .xdata$_ZN6System8Sysutils9EExternalD0Ev DATA
 0002:00013f54 00000008H .xdata$_ZN6System11AnsiStringTILt0EEC2ERKS1_ DATA
 0002:00013f5c 00000008H .xdata$_ZN6System14AnsiStringBaseC2Ev DATA
 0002:00013f64 000001d4H .xdata                  DATA
 0002:00014138 00000020H .xdata$_ZN6System15DelphiInterfaceINS_10IInterfaceEED2Ev DATA
 0002:00014158 00000020H .xdata$_ZNSt3__113unordered_mapIPN6System7Typinfo9TTypeInfoEPSt9type_infoNS_4hashIS4_EENS_8equal_toIS4_EENS_9allocatorINS_4pairIKS4_S6_EEEEEC2B6v15007Ev DATA
 0002:00014178 00000018H .xdata$_ZNK6System11AnsiStringTILt65001EEplERKS1_ DATA
 0002:00014190 00000020H .xdata$_ZNSt3__112__hash_tableINS_17__hash_value_typeIPN6System7Typinfo9TTypeInfoEPSt9type_infoEENS_22__unordered_map_hasherIS5_S8_NS_4hashIS5_EENS_8equal_toIS5_EELb1EEENS_21__unordered_map_equalIS5_S8_SD_SB_Lb1EEENS_9allocatorIS8_EEEC2Ev DATA
 0002:000141b0 00000020H .xdata$_ZNSt3__110unique_ptrIA_PNS_16__hash_node_baseIPNS_11__hash_nodeINS_17__hash_value_typeIPN6System7Typinfo9TTypeInfoEPSt9type_infoEEPvEEEENS_25__bucket_list_deallocatorINS_9allocatorISF_EEEEEC2B6v15007ILb1EvEEv DATA
 0002:000141d0 00000020H .xdata$_ZNSt3__125__bucket_list_deallocatorINS_9allocatorIPNS_16__hash_node_baseIPNS_11__hash_nodeINS_17__hash_value_typeIPN6System7Typinfo9TTypeInfoEPSt9type_infoEEPvEEEEEEEC2B6v15007Ev DATA
 0002:000141f0 00000020H .xdata$_ZNSt3__112__hash_tableINS_17__hash_value_typeIPN6System7Typinfo9TTypeInfoEPSt9type_infoEENS_22__unordered_map_hasherIS5_S8_NS_4hashIS5_EENS_8equal_toIS5_EELb1EEENS_21__unordered_map_equalIS5_S8_SD_SB_Lb1EEENS_9allocatorIS8_EEED2Ev DATA
 0002:00014210 00000020H .xdata$_ZNSt3__112__hash_tableINS_17__hash_value_typeIPN6System7Typinfo9TTypeInfoEPSt9type_infoEENS_22__unordered_map_hasherIS5_S8_NS_4hashIS5_EENS_8equal_toIS5_EELb1EEENS_21__unordered_map_equalIS5_S8_SD_SB_Lb1EEENS_9allocatorIS8_EEE17__deallocate_nodeEPNS_16__hash_node_baseIPNS_11__hash_nodeIS8_PvEEEE DATA
 0002:00014230 00000020H .xdata$_ZNSt3__19allocatorINS_11__hash_nodeINS_17__hash_value_typeIPN6System7Typinfo9TTypeInfoEPSt9type_infoEEPvEEE10deallocateB6v15007EPSB_y DATA
 0002:00014250 00000020H .xdata$_ZNSt3__19allocatorIPNS_16__hash_node_baseIPNS_11__hash_nodeINS_17__hash_value_typeIPN6System7Typinfo9TTypeInfoEPSt9type_infoEEPvEEEEE10deallocateB6v15007EPSF_y DATA
 0002:00014270 00000024H .xdata$_ZNSt3__112__hash_tableINS_17__hash_value_typeIPN6System7Typinfo9TTypeInfoEPSt9type_infoEENS_22__unordered_map_hasherIS5_S8_NS_4hashIS5_EENS_8equal_toIS5_EELb1EEENS_21__unordered_map_equalIS5_S8_SD_SB_Lb1EEENS_9allocatorIS8_EEE25__emplace_unique_key_argsIS5_JRKNS_21piecewise_construct_tENS_5tupleIJRKS5_EEENSO_IJEEEEEENS_4pairINS_15__hash_iteratorIPNS_11__hash_nodeIS8_PvEEEEbEERKT_DpOT0_ DATA
 0002:00014294 00000024H .xdata$_ZNSt3__112__hash_tableINS_17__hash_value_typeIPN6System7Typinfo9TTypeInfoEPSt9type_infoEENS_22__unordered_map_hasherIS5_S8_NS_4hashIS5_EENS_8equal_toIS5_EELb1EEENS_21__unordered_map_equalIS5_S8_SD_SB_Lb1EEENS_9allocatorIS8_EEE21__construct_node_hashIRKNS_21piecewise_construct_tEJNS_5tupleIJRKS5_EEENSO_IJEEEEEENS_10unique_ptrINS_11__hash_nodeIS8_PvEENS_22__hash_node_destructorINSH_ISW_EEEEEEyOT_DpOT0_ DATA
 0002:000142b8 00000020H .xdata$_ZNKSt3__14hashIPN6System7Typinfo9TTypeInfoEEclB6v15007ES4_ DATA
 0002:000142d8 00000020H .xdata$_ZNSt3__110unique_ptrINS_11__hash_nodeINS_17__hash_value_typeIPN6System7Typinfo9TTypeInfoEPSt9type_infoEEPvEENS_22__hash_node_destructorINS_9allocatorISB_EEEEEC2B6v15007ILb1EvEEPSB_NS_16__dependent_typeINS_27__unique_ptr_deleter_sfinaeISF_EEXT_EE20__good_rval_ref_typeE DATA
 0002:000142f8 00000020H .xdata$_ZNSt3__14pairIKPN6System7Typinfo9TTypeInfoEPSt9type_infoEC2B6v15007IJRS5_EJEEENS_21piecewise_construct_tENS_5tupleIJDpT_EEENSC_IJDpT0_EEE DATA
 0002:00014318 00000020H .xdata$_ZNSt3__122__hash_node_destructorINS_9allocatorINS_11__hash_nodeINS_17__hash_value_typeIPN6System7Typinfo9TTypeInfoEPSt9type_infoEEPvEEEEEclB6v15007EPSC_ DATA
 0002:00014338 00000008H .xdata$_ZN6System15DelphiInterfaceINS_10IInterfaceEEadEv DATA
 0002:00014340 00000020H .xdata$_ZN6System15DelphiInterfaceINS_10IInterfaceEED2Ev DATA
 0002:00014360 00000008H .xdata$_ZNSt3__110lock_guardINS_5mutexEEC2B6v15007ERS1_ DATA
 0002:00014368 00000020H .xdata$_ZNSt3__113unordered_mapIPN6System7Typinfo9TTypeInfoEPSt9type_infoNS_4hashIS4_EENS_8equal_toIS4_EENS_9allocatorINS_4pairIKS4_S6_EEEEEC2B6v15007Ev DATA
 0002:00014388 00000008H .xdata$_ZNSt3__113unordered_mapIPN6System7Typinfo9TTypeInfoEPSt9type_infoNS_4hashIS4_EENS_8equal_toIS4_EENS_9allocatorINS_4pairIKS4_S6_EEEEED2B6v15007Ev DATA
 0002:00014390 00000008H .xdata$_ZNSt3__113unordered_mapIPN6System7Typinfo9TTypeInfoEPSt9type_infoNS_4hashIS4_EENS_8equal_toIS4_EENS_9allocatorINS_4pairIKS4_S6_EEEEEixERSD_ DATA
 0002:00014398 00000008H .xdata$_ZN6System11AnsiStringTILt65001EEC2ERKNS_13UnicodeStringE DATA
 0002:000143a0 00000018H .xdata$_ZNK6System11AnsiStringTILt65001EEplERKS1_ DATA
 0002:000143b8 00000008H .xdata$_ZN6System11AnsiStringTILt65001EEC2EPKc DATA
 0002:000143c0 00000008H .xdata$_ZN6System11AnsiStringTILt65001EEC2Ev DATA
 0002:000143c8 00000008H .xdata$_ZN6System11AnsiStringTILt65001EEaSERKS1_ DATA
 0002:000143d0 00000008H .xdata$_ZN6System11AnsiStringTILt65001EED2Ev DATA
 0002:000143d8 00000008H .xdata$_ZN10__cxxabiv117__class_type_infoC2Ev DATA
 0002:000143e0 00000008H .xdata$_ZNK6System11AnsiStringTILt65001EE5c_strEv DATA
 0002:000143e8 00000008H .xdata$_ZNSt3__110lock_guardINS_5mutexEED2B6v15007Ev DATA
 0002:000143f0 00000008H .xdata$_ZN10__cxxabiv116__shim_type_infoC2Ev DATA
 0002:000143f8 00000020H .xdata$_ZNSt3__112__hash_tableINS_17__hash_value_typeIPN6System7Typinfo9TTypeInfoEPSt9type_infoEENS_22__unordered_map_hasherIS5_S8_NS_4hashIS5_EENS_8equal_toIS5_EELb1EEENS_21__unordered_map_equalIS5_S8_SD_SB_Lb1EEENS_9allocatorIS8_EEEC2Ev DATA
 0002:00014418 00000008H .xdata$_ZNSt3__119__debug_db_insert_cB6v15007INS_13unordered_mapIPN6System7Typinfo9TTypeInfoEPSt9type_infoNS_4hashIS5_EENS_8equal_toIS5_EENS_9allocatorINS_4pairIKS5_S7_EEEEEEEEvPT_ DATA
 0002:00014420 00000020H .xdata$_ZNSt3__110unique_ptrIA_PNS_16__hash_node_baseIPNS_11__hash_nodeINS_17__hash_value_typeIPN6System7Typinfo9TTypeInfoEPSt9type_infoEEPvEEEENS_25__bucket_list_deallocatorINS_9allocatorISF_EEEEEC2B6v15007ILb1EvEEv DATA
 0002:00014440 00000008H .xdata$_ZNSt3__117__compressed_pairINS_16__hash_node_baseIPNS_11__hash_nodeINS_17__hash_value_typeIPN6System7Typinfo9TTypeInfoEPSt9type_infoEEPvEEEENS_9allocatorISC_EEEC2B6v15007ILb1EvEEv DATA
 0002:00014448 00000008H .xdata$_ZNSt3__117__compressed_pairIyNS_22__unordered_map_hasherIPN6System7Typinfo9TTypeInfoENS_17__hash_value_typeIS5_PSt9type_infoEENS_4hashIS5_EENS_8equal_toIS5_EELb1EEEEC2B6v15007IiNS_18__default_init_tagEEEOT_OT0_ DATA
 0002:00014450 00000008H .xdata$_ZNSt3__117__compressed_pairIfNS_21__unordered_map_equalIPN6System7Typinfo9TTypeInfoENS_17__hash_value_typeIS5_PSt9type_infoEENS_8equal_toIS5_EENS_4hashIS5_EELb1EEEEC2B6v15007IfNS_18__default_init_tagEEEOT_OT0_ DATA
 0002:00014458 00000008H .xdata$_ZNSt3__117__compressed_pairIPPNS_16__hash_node_baseIPNS_11__hash_nodeINS_17__hash_value_typeIPN6System7Typinfo9TTypeInfoEPSt9type_infoEEPvEEEENS_25__bucket_list_deallocatorINS_9allocatorISF_EEEEEC2B6v15007INS_16__value_init_tagESN_EEOT_OT0_ DATA
 0002:00014460 00000008H .xdata$_ZNSt3__122__compressed_pair_elemIPPNS_16__hash_node_baseIPNS_11__hash_nodeINS_17__hash_value_typeIPN6System7Typinfo9TTypeInfoEPSt9type_infoEEPvEEEELi0ELb0EEC2B6v15007ENS_16__value_init_tagE DATA
 0002:00014468 00000008H .xdata$_ZNSt3__122__compressed_pair_elemINS_25__bucket_list_deallocatorINS_9allocatorIPNS_16__hash_node_baseIPNS_11__hash_nodeINS_17__hash_value_typeIPN6System7Typinfo9TTypeInfoEPSt9type_infoEEPvEEEEEEEELi1ELb0EEC2B6v15007ENS_16__value_init_tagE DATA
 0002:00014470 00000020H .xdata$_ZNSt3__125__bucket_list_deallocatorINS_9allocatorIPNS_16__hash_node_baseIPNS_11__hash_nodeINS_17__hash_value_typeIPN6System7Typinfo9TTypeInfoEPSt9type_infoEEPvEEEEEEEC2B6v15007Ev DATA
 0002:00014490 00000008H .xdata$_ZNSt3__117__compressed_pairIyNS_9allocatorIPNS_16__hash_node_baseIPNS_11__hash_nodeINS_17__hash_value_typeIPN6System7Typinfo9TTypeInfoEPSt9type_infoEEPvEEEEEEEC2B6v15007IiNS_18__default_init_tagEEEOT_OT0_ DATA
 0002:00014498 00000008H .xdata$_ZNSt3__122__compressed_pair_elemINS_9allocatorIPNS_16__hash_node_baseIPNS_11__hash_nodeINS_17__hash_value_typeIPN6System7Typinfo9TTypeInfoEPSt9type_infoEEPvEEEEEELi1ELb1EEC2B6v15007ENS_18__default_init_tagE DATA
 0002:000144a0 00000008H .xdata$_ZNSt3__19allocatorIPNS_16__hash_node_baseIPNS_11__hash_nodeINS_17__hash_value_typeIPN6System7Typinfo9TTypeInfoEPSt9type_infoEEPvEEEEEC2B6v15007Ev DATA
 0002:000144a8 00000008H .xdata$_ZNSt3__116__non_trivial_ifILb1ENS_9allocatorIPNS_16__hash_node_baseIPNS_11__hash_nodeINS_17__hash_value_typeIPN6System7Typinfo9TTypeInfoEPSt9type_infoEEPvEEEEEEEC2B6v15007Ev DATA
 0002:000144b0 00000008H .xdata$_ZNSt3__122__compressed_pair_elemINS_16__hash_node_baseIPNS_11__hash_nodeINS_17__hash_value_typeIPN6System7Typinfo9TTypeInfoEPSt9type_infoEEPvEEEELi0ELb0EEC2B6v15007ENS_16__value_init_tagE DATA
 0002:000144b8 00000008H .xdata$_ZNSt3__122__compressed_pair_elemINS_9allocatorINS_11__hash_nodeINS_17__hash_value_typeIPN6System7Typinfo9TTypeInfoEPSt9type_infoEEPvEEEELi1ELb1EEC2B6v15007ENS_16__value_init_tagE DATA
 0002:000144c0 00000008H .xdata$_ZNSt3__116__hash_node_baseIPNS_11__hash_nodeINS_17__hash_value_typeIPN6System7Typinfo9TTypeInfoEPSt9type_infoEEPvEEEC2B6v15007Ev DATA
 0002:000144c8 00000008H .xdata$_ZNSt3__19allocatorINS_11__hash_nodeINS_17__hash_value_typeIPN6System7Typinfo9TTypeInfoEPSt9type_infoEEPvEEEC2B6v15007Ev DATA
 0002:000144d0 00000008H .xdata$_ZNSt3__116__non_trivial_ifILb1ENS_9allocatorINS_11__hash_nodeINS_17__hash_value_typeIPN6System7Typinfo9TTypeInfoEPSt9type_infoEEPvEEEEEC2B6v15007Ev DATA
 0002:000144d8 00000008H .xdata$_ZNSt3__122__compressed_pair_elemINS_22__unordered_map_hasherIPN6System7Typinfo9TTypeInfoENS_17__hash_value_typeIS5_PSt9type_infoEENS_4hashIS5_EENS_8equal_toIS5_EELb1EEELi1ELb1EEC2B6v15007ENS_18__default_init_tagE DATA
 0002:000144e0 00000008H .xdata$_ZNSt3__122__unordered_map_hasherIPN6System7Typinfo9TTypeInfoENS_17__hash_value_typeIS4_PSt9type_infoEENS_4hashIS4_EENS_8equal_toIS4_EELb1EEC2B6v15007Ev DATA
 0002:000144e8 00000008H .xdata$_ZNSt3__122__compressed_pair_elemINS_21__unordered_map_equalIPN6System7Typinfo9TTypeInfoENS_17__hash_value_typeIS5_PSt9type_infoEENS_8equal_toIS5_EENS_4hashIS5_EELb1EEELi1ELb1EEC2B6v15007ENS_18__default_init_tagE DATA
 0002:000144f0 00000008H .xdata$_ZNSt3__121__unordered_map_equalIPN6System7Typinfo9TTypeInfoENS_17__hash_value_typeIS4_PSt9type_infoEENS_8equal_toIS4_EENS_4hashIS4_EELb1EEC2B6v15007Ev DATA
 0002:000144f8 00000020H .xdata$_ZNSt3__112__hash_tableINS_17__hash_value_typeIPN6System7Typinfo9TTypeInfoEPSt9type_infoEENS_22__unordered_map_hasherIS5_S8_NS_4hashIS5_EENS_8equal_toIS5_EELb1EEENS_21__unordered_map_equalIS5_S8_SD_SB_Lb1EEENS_9allocatorIS8_EEED2Ev DATA
 0002:00014518 00000020H .xdata$_ZNSt3__112__hash_tableINS_17__hash_value_typeIPN6System7Typinfo9TTypeInfoEPSt9type_infoEENS_22__unordered_map_hasherIS5_S8_NS_4hashIS5_EENS_8equal_toIS5_EELb1EEENS_21__unordered_map_equalIS5_S8_SD_SB_Lb1EEENS_9allocatorIS8_EEE17__deallocate_nodeEPNS_16__hash_node_baseIPNS_11__hash_nodeIS8_PvEEEE DATA
 0002:00014538 00000008H .xdata$_ZNSt3__117__compressed_pairINS_16__hash_node_baseIPNS_11__hash_nodeINS_17__hash_value_typeIPN6System7Typinfo9TTypeInfoEPSt9type_infoEEPvEEEENS_9allocatorISC_EEE5firstB6v15007Ev DATA
 0002:00014540 00000008H .xdata$_ZNSt3__118__debug_db_erase_cB6v15007INS_12__hash_tableINS_17__hash_value_typeIPN6System7Typinfo9TTypeInfoEPSt9type_infoEENS_22__unordered_map_hasherIS6_S9_NS_4hashIS6_EENS_8equal_toIS6_EELb1EEENS_21__unordered_map_equalIS6_S9_SE_SC_Lb1EEENS_9allocatorIS9_EEEEEEvPT_ DATA
 0002:00014548 00000008H .xdata$_ZNSt3__110unique_ptrIA_PNS_16__hash_node_baseIPNS_11__hash_nodeINS_17__hash_value_typeIPN6System7Typinfo9TTypeInfoEPSt9type_infoEEPvEEEENS_25__bucket_list_deallocatorINS_9allocatorISF_EEEEED2B6v15007Ev DATA
 0002:00014550 00000008H .xdata$_ZNSt3__112__hash_tableINS_17__hash_value_typeIPN6System7Typinfo9TTypeInfoEPSt9type_infoEENS_22__unordered_map_hasherIS5_S8_NS_4hashIS5_EENS_8equal_toIS5_EELb1EEENS_21__unordered_map_equalIS5_S8_SD_SB_Lb1EEENS_9allocatorIS8_EEE12__node_allocB6v15007Ev DATA
 0002:00014558 00000008H .xdata$_ZNSt3__116__hash_node_baseIPNS_11__hash_nodeINS_17__hash_value_typeIPN6System7Typinfo9TTypeInfoEPSt9type_infoEEPvEEE8__upcastB6v15007Ev DATA
 0002:00014560 00000008H .xdata$_ZNSt3__116allocator_traitsINS_9allocatorINS_11__hash_nodeINS_17__hash_value_typeIPN6System7Typinfo9TTypeInfoEPSt9type_infoEEPvEEEEE7destroyB6v15007INS_4pairIKS7_S9_EEvvEEvRSD_PT_ DATA
 0002:00014568 00000008H .xdata$_ZNSt3__122__hash_key_value_typesINS_17__hash_value_typeIPN6System7Typinfo9TTypeInfoEPSt9type_infoEEE9__get_ptrB6v15007ERS8_ DATA
 0002:00014570 00000008H .xdata$_ZNSt3__116allocator_traitsINS_9allocatorINS_11__hash_nodeINS_17__hash_value_typeIPN6System7Typinfo9TTypeInfoEPSt9type_infoEEPvEEEEE10deallocateB6v15007ERSD_PSC_y DATA
 0002:00014578 00000008H .xdata$_ZNSt3__117__compressed_pairINS_16__hash_node_baseIPNS_11__hash_nodeINS_17__hash_value_typeIPN6System7Typinfo9TTypeInfoEPSt9type_infoEEPvEEEENS_9allocatorISC_EEE6secondB6v15007Ev DATA
 0002:00014580 00000008H .xdata$_ZNSt3__122__compressed_pair_elemINS_9allocatorINS_11__hash_nodeINS_17__hash_value_typeIPN6System7Typinfo9TTypeInfoEPSt9type_infoEEPvEEEELi1ELb1EE5__getB6v15007Ev DATA
 0002:00014588 00000008H .xdata$_ZNSt3__114pointer_traitsIPNS_16__hash_node_baseIPNS_11__hash_nodeINS_17__hash_value_typeIPN6System7Typinfo9TTypeInfoEPSt9type_infoEEPvEEEEE10pointer_toB6v15007ERSE_ DATA
 0002:00014590 00000008H .xdata$_ZNSt3__117__hash_value_typeIPN6System7Typinfo9TTypeInfoEPSt9type_infoE11__get_valueB6v15007Ev DATA
 0002:00014598 00000008H .xdata$_ZNSt3__17launderB6v15007INS_4pairIKPN6System7Typinfo9TTypeInfoEPSt9type_infoEEEEPT_SB_ DATA
 0002:000145a0 00000008H .xdata$_ZNSt3__19__launderB6v15007INS_4pairIKPN6System7Typinfo9TTypeInfoEPSt9type_infoEEEEPT_SB_ DATA
 0002:000145a8 00000020H .xdata$_ZNSt3__19allocatorINS_11__hash_nodeINS_17__hash_value_typeIPN6System7Typinfo9TTypeInfoEPSt9type_infoEEPvEEE10deallocateB6v15007EPSB_y DATA
 0002:000145c8 00000008H .xdata$_ZNSt3__122__compressed_pair_elemINS_16__hash_node_baseIPNS_11__hash_nodeINS_17__hash_value_typeIPN6System7Typinfo9TTypeInfoEPSt9type_infoEEPvEEEELi0ELb0EE5__getB6v15007Ev DATA
 0002:000145d0 00000008H .xdata$_ZNSt3__110unique_ptrIA_PNS_16__hash_node_baseIPNS_11__hash_nodeINS_17__hash_value_typeIPN6System7Typinfo9TTypeInfoEPSt9type_infoEEPvEEEENS_25__bucket_list_deallocatorINS_9allocatorISF_EEEEE5resetB6v15007EDn DATA
 0002:000145d8 00000008H .xdata$_ZNSt3__117__compressed_pairIPPNS_16__hash_node_baseIPNS_11__hash_nodeINS_17__hash_value_typeIPN6System7Typinfo9TTypeInfoEPSt9type_infoEEPvEEEENS_25__bucket_list_deallocatorINS_9allocatorISF_EEEEE5firstB6v15007Ev DATA
 0002:000145e0 00000008H .xdata$_ZNSt3__117__compressed_pairIPPNS_16__hash_node_baseIPNS_11__hash_nodeINS_17__hash_value_typeIPN6System7Typinfo9TTypeInfoEPSt9type_infoEEPvEEEENS_25__bucket_list_deallocatorINS_9allocatorISF_EEEEE6secondB6v15007Ev DATA
 0002:000145e8 00000008H .xdata$_ZNSt3__125__bucket_list_deallocatorINS_9allocatorIPNS_16__hash_node_baseIPNS_11__hash_nodeINS_17__hash_value_typeIPN6System7Typinfo9TTypeInfoEPSt9type_infoEEPvEEEEEEEclB6v15007EPSG_ DATA
 0002:000145f0 00000008H .xdata$_ZNSt3__122__compressed_pair_elemIPPNS_16__hash_node_baseIPNS_11__hash_nodeINS_17__hash_value_typeIPN6System7Typinfo9TTypeInfoEPSt9type_infoEEPvEEEELi0ELb0EE5__getB6v15007Ev DATA
 0002:000145f8 00000008H .xdata$_ZNSt3__122__compressed_pair_elemINS_25__bucket_list_deallocatorINS_9allocatorIPNS_16__hash_node_baseIPNS_11__hash_nodeINS_17__hash_value_typeIPN6System7Typinfo9TTypeInfoEPSt9type_infoEEPvEEEEEEEELi1ELb0EE5__getB6v15007Ev DATA
 0002:00014600 00000008H .xdata$_ZNSt3__116allocator_traitsINS_9allocatorIPNS_16__hash_node_baseIPNS_11__hash_nodeINS_17__hash_value_typeIPN6System7Typinfo9TTypeInfoEPSt9type_infoEEPvEEEEEEE10deallocateB6v15007ERSH_PSG_y DATA
 0002:00014608 00000008H .xdata$_ZNSt3__125__bucket_list_deallocatorINS_9allocatorIPNS_16__hash_node_baseIPNS_11__hash_nodeINS_17__hash_value_typeIPN6System7Typinfo9TTypeInfoEPSt9type_infoEEPvEEEEEEE7__allocB6v15007Ev DATA
 0002:00014610 00000008H .xdata$_ZNSt3__125__bucket_list_deallocatorINS_9allocatorIPNS_16__hash_node_baseIPNS_11__hash_nodeINS_17__hash_value_typeIPN6System7Typinfo9TTypeInfoEPSt9type_infoEEPvEEEEEEE4sizeB6v15007Ev DATA
 0002:00014618 00000020H .xdata$_ZNSt3__19allocatorIPNS_16__hash_node_baseIPNS_11__hash_nodeINS_17__hash_value_typeIPN6System7Typinfo9TTypeInfoEPSt9type_infoEEPvEEEEE10deallocateB6v15007EPSF_y DATA
 0002:00014638 00000008H .xdata$_ZNSt3__117__compressed_pairIyNS_9allocatorIPNS_16__hash_node_baseIPNS_11__hash_nodeINS_17__hash_value_typeIPN6System7Typinfo9TTypeInfoEPSt9type_infoEEPvEEEEEEE6secondB6v15007Ev DATA
 0002:00014640 00000008H .xdata$_ZNSt3__122__compressed_pair_elemINS_9allocatorIPNS_16__hash_node_baseIPNS_11__hash_nodeINS_17__hash_value_typeIPN6System7Typinfo9TTypeInfoEPSt9type_infoEEPvEEEEEELi1ELb1EE5__getB6v15007Ev DATA
 0002:00014648 00000008H .xdata$_ZNSt3__117__compressed_pairIyNS_9allocatorIPNS_16__hash_node_baseIPNS_11__hash_nodeINS_17__hash_value_typeIPN6System7Typinfo9TTypeInfoEPSt9type_infoEEPvEEEEEEE5firstB6v15007Ev DATA
 0002:00014650 00000024H .xdata$_ZNSt3__112__hash_tableINS_17__hash_value_typeIPN6System7Typinfo9TTypeInfoEPSt9type_infoEENS_22__unordered_map_hasherIS5_S8_NS_4hashIS5_EENS_8equal_toIS5_EELb1EEENS_21__unordered_map_equalIS5_S8_SD_SB_Lb1EEENS_9allocatorIS8_EEE25__emplace_unique_key_argsIS5_JRKNS_21piecewise_construct_tENS_5tupleIJRKS5_EEENSO_IJEEEEEENS_4pairINS_15__hash_iteratorIPNS_11__hash_nodeIS8_PvEEEEbEERKT_DpOT0_ DATA
 0002:00014674 00000008H .xdata$_ZNSt3__116forward_as_tupleB6v15007IJRKPN6System7Typinfo9TTypeInfoEEEENS_5tupleIJDpOT_EEESA_ DATA
 0002:0001467c 00000008H .xdata$_ZNSt3__116forward_as_tupleB6v15007IJEEENS_5tupleIJDpOT_EEES4_ DATA
 0002:00014684 00000008H .xdata$_ZNKSt3__115__hash_iteratorIPNS_11__hash_nodeINS_17__hash_value_typeIPN6System7Typinfo9TTypeInfoEPSt9type_infoEEPvEEEptB6v15007Ev DATA
 0002:0001468c 00000008H .xdata$_ZNSt3__112__hash_tableINS_17__hash_value_typeIPN6System7Typinfo9TTypeInfoEPSt9type_infoEENS_22__unordered_map_hasherIS5_S8_NS_4hashIS5_EENS_8equal_toIS5_EELb1EEENS_21__unordered_map_equalIS5_S8_SD_SB_Lb1EEENS_9allocatorIS8_EEE13hash_functionB6v15007Ev DATA
 0002:00014694 00000008H .xdata$_ZNKSt3__122__unordered_map_hasherIPN6System7Typinfo9TTypeInfoENS_17__hash_value_typeIS4_PSt9type_infoEENS_4hashIS4_EENS_8equal_toIS4_EELb1EEclB6v15007ERKS4_ DATA
 0002:0001469c 00000008H .xdata$_ZNKSt3__112__hash_tableINS_17__hash_value_typeIPN6System7Typinfo9TTypeInfoEPSt9type_infoEENS_22__unordered_map_hasherIS5_S8_NS_4hashIS5_EENS_8equal_toIS5_EELb1EEENS_21__unordered_map_equalIS5_S8_SD_SB_Lb1EEENS_9allocatorIS8_EEE12bucket_countB6v15007Ev DATA
 0002:000146a4 00000008H .xdata$_ZNKSt3__110unique_ptrIA_PNS_16__hash_node_baseIPNS_11__hash_nodeINS_17__hash_value_typeIPN6System7Typinfo9TTypeInfoEPSt9type_infoEEPvEEEENS_25__bucket_list_deallocatorINS_9allocatorISF_EEEEEixB6v15007Ey DATA
 0002:000146ac 00000008H .xdata$_ZNKSt3__116__hash_node_baseIPNS_11__hash_nodeINS_17__hash_value_typeIPN6System7Typinfo9TTypeInfoEPSt9type_infoEEPvEEE6__hashB6v15007Ev DATA
 0002:000146b4 00000008H .xdata$_ZNSt3__112__hash_tableINS_17__hash_value_typeIPN6System7Typinfo9TTypeInfoEPSt9type_infoEENS_22__unordered_map_hasherIS5_S8_NS_4hashIS5_EENS_8equal_toIS5_EELb1EEENS_21__unordered_map_equalIS5_S8_SD_SB_Lb1EEENS_9allocatorIS8_EEE6key_eqB6v15007Ev DATA
 0002:000146bc 00000008H .xdata$_ZNKSt3__121__unordered_map_equalIPN6System7Typinfo9TTypeInfoENS_17__hash_value_typeIS4_PSt9type_infoEENS_8equal_toIS4_EENS_4hashIS4_EELb1EEclB6v15007ERKS8_RKS4_ DATA
 0002:000146c4 00000024H .xdata$_ZNSt3__112__hash_tableINS_17__hash_value_typeIPN6System7Typinfo9TTypeInfoEPSt9type_infoEENS_22__unordered_map_hasherIS5_S8_NS_4hashIS5_EENS_8equal_toIS5_EELb1EEENS_21__unordered_map_equalIS5_S8_SD_SB_Lb1EEENS_9allocatorIS8_EEE21__construct_node_hashIRKNS_21piecewise_construct_tEJNS_5tupleIJRKS5_EEENSO_IJEEEEEENS_10unique_ptrINS_11__hash_nodeIS8_PvEENS_22__hash_node_destructorINSH_ISW_EEEEEEyOT_DpOT0_ DATA
 0002:000146e8 00000008H .xdata$_ZNSt3__112__hash_tableINS_17__hash_value_typeIPN6System7Typinfo9TTypeInfoEPSt9type_infoEENS_22__unordered_map_hasherIS5_S8_NS_4hashIS5_EENS_8equal_toIS5_EELb1EEENS_21__unordered_map_equalIS5_S8_SD_SB_Lb1EEENS_9allocatorIS8_EEE4sizeB6v15007Ev DATA
 0002:000146f0 00000008H .xdata$_ZNSt3__112__hash_tableINS_17__hash_value_typeIPN6System7Typinfo9TTypeInfoEPSt9type_infoEENS_22__unordered_map_hasherIS5_S8_NS_4hashIS5_EENS_8equal_toIS5_EELb1EEENS_21__unordered_map_equalIS5_S8_SD_SB_Lb1EEENS_9allocatorIS8_EEE15max_load_factorB6v15007Ev DATA
 0002:000146f8 00000008H .xdata$_ZNSt3__112__hash_tableINS_17__hash_value_typeIPN6System7Typinfo9TTypeInfoEPSt9type_infoEENS_22__unordered_map_hasherIS5_S8_NS_4hashIS5_EENS_8equal_toIS5_EELb1EEENS_21__unordered_map_equalIS5_S8_SD_SB_Lb1EEENS_9allocatorIS8_EEE15__rehash_uniqueB6v15007Ey DATA
 0002:00014700 00000008H .xdata$_ZNSt3__116__hash_node_baseIPNS_11__hash_nodeINS_17__hash_value_typeIPN6System7Typinfo9TTypeInfoEPSt9type_infoEEPvEEE5__ptrB6v15007Ev DATA
 0002:00014708 00000008H .xdata$_ZNKSt3__110unique_ptrINS_11__hash_nodeINS_17__hash_value_typeIPN6System7Typinfo9TTypeInfoEPSt9type_infoEEPvEENS_22__hash_node_destructorINS_9allocatorISB_EEEEEptB6v15007Ev DATA
 0002:00014710 00000008H .xdata$_ZNKSt3__110unique_ptrINS_11__hash_nodeINS_17__hash_value_typeIPN6System7Typinfo9TTypeInfoEPSt9type_infoEEPvEENS_22__hash_node_destructorINS_9allocatorISB_EEEEE3getB6v15007Ev DATA
 0002:00014718 00000008H .xdata$_ZNSt3__110unique_ptrINS_11__hash_nodeINS_17__hash_value_typeIPN6System7Typinfo9TTypeInfoEPSt9type_infoEEPvEENS_22__hash_node_destructorINS_9allocatorISB_EEEEE7releaseB6v15007Ev DATA
 0002:00014720 00000008H .xdata$_ZNSt3__110unique_ptrINS_11__hash_nodeINS_17__hash_value_typeIPN6System7Typinfo9TTypeInfoEPSt9type_infoEEPvEENS_22__hash_node_destructorINS_9allocatorISB_EEEEED2B6v15007Ev DATA
 0002:00014728 00000008H .xdata$_ZNSt3__115__hash_iteratorIPNS_11__hash_nodeINS_17__hash_value_typeIPN6System7Typinfo9TTypeInfoEPSt9type_infoEEPvEEEC2B6v15007EPNS_16__hash_node_baseISC_EEPKv DATA
 0002:00014730 00000008H .xdata$_ZNSt3__14pairINS_15__hash_iteratorIPNS_11__hash_nodeINS_17__hash_value_typeIPN6System7Typinfo9TTypeInfoEPSt9type_infoEEPvEEEEbEC2B6v15007ISE_RbLSB_0EEEOT_OT0_ DATA
 0002:00014738 00000008H .xdata$_ZNSt3__117__compressed_pairIyNS_22__unordered_map_hasherIPN6System7Typinfo9TTypeInfoENS_17__hash_value_typeIS5_PSt9type_infoEENS_4hashIS5_EENS_8equal_toIS5_EELb1EEEE6secondB6v15007Ev DATA
 0002:00014740 00000008H .xdata$_ZNSt3__122__compressed_pair_elemINS_22__unordered_map_hasherIPN6System7Typinfo9TTypeInfoENS_17__hash_value_typeIS5_PSt9type_infoEENS_4hashIS5_EENS_8equal_toIS5_EELb1EEELi1ELb1EE5__getB6v15007Ev DATA
 0002:00014748 00000020H .xdata$_ZNKSt3__14hashIPN6System7Typinfo9TTypeInfoEEclB6v15007ES4_ DATA
 0002:00014768 00000008H .xdata$_ZNSt3__121__murmur2_or_cityhashIyLy64EEclEPKvy DATA
 0002:00014770 00000008H .xdata$_ZNSt3__121__murmur2_or_cityhashIyLy64EE18__hash_len_0_to_16EPKcy DATA
 0002:00014778 00000008H .xdata$_ZNSt3__121__murmur2_or_cityhashIyLy64EE19__hash_len_17_to_32EPKcy DATA
 0002:00014780 00000008H .xdata$_ZNSt3__121__murmur2_or_cityhashIyLy64EE19__hash_len_33_to_64EPKcy DATA
 0002:00014788 00000008H .xdata$_ZNSt3__110__loadwordB6v15007IyEET_PKv DATA
 0002:00014790 00000008H .xdata$_ZNSt3__121__murmur2_or_cityhashIyLy64EE13__hash_len_16Eyy DATA
 0002:00014798 00000008H .xdata$_ZNSt3__121__murmur2_or_cityhashIyLy64EE29__weak_hash_len_32_with_seedsEPKcyy DATA
 0002:000147a0 00000008H .xdata$_ZNSt3__121__murmur2_or_cityhashIyLy64EE8__rotateEyi DATA
 0002:000147a8 00000008H .xdata$_ZNSt3__14pairIyyEaSB6v15007EOS1_ DATA
 0002:000147b0 00000008H .xdata$_ZNSt3__14swapB6v15007IyEENS_9enable_ifIXaasr21is_move_constructibleIT_EE5valuesr18is_move_assignableIS2_EE5valueEvE4typeERS2_S5_ DATA
 0002:000147b8 00000008H .xdata$_ZNSt3__121__murmur2_or_cityhashIyLy64EE11__shift_mixEy DATA
 0002:000147c0 00000008H .xdata$_ZNSt3__121__murmur2_or_cityhashIyLy64EE22__rotate_by_at_least_1Eyi DATA
 0002:000147c8 00000008H .xdata$_ZNSt3__110__loadwordB6v15007IjEET_PKv DATA
 0002:000147d0 00000008H .xdata$_ZNSt3__121__murmur2_or_cityhashIyLy64EE29__weak_hash_len_32_with_seedsEyyyyyy DATA
 0002:000147d8 00000008H .xdata$_ZNSt3__14pairIyyEC2B6v15007IyyLPv0EEEOT_OT0_ DATA
 0002:000147e0 00000008H .xdata$_ZNKSt3__110unique_ptrIA_PNS_16__hash_node_baseIPNS_11__hash_nodeINS_17__hash_value_typeIPN6System7Typinfo9TTypeInfoEPSt9type_infoEEPvEEEENS_25__bucket_list_deallocatorINS_9allocatorISF_EEEEE11get_deleterB6v15007Ev DATA
 0002:000147e8 00000008H .xdata$_ZNKSt3__125__bucket_list_deallocatorINS_9allocatorIPNS_16__hash_node_baseIPNS_11__hash_nodeINS_17__hash_value_typeIPN6System7Typinfo9TTypeInfoEPSt9type_infoEEPvEEEEEEE4sizeB6v15007Ev DATA
 0002:000147f0 00000008H .xdata$_ZNKSt3__117__compressed_pairIPPNS_16__hash_node_baseIPNS_11__hash_nodeINS_17__hash_value_typeIPN6System7Typinfo9TTypeInfoEPSt9type_infoEEPvEEEENS_25__bucket_list_deallocatorINS_9allocatorISF_EEEEE6secondB6v15007Ev DATA
 0002:000147f8 00000008H .xdata$_ZNKSt3__122__compressed_pair_elemINS_25__bucket_list_deallocatorINS_9allocatorIPNS_16__hash_node_baseIPNS_11__hash_nodeINS_17__hash_value_typeIPN6System7Typinfo9TTypeInfoEPSt9type_infoEEPvEEEEEEEELi1ELb0EE5__getB6v15007Ev DATA
 0002:00014800 00000008H .xdata$_ZNKSt3__117__compressed_pairIyNS_9allocatorIPNS_16__hash_node_baseIPNS_11__hash_nodeINS_17__hash_value_typeIPN6System7Typinfo9TTypeInfoEPSt9type_infoEEPvEEEEEEE5firstB6v15007Ev DATA
 0002:00014808 00000008H .xdata$_ZNKSt3__117__compressed_pairIPPNS_16__hash_node_baseIPNS_11__hash_nodeINS_17__hash_value_typeIPN6System7Typinfo9TTypeInfoEPSt9type_infoEEPvEEEENS_25__bucket_list_deallocatorINS_9allocatorISF_EEEEE5firstB6v15007Ev DATA
 0002:00014810 00000008H .xdata$_ZNKSt3__122__compressed_pair_elemIPPNS_16__hash_node_baseIPNS_11__hash_nodeINS_17__hash_value_typeIPN6System7Typinfo9TTypeInfoEPSt9type_infoEEPvEEEELi0ELb0EE5__getB6v15007Ev DATA
 0002:00014818 00000008H .xdata$_ZNSt3__117__compressed_pairIfNS_21__unordered_map_equalIPN6System7Typinfo9TTypeInfoENS_17__hash_value_typeIS5_PSt9type_infoEENS_8equal_toIS5_EENS_4hashIS5_EELb1EEEE6secondB6v15007Ev DATA
 0002:00014820 00000008H .xdata$_ZNSt3__122__compressed_pair_elemINS_21__unordered_map_equalIPN6System7Typinfo9TTypeInfoENS_17__hash_value_typeIS5_PSt9type_infoEENS_8equal_toIS5_EENS_4hashIS5_EELb1EEELi1ELb1EE5__getB6v15007Ev DATA
 0002:00014828 00000008H .xdata$_ZNKSt3__18equal_toIPN6System7Typinfo9TTypeInfoEEclB6v15007ERKS4_S7_ DATA
 0002:00014830 00000008H .xdata$_ZNKSt3__117__hash_value_typeIPN6System7Typinfo9TTypeInfoEPSt9type_infoE11__get_valueB6v15007Ev DATA
 0002:00014838 00000008H .xdata$_ZNSt3__17launderB6v15007IKNS_4pairIKPN6System7Typinfo9TTypeInfoEPSt9type_infoEEEEPT_SC_ DATA
 0002:00014840 00000008H .xdata$_ZNSt3__19__launderB6v15007IKNS_4pairIKPN6System7Typinfo9TTypeInfoEPSt9type_infoEEEEPT_SC_ DATA
 0002:00014848 00000008H .xdata$_ZNSt3__116allocator_traitsINS_9allocatorINS_11__hash_nodeINS_17__hash_value_typeIPN6System7Typinfo9TTypeInfoEPSt9type_infoEEPvEEEEE8allocateB6v15007ERSD_y DATA
 0002:00014850 00000008H .xdata$_ZNSt3__122__hash_node_destructorINS_9allocatorINS_11__hash_nodeINS_17__hash_value_typeIPN6System7Typinfo9TTypeInfoEPSt9type_infoEEPvEEEEEC2B6v15007ERSD_b DATA
 0002:00014858 00000020H .xdata$_ZNSt3__110unique_ptrINS_11__hash_nodeINS_17__hash_value_typeIPN6System7Typinfo9TTypeInfoEPSt9type_infoEEPvEENS_22__hash_node_destructorINS_9allocatorISB_EEEEEC2B6v15007ILb1EvEEPSB_NS_16__dependent_typeINS_27__unique_ptr_deleter_sfinaeISF_EEXT_EE20__good_rval_ref_typeE DATA
 0002:00014878 00000008H .xdata$_ZNSt3__116allocator_traitsINS_9allocatorINS_11__hash_nodeINS_17__hash_value_typeIPN6System7Typinfo9TTypeInfoEPSt9type_infoEEPvEEEEE9constructB6v15007INS_4pairIKS7_S9_EEJRKNS_21piecewise_construct_tENS_5tupleIJRSH_EEENSM_IJEEEEvEEvRSD_PT_DpOT0_ DATA
 0002:00014880 00000008H .xdata$_ZNSt3__110unique_ptrINS_11__hash_nodeINS_17__hash_value_typeIPN6System7Typinfo9TTypeInfoEPSt9type_infoEEPvEENS_22__hash_node_destructorINS_9allocatorISB_EEEEE11get_deleterB6v15007Ev DATA
 0002:00014888 00000008H .xdata$_ZNSt3__19allocatorINS_11__hash_nodeINS_17__hash_value_typeIPN6System7Typinfo9TTypeInfoEPSt9type_infoEEPvEEE8allocateB6v15007Ey DATA
 0002:00014890 00000008H .xdata$_ZNSt3__116allocator_traitsINS_9allocatorINS_11__hash_nodeINS_17__hash_value_typeIPN6System7Typinfo9TTypeInfoEPSt9type_infoEEPvEEEEE8max_sizeB6v15007ISD_vEEyRKSD_ DATA
 0002:00014898 00000008H .xdata$_ZNKSt3__19allocatorINS_11__hash_nodeINS_17__hash_value_typeIPN6System7Typinfo9TTypeInfoEPSt9type_infoEEPvEEE8max_sizeB6v15007Ev DATA
 0002:000148a0 00000008H .xdata$_ZNSt3__117__compressed_pairIPNS_11__hash_nodeINS_17__hash_value_typeIPN6System7Typinfo9TTypeInfoEPSt9type_infoEEPvEENS_22__hash_node_destructorINS_9allocatorISB_EEEEEC2B6v15007IRSC_SG_EEOT_OT0_ DATA
 0002:000148a8 00000008H .xdata$_ZNSt3__122__compressed_pair_elemIPNS_11__hash_nodeINS_17__hash_value_typeIPN6System7Typinfo9TTypeInfoEPSt9type_infoEEPvEELi0ELb0EEC2B6v15007IRSC_vEEOT_ DATA
 0002:000148b0 00000008H .xdata$_ZNSt3__122__compressed_pair_elemINS_22__hash_node_destructorINS_9allocatorINS_11__hash_nodeINS_17__hash_value_typeIPN6System7Typinfo9TTypeInfoEPSt9type_infoEEPvEEEEEELi1ELb0EEC2B6v15007ISF_vEEOT_ DATA
 0002:000148b8 00000008H .xdata$_ZNSt3__19allocatorINS_11__hash_nodeINS_17__hash_value_typeIPN6System7Typinfo9TTypeInfoEPSt9type_infoEEPvEEE9constructB6v15007INS_4pairIKS6_S8_EEJRKNS_21piecewise_construct_tENS_5tupleIJRSF_EEENSK_IJEEEEEEvPT_DpOT0_ DATA
 0002:000148c0 00000020H .xdata$_ZNSt3__14pairIKPN6System7Typinfo9TTypeInfoEPSt9type_infoEC2B6v15007IJRS5_EJEEENS_21piecewise_construct_tENS_5tupleIJDpT_EEENSC_IJDpT0_EEE DATA
 0002:000148e0 00000008H .xdata$_ZNSt3__14pairIKPN6System7Typinfo9TTypeInfoEPSt9type_infoEC2B6v15007IJRS5_EJEJLy0EEJEEENS_21piecewise_construct_tERNS_5tupleIJDpT_EEERNSC_IJDpT0_EEENS_15__tuple_indicesIJXspT1_EEEENSL_IJXspT2_EEEE DATA
 0002:000148e8 00000008H .xdata$_ZNSt3__13getB6v15007ILy0EJRKPN6System7Typinfo9TTypeInfoEEEERNS_13tuple_elementIXT_ENS_5tupleIJDpT0_EEEE4typeERSB_ DATA
 0002:000148f0 00000008H .xdata$_ZNSt3__112__tuple_leafILy0ERKPN6System7Typinfo9TTypeInfoELb0EE3getB6v15007Ev DATA
 0002:000148f8 00000008H .xdata$_ZNSt3__117__compressed_pairIPNS_11__hash_nodeINS_17__hash_value_typeIPN6System7Typinfo9TTypeInfoEPSt9type_infoEEPvEENS_22__hash_node_destructorINS_9allocatorISB_EEEEE6secondB6v15007Ev DATA
 0002:00014900 00000008H .xdata$_ZNSt3__122__compressed_pair_elemINS_22__hash_node_destructorINS_9allocatorINS_11__hash_nodeINS_17__hash_value_typeIPN6System7Typinfo9TTypeInfoEPSt9type_infoEEPvEEEEEELi1ELb0EE5__getB6v15007Ev DATA
 0002:00014908 00000008H .xdata$_ZNSt3__117__compressed_pairIyNS_22__unordered_map_hasherIPN6System7Typinfo9TTypeInfoENS_17__hash_value_typeIS5_PSt9type_infoEENS_4hashIS5_EENS_8equal_toIS5_EELb1EEEE5firstB6v15007Ev DATA
 0002:00014910 00000008H .xdata$_ZNSt3__117__compressed_pairIfNS_21__unordered_map_equalIPN6System7Typinfo9TTypeInfoENS_17__hash_value_typeIS5_PSt9type_infoEENS_8equal_toIS5_EENS_4hashIS5_EELb1EEEE5firstB6v15007Ev DATA
 0002:00014918 00000008H .xdata$_ZNSt3__112__hash_tableINS_17__hash_value_typeIPN6System7Typinfo9TTypeInfoEPSt9type_infoEENS_22__unordered_map_hasherIS5_S8_NS_4hashIS5_EENS_8equal_toIS5_EELb1EEENS_21__unordered_map_equalIS5_S8_SD_SB_Lb1EEENS_9allocatorIS8_EEE8__rehashILb1EEEvy DATA
 0002:00014920 00000008H .xdata$_ZNSt3__112__hash_tableINS_17__hash_value_typeIPN6System7Typinfo9TTypeInfoEPSt9type_infoEENS_22__unordered_map_hasherIS5_S8_NS_4hashIS5_EENS_8equal_toIS5_EELb1EEENS_21__unordered_map_equalIS5_S8_SD_SB_Lb1EEENS_9allocatorIS8_EEE11__do_rehashILb1EEEvy DATA
 0002:00014928 00000008H .xdata$_ZNSt3__125__debug_db_invalidate_allB6v15007INS_12__hash_tableINS_17__hash_value_typeIPN6System7Typinfo9TTypeInfoEPSt9type_infoEENS_22__unordered_map_hasherIS6_S9_NS_4hashIS6_EENS_8equal_toIS6_EELb1EEENS_21__unordered_map_equalIS6_S9_SE_SC_Lb1EEENS_9allocatorIS9_EEEEEEvPT_ DATA
 0002:00014930 00000008H .xdata$_ZNSt3__110unique_ptrIA_PNS_16__hash_node_baseIPNS_11__hash_nodeINS_17__hash_value_typeIPN6System7Typinfo9TTypeInfoEPSt9type_infoEEPvEEEENS_25__bucket_list_deallocatorINS_9allocatorISF_EEEEE11get_deleterB6v15007Ev DATA
 0002:00014938 00000008H .xdata$_ZNSt3__110unique_ptrIA_PNS_16__hash_node_baseIPNS_11__hash_nodeINS_17__hash_value_typeIPN6System7Typinfo9TTypeInfoEPSt9type_infoEEPvEEEENS_25__bucket_list_deallocatorINS_9allocatorISF_EEEEE5resetB6v15007IPSF_EENS_9enable_ifIXsr28_CheckArrayPointerConversionIT_EE5valueEvE4typeESP_ DATA
 0002:00014940 00000008H .xdata$_ZNSt3__116allocator_traitsINS_9allocatorIPNS_16__hash_node_baseIPNS_11__hash_nodeINS_17__hash_value_typeIPN6System7Typinfo9TTypeInfoEPSt9type_infoEEPvEEEEEEE8allocateB6v15007ERSH_y DATA
 0002:00014948 00000008H .xdata$_ZNSt3__19allocatorIPNS_16__hash_node_baseIPNS_11__hash_nodeINS_17__hash_value_typeIPN6System7Typinfo9TTypeInfoEPSt9type_infoEEPvEEEEE8allocateB6v15007Ey DATA
 0002:00014950 00000008H .xdata$_ZNSt3__116allocator_traitsINS_9allocatorIPNS_16__hash_node_baseIPNS_11__hash_nodeINS_17__hash_value_typeIPN6System7Typinfo9TTypeInfoEPSt9type_infoEEPvEEEEEEE8max_sizeB6v15007ISH_vEEyRKSH_ DATA
 0002:00014958 00000008H .xdata$_ZNKSt3__19allocatorIPNS_16__hash_node_baseIPNS_11__hash_nodeINS_17__hash_value_typeIPN6System7Typinfo9TTypeInfoEPSt9type_infoEEPvEEEEE8max_sizeB6v15007Ev DATA
 0002:00014960 00000008H .xdata$_ZNKSt3__117__compressed_pairIPNS_11__hash_nodeINS_17__hash_value_typeIPN6System7Typinfo9TTypeInfoEPSt9type_infoEEPvEENS_22__hash_node_destructorINS_9allocatorISB_EEEEE5firstB6v15007Ev DATA
 0002:00014968 00000008H .xdata$_ZNKSt3__122__compressed_pair_elemIPNS_11__hash_nodeINS_17__hash_value_typeIPN6System7Typinfo9TTypeInfoEPSt9type_infoEEPvEELi0ELb0EE5__getB6v15007Ev DATA
 0002:00014970 00000008H .xdata$_ZNSt3__117__compressed_pairIPNS_11__hash_nodeINS_17__hash_value_typeIPN6System7Typinfo9TTypeInfoEPSt9type_infoEEPvEENS_22__hash_node_destructorINS_9allocatorISB_EEEEE5firstB6v15007Ev DATA
 0002:00014978 00000008H .xdata$_ZNSt3__122__compressed_pair_elemIPNS_11__hash_nodeINS_17__hash_value_typeIPN6System7Typinfo9TTypeInfoEPSt9type_infoEEPvEELi0ELb0EE5__getB6v15007Ev DATA
 0002:00014980 00000008H .xdata$_ZNSt3__110unique_ptrINS_11__hash_nodeINS_17__hash_value_typeIPN6System7Typinfo9TTypeInfoEPSt9type_infoEEPvEENS_22__hash_node_destructorINS_9allocatorISB_EEEEE5resetB6v15007EPSB_ DATA
 0002:00014988 00000020H .xdata$_ZNSt3__122__hash_node_destructorINS_9allocatorINS_11__hash_nodeINS_17__hash_value_typeIPN6System7Typinfo9TTypeInfoEPSt9type_infoEEPvEEEEEclB6v15007EPSC_ DATA
 0002:000149a8 00000008H .xdata$_ZNSt3__15tupleIJRKPN6System7Typinfo9TTypeInfoEEEC2B6v15007INS_4_AndELi0EEES6_ DATA
 0002:000149b0 00000008H .xdata$_ZNSt3__112__tuple_implINS_15__tuple_indicesIJLy0EEEEJRKPN6System7Typinfo9TTypeInfoEEEC2B6v15007IJLy0EEJS8_EJEJEJS8_EEENS1_IJXspT_EEEENS_13__tuple_typesIJDpT0_EEENS1_IJXspT1_EEEENSC_IJDpT2_EEEDpOT3_ DATA
 0002:000149b8 00000008H .xdata$_ZNSt3__112__tuple_leafILy0ERKPN6System7Typinfo9TTypeInfoELb0EEC2B6v15007IS6_vEEOT_ DATA
 0002:000149c0 00000008H .xdata$_ZNSt3__114pointer_traitsIPNS_17__hash_value_typeIPN6System7Typinfo9TTypeInfoEPSt9type_infoEEE10pointer_toB6v15007ERS8_ DATA
 0002:000149c8 000006d0H .xdata                  DATA
 0002:00015098 00000020H .xdata$_ZN6System8Sysutils11ERangeErrorC3ENS_13UnicodeStringE DATA
 0002:000150b8 00000020H .xdata$_ZN6System11AnsiStringTILt0EED2Ev DATA
 0002:000150d8 00000020H .xdata$_ZN6System8Sysutils9EIntErrorC3ENS_13UnicodeStringE DATA
 0002:000150f8 00000020H .xdata$_ZN6System8Sysutils9EExternalC3ENS_13UnicodeStringE DATA
 0002:00015118 00000008H .xdata$_ZN6System8_CharLenIwEEiPKT_ DATA
 0002:00015120 00000008H .xdata$_ZN6System8_CharLenIDsEEiPKT_ DATA
 0002:00015128 00000008H .xdata$_ZN6System14AnsiStringBaseC2ILt0EEEONS_11AnsiStringTIXT_EEE DATA
 0002:00015130 00000008H .xdata$_ZNK6System14AnsiStringBase8CodePageEv DATA
 0002:00015138 00000008H .xdata$_ZNK6System14AnsiStringBaseixEi DATA
 0002:00015140 00000204H .xdata                  DATA
 0004:00000000 00000234H .data                   DATA
 0004:00000238 000001b0H .bss                    DATA
 0004:000003e8 00000008H .bss$_ZGVZN6System11AnsiStringTILt0EED1EvE13__force_inst1 DATA
 0004:000003f0 00000008H .bss$_ZGVZN6System11AnsiStringTILt0EED1EvE13__force_inst2 DATA
 0004:000003f8 00000008H .bss$_ZZN6System11AnsiStringTILt0EED1EvE13__force_inst1 DATA
 0004:00000400 00000008H .bss$_ZZN6System11AnsiStringTILt0EED1EvE13__force_inst2 DATA
 0005:00000000 00000228H .pdata                  DATA
 0005:00000228 0000000cH .pdata$_ZN6System7Classes15TComponentClassC1EPNS_10TMetaClassE DATA
 0005:00000234 0000000cH .pdata$_ZN6System7Classes15TComponentClassC2EPNS_10TMetaClassE DATA
 0005:00000240 0000000cH .pdata$_ZN6System15DelphiMetaClassINS_7Classes15TComponentClassEEC2EPNS_10TMetaClassE DATA
 0005:0000024c 00000720H .pdata                  DATA
 0005:0000096c 0000000cH .pdata$_ZN3Vcl5Forms5TFormC3EPN6System7Classes10TComponentE DATA
 0005:00000978 0000000cH .pdata$_ZNSt3__16vectorINS0_IiNS_9allocatorIiEEEENS1_IS3_EEEC1B6v15007Ev DATA
 0005:00000984 0000000cH .pdata$_ZNSt3__16vectorIiNS_9allocatorIiEEEC1EyRKi DATA
 0005:00000990 0000000cH .pdata$_ZNSt3__16vectorINS0_IiNS_9allocatorIiEEEENS1_IS3_EEEC1EyRKS3_ DATA
 0005:0000099c 0000000cH .pdata$_ZNSt3__16vectorINS0_IiNS_9allocatorIiEEEENS1_IS3_EEEaSB6v15007EOS5_ DATA
 0005:000009a8 0000000cH .pdata$_ZNSt3__16vectorINS0_IiNS_9allocatorIiEEEENS1_IS3_EEED1B6v15007Ev DATA
 0005:000009b4 0000000cH .pdata$_ZNSt3__16vectorIiNS_9allocatorIiEEED1B6v15007Ev DATA
 0005:000009c0 0000000cH .pdata$_ZN3Vcl5Forms5TFormD0Ev DATA
 0005:000009cc 0000000cH .pdata$_ZNSt3__113random_deviceC1Ev DATA
 0005:000009d8 0000000cH .pdata$_ZNSt3__123mersenne_twister_engineIjLy32ELy624ELy397ELy31ELj2567483615ELy11ELj4294967295ELy7ELj2636928640ELy15ELj4022730752ELy18ELj1812433253EEC1B6v15007Ej DATA
 0005:000009e4 0000000cH .pdata$_ZNSt3__124uniform_int_distributionIiEC1Eii DATA
 0005:000009f0 0000000cH .pdata$_ZNKSt3__18functionIFbiiEEclEii DATA
 0005:000009fc 0000000cH .pdata$_ZNSt3__18functionIFbiiEED1Ev DATA
 0005:00000a08 0000000cH .pdata$_ZNSt3__16vectorINS_13unordered_setIiNS_4hashIiEENS_8equal_toIiEENS_9allocatorIiEEEENS6_IS8_EEEC1Ey DATA
 0005:00000a14 0000000cH .pdata$_ZNSt3__16vectorINS_4pairIiiEENS_9allocatorIS2_EEEC1B6v15007Ev DATA
 0005:00000a20 0000000cH .pdata$_ZNSt3__16vectorINS_4pairIiiEENS_9allocatorIS2_EEE9push_backB6v15007EOS2_ DATA
 0005:00000a2c 0000000cH .pdata$_ZNSt3__14pairIiiEC1B6v15007IRiS3_LPv0EEEOT_OT0_ DATA
 0005:00000a38 0000000cH .pdata$_ZNSt3__17shuffleINS_11__wrap_iterIPNS_4pairIiiEEEERNS_23mersenne_twister_engineIjLy32ELy624ELy397ELy31ELj2567483615ELy11ELj4294967295ELy7ELj2636928640ELy15ELj4022730752ELy18ELj1812433253EEEEEvT_S9_OT0_ DATA
 0005:00000a44 0000000cH .pdata$_ZNSt3__16vectorINS_4pairIiiEENS_9allocatorIS2_EEE5beginB6v15007Ev DATA
 0005:00000a50 0000000cH .pdata$_ZNSt3__16vectorINS_4pairIiiEENS_9allocatorIS2_EEE3endB6v15007Ev DATA
 0005:00000a5c 0000000cH .pdata$_ZNSt3__16vectorINS_4pairIiiEENS_9allocatorIS2_EEEixB6v15007Ey DATA
 0005:00000a68 0000000cH .pdata$_ZNSt3__16vectorINS0_IiNS_9allocatorIiEEEENS1_IS3_EEEixB6v15007Ey DATA
 0005:00000a74 0000000cH .pdata$_ZNSt3__16vectorIiNS_9allocatorIiEEEixB6v15007Ey DATA
 0005:00000a80 0000000cH .pdata$_ZNSt3__16vectorINS_4pairIiiEENS_9allocatorIS2_EEED1B6v15007Ev DATA
 0005:00000a8c 0000000cH .pdata$_ZNSt3__16vectorINS_13unordered_setIiNS_4hashIiEENS_8equal_toIiEENS_9allocatorIiEEEENS6_IS8_EEED1B6v15007Ev DATA
 0005:00000a98 0000000cH .pdata$_ZNSt3__1eqB6v15007ERKNS_21__hash_const_iteratorIPNS_11__hash_nodeIiPvEEEES7_ DATA
 0005:00000aa4 0000000cH .pdata$_ZNSt3__16vectorINS_13unordered_setIiNS_4hashIiEENS_8equal_toIiEENS_9allocatorIiEEEENS6_IS8_EEEixB6v15007Ey DATA
 0005:00000ab0 0000000cH .pdata$_ZNSt3__113unordered_setIiNS_4hashIiEENS_8equal_toIiEENS_9allocatorIiEEE4findB6v15007ERKi DATA
 0005:00000abc 0000000cH .pdata$_ZNSt3__113unordered_setIiNS_4hashIiEENS_8equal_toIiEENS_9allocatorIiEEE3endB6v15007Ev DATA
 0005:00000ac8 0000000cH .pdata$_ZNSt3__16vectorINS0_INS_3setIiNS_4lessIiEENS_9allocatorIiEEEENS4_IS6_EEEENS4_IS8_EEEixB6v15007Ey DATA
 0005:00000ad4 0000000cH .pdata$_ZNSt3__16vectorINS_3setIiNS_4lessIiEENS_9allocatorIiEEEENS4_IS6_EEEixB6v15007Ey DATA
 0005:00000ae0 0000000cH .pdata$_ZNSt3__13setIiNS_4lessIiEENS_9allocatorIiEEE6insertB6v15007ERKi DATA
 0005:00000aec 0000000cH .pdata$_ZNSt3__113unordered_setIiNS_4hashIiEENS_8equal_toIiEENS_9allocatorIiEEE6insertB6v15007ERKi DATA
 0005:00000af8 0000000cH .pdata$_ZNSt3__13setIiNS_4lessIiEENS_9allocatorIiEEE5eraseB6v15007ERKi DATA
 0005:00000b04 0000000cH .pdata$_ZNSt3__113unordered_setIiNS_4hashIiEENS_8equal_toIiEENS_9allocatorIiEEE5eraseB6v15007ERKi DATA
 0005:00000b10 0000000cH .pdata$_ZNSt3__14pairIiiEC1B6v15007IiiLPv0EEEOT_OT0_ DATA
 0005:00000b1c 0000000cH .pdata$_ZNKSt3__13setIiNS_4lessIiEENS_9allocatorIiEEE4sizeB6v15007Ev DATA
 0005:00000b28 0000000cH .pdata$_ZNSt3__14pairIiiEaSB6v15007EOS1_ DATA
 0005:00000b34 0000000cH .pdata$_ZNSt3__113unordered_setIiNS_4hashIiEENS_8equal_toIiEENS_9allocatorIiEEEC1B6v15007Ev DATA
 0005:00000b40 0000000cH .pdata$_ZNKSt3__16vectorINS0_IiNS_9allocatorIiEEEENS1_IS3_EEEixB6v15007Ey DATA
 0005:00000b4c 0000000cH .pdata$_ZNKSt3__16vectorIiNS_9allocatorIiEEEixB6v15007Ey DATA
 0005:00000b58 0000000cH .pdata$_ZNSt3__1neB6v15007ERKNS_21__hash_const_iteratorIPNS_11__hash_nodeIiPvEEEES7_ DATA
 0005:00000b64 0000000cH .pdata$_ZNSt3__113unordered_setIiNS_4hashIiEENS_8equal_toIiEENS_9allocatorIiEEED1B6v15007Ev DATA
 0005:00000b70 0000000cH .pdata$_ZNKSt3__112basic_stringIcNS_11char_traitsIcEENS_9allocatorIcEEE5c_strB6v15007Ev DATA
 0005:00000b7c 0000000cH .pdata$_ZNSt3__13setIiNS_4lessIiEENS_9allocatorIiEEE5beginB6v15007Ev DATA
 0005:00000b88 0000000cH .pdata$_ZNSt3__13setIiNS_4lessIiEENS_9allocatorIiEEE3endB6v15007Ev DATA
 0005:00000b94 0000000cH .pdata$_ZNSt3__1neB6v15007ERKNS_21__tree_const_iteratorIiPNS_11__tree_nodeIiPvEExEES7_ DATA
 0005:00000ba0 0000000cH .pdata$_ZNKSt3__121__tree_const_iteratorIiPNS_11__tree_nodeIiPvEExEdeB6v15007Ev DATA
 0005:00000bac 0000000cH .pdata$_ZNSt3__121__tree_const_iteratorIiPNS_11__tree_nodeIiPvEExEppB6v15007Ev DATA
 0005:00000bb8 0000000cH .pdata$_ZNSt3__114priority_queueI4CellNS_6vectorIS1_NS_9allocatorIS1_EEEENS_4lessIS1_EEEC1B6v15007Ev DATA
 0005:00000bc4 0000000cH .pdata$_ZNSt3__114priority_queueI4CellNS_6vectorIS1_NS_9allocatorIS1_EEEENS_4lessIS1_EEE4pushEOS1_ DATA
 0005:00000bd0 0000000cH .pdata$_ZNKSt3__114priority_queueI4CellNS_6vectorIS1_NS_9allocatorIS1_EEEENS_4lessIS1_EEE5emptyB6v15007Ev DATA
 0005:00000bdc 0000000cH .pdata$_ZNKSt3__114priority_queueI4CellNS_6vectorIS1_NS_9allocatorIS1_EEEENS_4lessIS1_EEE3topB6v15007Ev DATA
 0005:00000be8 0000000cH .pdata$_ZNSt3__114priority_queueI4CellNS_6vectorIS1_NS_9allocatorIS1_EEEENS_4lessIS1_EEE3popEv DATA
 0005:00000bf4 0000000cH .pdata$_ZNSt3__114priority_queueI4CellNS_6vectorIS1_NS_9allocatorIS1_EEEENS_4lessIS1_EEED1Ev DATA
 0005:00000c00 0000000cH .pdata$_ZNSt3__15queueI5StateNS_5dequeIS1_NS_9allocatorIS1_EEEEEC1B6v15007Ev DATA
 0005:00000c0c 0000000cH .pdata$_ZNSt3__15queueI5StateNS_5dequeIS1_NS_9allocatorIS1_EEEEE4pushB6v15007EOS1_ DATA
 0005:00000c18 0000000cH .pdata$_ZNSt3__16vectorINS0_IiNS_9allocatorIiEEEENS1_IS3_EEEC1ERKS5_ DATA
 0005:00000c24 0000000cH .pdata$_ZN5StateC1ENSt3__16vectorINS1_IiNS0_9allocatorIiEEEENS2_IS4_EEEEii DATA
 0005:00000c30 0000000cH .pdata$_ZN5StateD1Ev    DATA
 0005:00000c3c 0000000cH .pdata$_ZNKSt3__15queueI5StateNS_5dequeIS1_NS_9allocatorIS1_EEEEE5emptyB6v15007Ev DATA
 0005:00000c48 0000000cH .pdata$_ZNSt3__15queueI5StateNS_5dequeIS1_NS_9allocatorIS1_EEEEE5frontB6v15007Ev DATA
 0005:00000c54 0000000cH .pdata$_ZN5StateC1ERKS_ DATA
 0005:00000c60 0000000cH .pdata$_ZNSt3__15queueI5StateNS_5dequeIS1_NS_9allocatorIS1_EEEEE3popB6v15007Ev DATA
 0005:00000c6c 0000000cH .pdata$_ZNSt3__16vectorINS0_IiNS_9allocatorIiEEEENS1_IS3_EEEaSB6v15007ERKS5_ DATA
 0005:00000c78 0000000cH .pdata$_ZNSt3__1lsINS_11char_traitsIcEEEERNS_13basic_ostreamIcT_EES6_PKc DATA
 0005:00000c84 0000000cH .pdata$_ZNSt3__113basic_ostreamIcNS_11char_traitsIcEEElsB6v15007EPFRS3_S4_E DATA
 0005:00000c90 0000000cH .pdata$_ZNSt3__14endlIcNS_11char_traitsIcEEEERNS_13basic_ostreamIT_T0_EES7_ DATA
 0005:00000c9c 0000000cH .pdata$_ZNSt3__15queueI5StateNS_5dequeIS1_NS_9allocatorIS1_EEEEED1Ev DATA
 0005:00000ca8 0000000cH .pdata$_ZNSt3__16vectorINS_3setIiNS_4lessIiEENS_9allocatorIiEEEENS4_IS6_EEEC1Ey DATA
 0005:00000cb4 0000000cH .pdata$_ZNSt3__16vectorINS0_INS_3setIiNS_4lessIiEENS_9allocatorIiEEEENS4_IS6_EEEENS4_IS8_EEEC1EyRKS8_ DATA
 0005:00000cc0 0000000cH .pdata$_ZNSt3__16vectorINS_3setIiNS_4lessIiEENS_9allocatorIiEEEENS4_IS6_EEED1B6v15007Ev DATA
 0005:00000ccc 0000000cH .pdata$_ZNSt3__16vectorINS0_INS_3setIiNS_4lessIiEENS_9allocatorIiEEEENS4_IS6_EEEENS4_IS8_EEED1B6v15007Ev DATA
 0005:00000cd8 0000000cH .pdata$_ZNK6System13UnicodeString7IsEmptyEv DATA
 0005:00000ce4 0000000cH .pdata$_ZN6TForm1D0Ev   DATA
 0005:00000cf0 0000000cH .pdata$_ZN3Vcl5Forms5TFormC3EPN6System7Classes10TComponentEi DATA
 0005:00000cfc 0000000cH .pdata$_ZN3Vcl5Forms5TFormC3EPN6System7Classes10TComponentEii DATA
 0005:00000d08 0000000cH .pdata$_ZNSt3__112basic_stringIcNS_11char_traitsIcEENS_9allocatorIcEEEC1B6v15007IDnEEPKc DATA
 0005:00000d14 0000000cH .pdata$_ZNSt3__112basic_stringIcNS_11char_traitsIcEENS_9allocatorIcEEEC2B6v15007IDnEEPKc DATA
 0005:00000d20 0000000cH .pdata$_ZNSt3__117__compressed_pairINS_12basic_stringIcNS_11char_traitsIcEENS_9allocatorIcEEE5__repES5_EC1B6v15007INS_18__default_init_tagESA_EEOT_OT0_ DATA
 0005:00000d2c 0000000cH .pdata$_ZNSt3__111char_traitsIcE6lengthEPKc DATA
 0005:00000d38 0000000cH .pdata$_ZNSt3__119__debug_db_insert_cB6v15007INS_12basic_stringIcNS_11char_traitsIcEENS_9allocatorIcEEEEEEvPT_ DATA
 0005:00000d44 0000000cH .pdata$_ZNSt3__117__compressed_pairINS_12basic_stringIcNS_11char_traitsIcEENS_9allocatorIcEEE5__repES5_EC2B6v15007INS_18__default_init_tagESA_EEOT_OT0_ DATA
 0005:00000d50 0000000cH .pdata$_ZNSt3__122__compressed_pair_elemINS_12basic_stringIcNS_11char_traitsIcEENS_9allocatorIcEEE5__repELi0ELb0EEC2B6v15007ENS_18__default_init_tagE DATA
 0005:00000d5c 0000000cH .pdata$_ZNSt3__122__compressed_pair_elemINS_9allocatorIcEELi1ELb1EEC2B6v15007ENS_18__default_init_tagE DATA
 0005:00000d68 0000000cH .pdata$_ZNSt3__19allocatorIcEC2B6v15007Ev DATA
 0005:00000d74 0000000cH .pdata$_ZNSt3__116__non_trivial_ifILb1ENS_9allocatorIcEEEC2B6v15007Ev DATA
 0005:00000d80 0000000cH .pdata$_ZNSt3__14pairIiiEC2B6v15007IRiS3_LPv0EEEOT_OT0_ DATA
 0005:00000d8c 0000000cH .pdata$_ZNSt3__14pairIiiEC2B6v15007IiiLPv0EEEOT_OT0_ DATA
 0005:00000d98 0000000cH .pdata$_ZNSt3__114priority_queueI4CellNS_6vectorIS1_NS_9allocatorIS1_EEEENS_4lessIS1_EEED2Ev DATA
 0005:00000da4 0000000cH .pdata$_ZNSt3__16vectorI4CellNS_9allocatorIS1_EEED1B6v15007Ev DATA
 0005:00000db0 0000000cH .pdata$_ZNSt3__16vectorI4CellNS_9allocatorIS1_EEED2B6v15007Ev DATA
 0005:00000dbc 0000000cH .pdata$_ZNSt3__16vectorI4CellNS_9allocatorIS1_EEE16__destroy_vectorC1ERS4_ DATA
 0005:00000dc8 0000000cH .pdata$_ZNSt3__16vectorI4CellNS_9allocatorIS1_EEE16__destroy_vectorclB6v15007Ev DATA
 0005:00000dd4 0000000cH .pdata$_ZNSt3__16vectorI4CellNS_9allocatorIS1_EEE16__destroy_vectorC2ERS4_ DATA
 0005:00000de0 0000000cH .pdata$_ZNKSt3__16vectorI4CellNS_9allocatorIS1_EEE17__annotate_deleteB6v15007Ev DATA
 0005:00000dec 0000000cH .pdata$_ZNSt3__118__debug_db_erase_cB6v15007INS_6vectorI4CellNS_9allocatorIS2_EEEEEEvPT_ DATA
 0005:00000df8 0000000cH .pdata$_ZNSt3__16vectorI4CellNS_9allocatorIS1_EEE7__clearB6v15007Ev DATA
 0005:00000e04 0000000cH .pdata$_ZNSt3__116allocator_traitsINS_9allocatorI4CellEEE10deallocateB6v15007ERS3_PS2_y DATA
 0005:00000e10 0000000cH .pdata$_ZNSt3__16vectorI4CellNS_9allocatorIS1_EEE7__allocB6v15007Ev DATA
 0005:00000e1c 0000000cH .pdata$_ZNKSt3__16vectorI4CellNS_9allocatorIS1_EEE8capacityB6v15007Ev DATA
 0005:00000e28 0000000cH .pdata$_ZNKSt3__16vectorI4CellNS_9allocatorIS1_EEE31__annotate_contiguous_containerB6v15007EPKvS6_S6_S6_ DATA
 0005:00000e34 0000000cH .pdata$_ZNKSt3__16vectorI4CellNS_9allocatorIS1_EEE4dataB6v15007Ev DATA
 0005:00000e40 0000000cH .pdata$_ZNKSt3__16vectorI4CellNS_9allocatorIS1_EEE4sizeB6v15007Ev DATA
 0005:00000e4c 0000000cH .pdata$_ZNSt3__112__to_addressB6v15007I4CellEEPT_S3_ DATA
 0005:00000e58 0000000cH .pdata$_ZNSt3__16vectorI4CellNS_9allocatorIS1_EEE22__base_destruct_at_endB6v15007EPS1_ DATA
 0005:00000e64 0000000cH .pdata$_ZNSt3__116allocator_traitsINS_9allocatorI4CellEEE7destroyB6v15007IS2_vEEvRS3_PT_ DATA
 0005:00000e70 0000000cH .pdata$_ZNSt3__19allocatorI4CellE7destroyB6v15007EPS1_ DATA
 0005:00000e7c 0000000cH .pdata$_ZNSt3__19allocatorI4CellE10deallocateB6v15007EPS1_y DATA
 0005:00000e88 0000000cH .pdata$_ZNSt3__119__libcpp_deallocateB6v15007EPvyy DATA
 0005:00000e94 0000000cH .pdata$_ZNSt3__124__is_overaligned_for_newB6v15007Ey DATA
 0005:00000ea0 0000000cH .pdata$_ZNSt3__127__do_deallocate_handle_sizeB6v15007IJSt11align_val_tEEEvPvyDpT_ DATA
 0005:00000eac 0000000cH .pdata$_ZNSt3__127__do_deallocate_handle_sizeB6v15007IJEEEvPvyDpT_ DATA
 0005:00000eb8 0000000cH .pdata$_ZNSt3__124__libcpp_operator_deleteB6v15007IJPvSt11align_val_tEEEvDpT_ DATA
 0005:00000ec4 0000000cH .pdata$_ZNSt3__124__libcpp_operator_deleteB6v15007IJPvEEEvDpT_ DATA
 0005:00000ed0 0000000cH .pdata$_ZNSt3__117__compressed_pairIP4CellNS_9allocatorIS1_EEE6secondB6v15007Ev DATA
 0005:00000edc 0000000cH .pdata$_ZNSt3__122__compressed_pair_elemINS_9allocatorI4CellEELi1ELb1EE5__getB6v15007Ev DATA
 0005:00000ee8 0000000cH .pdata$_ZNKSt3__16vectorI4CellNS_9allocatorIS1_EEE9__end_capB6v15007Ev DATA
 0005:00000ef4 0000000cH .pdata$_ZNKSt3__117__compressed_pairIP4CellNS_9allocatorIS1_EEE5firstB6v15007Ev DATA
 0005:00000f00 0000000cH .pdata$_ZNKSt3__122__compressed_pair_elemIP4CellLi0ELb0EE5__getB6v15007Ev DATA
 0005:00000f0c 0000000cH .pdata$_ZN5StateC2ENSt3__16vectorINS1_IiNS0_9allocatorIiEEEENS2_IS4_EEEEii DATA
 0005:00000f18 0000000cH .pdata$_ZN5StateD2Ev    DATA
 0005:00000f24 0000000cH .pdata$_ZN5StateC2ERKS_ DATA
 0005:00000f30 0000000cH .pdata$_ZNSt3__15queueI5StateNS_5dequeIS1_NS_9allocatorIS1_EEEEED2Ev DATA
 0005:00000f3c 0000000cH .pdata$_ZNSt3__15dequeI5StateNS_9allocatorIS1_EEED1Ev DATA
 0005:00000f48 0000000cH .pdata$_ZNSt3__15dequeI5StateNS_9allocatorIS1_EEED2Ev DATA
 0005:00000f54 0000000cH .pdata$_ZNSt3__112__deque_baseI5StateNS_9allocatorIS1_EEED2Ev DATA
 0005:00000f60 0000000cH .pdata$_ZNSt3__112__deque_baseI5StateNS_9allocatorIS1_EEE5clearEv DATA
 0005:00000f6c 0000000cH .pdata$_ZNSt3__114__split_bufferIP5StateNS_9allocatorIS2_EEE5beginB6v15007Ev DATA
 0005:00000f78 0000000cH .pdata$_ZNSt3__114__split_bufferIP5StateNS_9allocatorIS2_EEE3endB6v15007Ev DATA
 0005:00000f84 0000000cH .pdata$_ZNSt3__116allocator_traitsINS_9allocatorI5StateEEE10deallocateB6v15007ERS3_PS2_y DATA
 0005:00000f90 0000000cH .pdata$_ZNSt3__112__deque_baseI5StateNS_9allocatorIS1_EEE7__allocB6v15007Ev DATA
 0005:00000f9c 0000000cH .pdata$_ZNSt3__114__split_bufferIP5StateNS_9allocatorIS2_EEED1Ev DATA
 0005:00000fa8 0000000cH .pdata$_ZNSt3__112__deque_baseI5StateNS_9allocatorIS1_EEE5beginEv DATA
 0005:00000fb4 0000000cH .pdata$_ZNSt3__112__deque_baseI5StateNS_9allocatorIS1_EEE3endEv DATA
 0005:00000fc0 0000000cH .pdata$_ZNSt3__1neB6v15007ERKNS_16__deque_iteratorI5StatePS1_RS1_PS2_xLx128EEES7_ DATA
 0005:00000fcc 0000000cH .pdata$_ZNSt3__116allocator_traitsINS_9allocatorI5StateEEE7destroyB6v15007IS2_vEEvRS3_PT_ DATA
 0005:00000fd8 0000000cH .pdata$_ZNKSt3__116__deque_iteratorI5StatePS1_RS1_PS2_xLx128EEdeB6v15007Ev DATA
 0005:00000fe4 0000000cH .pdata$_ZNSt3__116__deque_iteratorI5StatePS1_RS1_PS2_xLx128EEppB6v15007Ev DATA
 0005:00000ff0 0000000cH .pdata$_ZNSt3__112__deque_baseI5StateNS_9allocatorIS1_EEE4sizeB6v15007Ev DATA
 0005:00000ffc 0000000cH .pdata$_ZNKSt3__114__split_bufferIP5StateNS_9allocatorIS2_EEE4sizeB6v15007Ev DATA
 0005:00001008 0000000cH .pdata$_ZNSt3__114__split_bufferIP5StateNS_9allocatorIS2_EEE5frontB6v15007Ev DATA
 0005:00001014 0000000cH .pdata$_ZNSt3__114__split_bufferIP5StateNS_9allocatorIS2_EEE9pop_frontB6v15007Ev DATA
 0005:00001020 0000000cH .pdata$_ZNKSt3__114__split_bufferIP5StateNS_9allocatorIS2_EEE5emptyB6v15007Ev DATA
 0005:0000102c 0000000cH .pdata$_ZNSt3__116__deque_iteratorI5StatePS1_RS1_PS2_xLx128EEC1B6v15007ES4_S2_ DATA
 0005:00001038 0000000cH .pdata$_ZNSt3__116__deque_iteratorI5StatePS1_RS1_PS2_xLx128EEC2B6v15007ES4_S2_ DATA
 0005:00001044 0000000cH .pdata$_ZNSt3__1eqB6v15007ERKNS_16__deque_iteratorI5StatePS1_RS1_PS2_xLx128EEES7_ DATA
 0005:00001050 0000000cH .pdata$_ZNSt3__19allocatorI5StateE7destroyB6v15007EPS1_ DATA
 0005:0000105c 0000000cH .pdata$_ZNSt3__117__compressed_pairIyNS_9allocatorI5StateEEE5firstB6v15007Ev DATA
 0005:00001068 0000000cH .pdata$_ZNSt3__122__compressed_pair_elemIyLi0ELb0EE5__getB6v15007Ev DATA
 0005:00001074 0000000cH .pdata$_ZNSt3__114__split_bufferIP5StateNS_9allocatorIS2_EEE19__destruct_at_beginB6v15007EPS2_ DATA
 0005:00001080 0000000cH .pdata$_ZNSt3__114__split_bufferIP5StateNS_9allocatorIS2_EEE19__destruct_at_beginEPS2_NS_17integral_constantIbLb1EEE DATA
 0005:0000108c 0000000cH .pdata$_ZNSt3__19allocatorI5StateE10deallocateB6v15007EPS1_y DATA
 0005:00001098 0000000cH .pdata$_ZNSt3__117__compressed_pairIyNS_9allocatorI5StateEEE6secondB6v15007Ev DATA
 0005:000010a4 0000000cH .pdata$_ZNSt3__122__compressed_pair_elemINS_9allocatorI5StateEELi1ELb1EE5__getB6v15007Ev DATA
 0005:000010b0 0000000cH .pdata$_ZNSt3__114__split_bufferIP5StateNS_9allocatorIS2_EEED2Ev DATA
 0005:000010bc 0000000cH .pdata$_ZNSt3__114__split_bufferIP5StateNS_9allocatorIS2_EEE5clearB6v15007Ev DATA
 0005:000010c8 0000000cH .pdata$_ZNSt3__116allocator_traitsINS_9allocatorIP5StateEEE10deallocateB6v15007ERS4_PS3_y DATA
 0005:000010d4 0000000cH .pdata$_ZNSt3__114__split_bufferIP5StateNS_9allocatorIS2_EEE7__allocB6v15007Ev DATA
 0005:000010e0 0000000cH .pdata$_ZNKSt3__114__split_bufferIP5StateNS_9allocatorIS2_EEE8capacityB6v15007Ev DATA
 0005:000010ec 0000000cH .pdata$_ZNSt3__114__split_bufferIP5StateNS_9allocatorIS2_EEE17__destruct_at_endB6v15007EPS2_ DATA
 0005:000010f8 0000000cH .pdata$_ZNSt3__114__split_bufferIP5StateNS_9allocatorIS2_EEE17__destruct_at_endB6v15007EPS2_NS_17integral_constantIbLb0EEE DATA
 0005:00001104 0000000cH .pdata$_ZNSt3__116allocator_traitsINS_9allocatorIP5StateEEE7destroyB6v15007IS3_vEEvRS4_PT_ DATA
 0005:00001110 0000000cH .pdata$_ZNSt3__112__to_addressB6v15007IP5StateEEPT_S4_ DATA
 0005:0000111c 0000000cH .pdata$_ZNSt3__19allocatorIP5StateE7destroyB6v15007EPS2_ DATA
 0005:00001128 0000000cH .pdata$_ZNSt3__19allocatorIP5StateE10deallocateB6v15007EPS2_y DATA
 0005:00001134 0000000cH .pdata$_ZNSt3__117__compressed_pairIPP5StateNS_9allocatorIS2_EEE6secondB6v15007Ev DATA
 0005:00001140 0000000cH .pdata$_ZNSt3__122__compressed_pair_elemINS_9allocatorIP5StateEELi1ELb1EE5__getB6v15007Ev DATA
 0005:0000114c 0000000cH .pdata$_ZNKSt3__114__split_bufferIP5StateNS_9allocatorIS2_EEE9__end_capB6v15007Ev DATA
 0005:00001158 0000000cH .pdata$_ZNKSt3__117__compressed_pairIPP5StateNS_9allocatorIS2_EEE5firstB6v15007Ev DATA
 0005:00001164 0000000cH .pdata$_ZNKSt3__122__compressed_pair_elemIPP5StateLi0ELb0EE5__getB6v15007Ev DATA
 0005:00001170 0000000cH .pdata$_ZNKSt3__112basic_stringIcNS_11char_traitsIcEENS_9allocatorIcEEE4dataB6v15007Ev DATA
 0005:0000117c 0000000cH .pdata$_ZNSt3__112__to_addressB6v15007IKcEEPT_S3_ DATA
 0005:00001188 0000000cH .pdata$_ZNKSt3__112basic_stringIcNS_11char_traitsIcEENS_9allocatorIcEEE13__get_pointerB6v15007Ev DATA
 0005:00001194 0000000cH .pdata$_ZNKSt3__112basic_stringIcNS_11char_traitsIcEENS_9allocatorIcEEE9__is_longB6v15007Ev DATA
 0005:000011a0 0000000cH .pdata$_ZNKSt3__112basic_stringIcNS_11char_traitsIcEENS_9allocatorIcEEE18__get_long_pointerB6v15007Ev DATA
 0005:000011ac 0000000cH .pdata$_ZNKSt3__112basic_stringIcNS_11char_traitsIcEENS_9allocatorIcEEE19__get_short_pointerB6v15007Ev DATA
 0005:000011b8 0000000cH .pdata$_ZNKSt3__117__compressed_pairINS_12basic_stringIcNS_11char_traitsIcEENS_9allocatorIcEEE5__repES5_E5firstB6v15007Ev DATA
 0005:000011c4 0000000cH .pdata$_ZNKSt3__122__compressed_pair_elemINS_12basic_stringIcNS_11char_traitsIcEENS_9allocatorIcEEE5__repELi0ELb0EE5__getB6v15007Ev DATA
 0005:000011d0 0000000cH .pdata$_ZNSt3__114pointer_traitsIPKcE10pointer_toB6v15007ERS1_ DATA
 0005:000011dc 0000000cH .pdata$_ZNSt3__124__put_character_sequenceIcNS_11char_traitsIcEEEERNS_13basic_ostreamIT_T0_EES7_PKS4_y DATA
 0005:000011e8 0000000cH .pdata$_ZNSt3__113basic_ostreamIcNS_11char_traitsIcEEE6sentryC1ERS3_ DATA
 0005:000011f4 0000000cH .pdata$_ZNKSt3__113basic_ostreamIcNS_11char_traitsIcEEE6sentrycvbB6v15007Ev DATA
 0005:00001200 0000000cH .pdata$_ZNSt3__116__pad_and_outputIcNS_11char_traitsIcEEEENS_19ostreambuf_iteratorIT_T0_EES6_PKS4_S8_S8_RNS_8ios_baseES4_ DATA
 0005:0000120c 0000000cH .pdata$_ZNSt3__119ostreambuf_iteratorIcNS_11char_traitsIcEEEC1B6v15007ERNS_13basic_ostreamIcS2_EE DATA
 0005:00001218 0000000cH .pdata$_ZNKSt3__18ios_base5flagsB6v15007Ev DATA
 0005:00001224 0000000cH .pdata$_ZNKSt3__19basic_iosIcNS_11char_traitsIcEEE4fillB6v15007Ev DATA
 0005:00001230 0000000cH .pdata$_ZNKSt3__119ostreambuf_iteratorIcNS_11char_traitsIcEEE6failedB6v15007Ev DATA
 0005:0000123c 0000000cH .pdata$_ZNSt3__19basic_iosIcNS_11char_traitsIcEEE8setstateB6v15007Ej DATA
 0005:00001248 0000000cH .pdata$_ZNSt3__113basic_ostreamIcNS_11char_traitsIcEEE6sentryD1Ev DATA
 0005:00001254 0000000cH .pdata$_ZNSt3__113basic_ostreamIcNS_11char_traitsIcEEE6sentryC2ERS3_ DATA
 0005:00001260 0000000cH .pdata$_ZNKSt3__19basic_iosIcNS_11char_traitsIcEEE4goodB6v15007Ev DATA
 0005:0000126c 0000000cH .pdata$_ZNKSt3__19basic_iosIcNS_11char_traitsIcEEE3tieB6v15007Ev DATA
 0005:00001278 0000000cH .pdata$_ZNKSt3__18ios_base4goodB6v15007Ev DATA
 0005:00001284 0000000cH .pdata$_ZNKSt3__18ios_base5widthB6v15007Ev DATA
 0005:00001290 0000000cH .pdata$_ZNSt3__115basic_streambufIcNS_11char_traitsIcEEE5sputnB6v15007EPKcx DATA
 0005:0000129c 0000000cH .pdata$_ZNSt3__112basic_stringIcNS_11char_traitsIcEENS_9allocatorIcEEEC1B6v15007Eyc DATA
 0005:000012a8 0000000cH .pdata$_ZNSt3__112basic_stringIcNS_11char_traitsIcEENS_9allocatorIcEEE4dataB6v15007Ev DATA
 0005:000012b4 0000000cH .pdata$_ZNSt3__18ios_base5widthB6v15007Ex DATA
 0005:000012c0 0000000cH .pdata$_ZNSt3__112basic_stringIcNS_11char_traitsIcEENS_9allocatorIcEEEC2B6v15007Eyc DATA
 0005:000012cc 0000000cH .pdata$_ZNSt3__112__to_addressB6v15007IcEEPT_S2_ DATA
 0005:000012d8 0000000cH .pdata$_ZNSt3__112basic_stringIcNS_11char_traitsIcEENS_9allocatorIcEEE13__get_pointerB6v15007Ev DATA
 0005:000012e4 0000000cH .pdata$_ZNSt3__112basic_stringIcNS_11char_traitsIcEENS_9allocatorIcEEE18__get_long_pointerB6v15007Ev DATA
 0005:000012f0 0000000cH .pdata$_ZNSt3__112basic_stringIcNS_11char_traitsIcEENS_9allocatorIcEEE19__get_short_pointerB6v15007Ev DATA
 0005:000012fc 0000000cH .pdata$_ZNSt3__117__compressed_pairINS_12basic_stringIcNS_11char_traitsIcEENS_9allocatorIcEEE5__repES5_E5firstB6v15007Ev DATA
 0005:00001308 0000000cH .pdata$_ZNSt3__122__compressed_pair_elemINS_12basic_stringIcNS_11char_traitsIcEENS_9allocatorIcEEE5__repELi0ELb0EE5__getB6v15007Ev DATA
 0005:00001314 0000000cH .pdata$_ZNSt3__114pointer_traitsIPcE10pointer_toB6v15007ERc DATA
 0005:00001320 0000000cH .pdata$_ZNSt3__119ostreambuf_iteratorIcNS_11char_traitsIcEEEC2B6v15007ERNS_13basic_ostreamIcS2_EE DATA
 0005:0000132c 0000000cH .pdata$_ZNKSt3__19basic_iosIcNS_11char_traitsIcEEE5rdbufB6v15007Ev DATA
 0005:00001338 0000000cH .pdata$_ZNKSt3__18ios_base5rdbufB6v15007Ev DATA
 0005:00001344 0000000cH .pdata$_ZNSt3__111char_traitsIcE11eq_int_typeEii DATA
 0005:00001350 0000000cH .pdata$_ZNKSt3__19basic_iosIcNS_11char_traitsIcEEE5widenB6v15007Ec DATA
 0005:0000135c 0000000cH .pdata$_ZNSt3__19use_facetB6v15007INS_5ctypeIcEEEERKT_RKNS_6localeE DATA
 0005:00001368 0000000cH .pdata$_ZNKSt3__15ctypeIcE5widenB6v15007Ec DATA
 0005:00001374 0000000cH .pdata$_ZNSt3__18ios_base8setstateB6v15007Ej DATA
 0005:00001380 0000000cH .pdata$_ZNSt3__113basic_ostreamIcNS_11char_traitsIcEEE6sentryD2Ev DATA
 0005:0000138c 0000000cH .pdata$_ZNSt3__115basic_streambufIcNS_11char_traitsIcEEE7pubsyncB6v15007Ev DATA
 0005:00001398 0000000cH .pdata$_ZNSt3__16vectorINS0_IiNS_9allocatorIiEEEENS1_IS3_EEEC2B6v15007Ev DATA
 0005:000013a4 0000000cH .pdata$_ZNSt3__117__compressed_pairIPNS_6vectorIiNS_9allocatorIiEEEENS2_IS4_EEEC1B6v15007IDnNS_18__default_init_tagEEEOT_OT0_ DATA
 0005:000013b0 0000000cH .pdata$_ZNSt3__119__debug_db_insert_cB6v15007INS_6vectorINS1_IiNS_9allocatorIiEEEENS2_IS4_EEEEEEvPT_ DATA
 0005:000013bc 0000000cH .pdata$_ZNSt3__117__compressed_pairIPNS_6vectorIiNS_9allocatorIiEEEENS2_IS4_EEEC2B6v15007IDnNS_18__default_init_tagEEEOT_OT0_ DATA
 0005:000013c8 0000000cH .pdata$_ZNSt3__122__compressed_pair_elemIPNS_6vectorIiNS_9allocatorIiEEEELi0ELb0EEC2B6v15007IDnvEEOT_ DATA
 0005:000013d4 0000000cH .pdata$_ZNSt3__122__compressed_pair_elemINS_9allocatorINS_6vectorIiNS1_IiEEEEEELi1ELb1EEC2B6v15007ENS_18__default_init_tagE DATA
 0005:000013e0 0000000cH .pdata$_ZNSt3__19allocatorINS_6vectorIiNS0_IiEEEEEC2B6v15007Ev DATA
 0005:000013ec 0000000cH .pdata$_ZNSt3__116__non_trivial_ifILb1ENS_9allocatorINS_6vectorIiNS1_IiEEEEEEEC2B6v15007Ev DATA
 0005:000013f8 0000000cH .pdata$_ZNSt3__16vectorINS0_IiNS_9allocatorIiEEEENS1_IS3_EEED2B6v15007Ev DATA
 0005:00001404 0000000cH .pdata$_ZNSt3__16vectorINS0_IiNS_9allocatorIiEEEENS1_IS3_EEE16__destroy_vectorC1ERS5_ DATA
 0005:00001410 0000000cH .pdata$_ZNSt3__16vectorINS0_IiNS_9allocatorIiEEEENS1_IS3_EEE16__destroy_vectorclB6v15007Ev DATA
 0005:0000141c 0000000cH .pdata$_ZNSt3__16vectorINS0_IiNS_9allocatorIiEEEENS1_IS3_EEE16__destroy_vectorC2ERS5_ DATA
 0005:00001428 0000000cH .pdata$_ZNKSt3__16vectorINS0_IiNS_9allocatorIiEEEENS1_IS3_EEE17__annotate_deleteB6v15007Ev DATA
 0005:00001434 0000000cH .pdata$_ZNSt3__118__debug_db_erase_cB6v15007INS_6vectorINS1_IiNS_9allocatorIiEEEENS2_IS4_EEEEEEvPT_ DATA
 0005:00001440 0000000cH .pdata$_ZNSt3__16vectorINS0_IiNS_9allocatorIiEEEENS1_IS3_EEE7__clearB6v15007Ev DATA
 0005:0000144c 0000000cH .pdata$_ZNSt3__116allocator_traitsINS_9allocatorINS_6vectorIiNS1_IiEEEEEEE10deallocateB6v15007ERS5_PS4_y DATA
 0005:00001458 0000000cH .pdata$_ZNSt3__16vectorINS0_IiNS_9allocatorIiEEEENS1_IS3_EEE7__allocB6v15007Ev DATA
 0005:00001464 0000000cH .pdata$_ZNKSt3__16vectorINS0_IiNS_9allocatorIiEEEENS1_IS3_EEE8capacityB6v15007Ev DATA
 0005:00001470 0000000cH .pdata$_ZNKSt3__16vectorINS0_IiNS_9allocatorIiEEEENS1_IS3_EEE31__annotate_contiguous_containerB6v15007EPKvS7_S7_S7_ DATA
 0005:0000147c 0000000cH .pdata$_ZNKSt3__16vectorINS0_IiNS_9allocatorIiEEEENS1_IS3_EEE4dataB6v15007Ev DATA
 0005:00001488 0000000cH .pdata$_ZNKSt3__16vectorINS0_IiNS_9allocatorIiEEEENS1_IS3_EEE4sizeB6v15007Ev DATA
 0005:00001494 0000000cH .pdata$_ZNSt3__112__to_addressB6v15007INS_6vectorIiNS_9allocatorIiEEEEEEPT_S6_ DATA
 0005:000014a0 0000000cH .pdata$_ZNSt3__16vectorINS0_IiNS_9allocatorIiEEEENS1_IS3_EEE22__base_destruct_at_endB6v15007EPS3_ DATA
 0005:000014ac 0000000cH .pdata$_ZNSt3__116allocator_traitsINS_9allocatorINS_6vectorIiNS1_IiEEEEEEE7destroyB6v15007IS4_vEEvRS5_PT_ DATA
 0005:000014b8 0000000cH .pdata$_ZNSt3__19allocatorINS_6vectorIiNS0_IiEEEEE7destroyB6v15007EPS3_ DATA
 0005:000014c4 0000000cH .pdata$_ZNSt3__19allocatorINS_6vectorIiNS0_IiEEEEE10deallocateB6v15007EPS3_y DATA
 0005:000014d0 0000000cH .pdata$_ZNSt3__117__compressed_pairIPNS_6vectorIiNS_9allocatorIiEEEENS2_IS4_EEE6secondB6v15007Ev DATA
 0005:000014dc 0000000cH .pdata$_ZNSt3__122__compressed_pair_elemINS_9allocatorINS_6vectorIiNS1_IiEEEEEELi1ELb1EE5__getB6v15007Ev DATA
 0005:000014e8 0000000cH .pdata$_ZNKSt3__16vectorINS0_IiNS_9allocatorIiEEEENS1_IS3_EEE9__end_capB6v15007Ev DATA
 0005:000014f4 0000000cH .pdata$_ZNKSt3__117__compressed_pairIPNS_6vectorIiNS_9allocatorIiEEEENS2_IS4_EEE5firstB6v15007Ev DATA
 0005:00001500 0000000cH .pdata$_ZNKSt3__122__compressed_pair_elemIPNS_6vectorIiNS_9allocatorIiEEEELi0ELb0EE5__getB6v15007Ev DATA
 0005:0000150c 0000000cH .pdata$_ZNSt3__16vectorIiNS_9allocatorIiEEEC2EyRKi DATA
 0005:00001518 0000000cH .pdata$_ZNSt3__117__compressed_pairIPiNS_9allocatorIiEEEC1B6v15007IDnNS_18__default_init_tagEEEOT_OT0_ DATA
 0005:00001524 0000000cH .pdata$_ZNSt3__118__make_transactionB6v15007INS_6vectorIiNS_9allocatorIiEEE16__destroy_vectorEEENS_13__transactionIT_EES7_ DATA
 0005:00001530 0000000cH .pdata$_ZNSt3__16vectorIiNS_9allocatorIiEEE16__destroy_vectorC1ERS3_ DATA
 0005:0000153c 0000000cH .pdata$_ZNSt3__119__debug_db_insert_cB6v15007INS_6vectorIiNS_9allocatorIiEEEEEEvPT_ DATA
 0005:00001548 0000000cH .pdata$_ZNSt3__16vectorIiNS_9allocatorIiEEE11__vallocateB6v15007Ey DATA
 0005:00001554 0000000cH .pdata$_ZNSt3__16vectorIiNS_9allocatorIiEEE18__construct_at_endEyRKi DATA
 0005:00001560 0000000cH .pdata$_ZNSt3__113__transactionINS_6vectorIiNS_9allocatorIiEEE16__destroy_vectorEE10__completeB6v15007Ev DATA
 0005:0000156c 0000000cH .pdata$_ZNSt3__113__transactionINS_6vectorIiNS_9allocatorIiEEE16__destroy_vectorEED1B6v15007Ev DATA
 0005:00001578 0000000cH .pdata$_ZNSt3__117__compressed_pairIPiNS_9allocatorIiEEEC2B6v15007IDnNS_18__default_init_tagEEEOT_OT0_ DATA
 0005:00001584 0000000cH .pdata$_ZNSt3__122__compressed_pair_elemIPiLi0ELb0EEC2B6v15007IDnvEEOT_ DATA
 0005:00001590 0000000cH .pdata$_ZNSt3__122__compressed_pair_elemINS_9allocatorIiEELi1ELb1EEC2B6v15007ENS_18__default_init_tagE DATA
 0005:0000159c 0000000cH .pdata$_ZNSt3__19allocatorIiEC2B6v15007Ev DATA
 0005:000015a8 0000000cH .pdata$_ZNSt3__116__non_trivial_ifILb1ENS_9allocatorIiEEEC2B6v15007Ev DATA
 0005:000015b4 0000000cH .pdata$_ZNSt3__113__transactionINS_6vectorIiNS_9allocatorIiEEE16__destroy_vectorEEC1B6v15007ES5_ DATA
 0005:000015c0 0000000cH .pdata$_ZNSt3__113__transactionINS_6vectorIiNS_9allocatorIiEEE16__destroy_vectorEEC2B6v15007ES5_ DATA
 0005:000015cc 0000000cH .pdata$_ZNSt3__16vectorIiNS_9allocatorIiEEE16__destroy_vectorC2ERS3_ DATA
 0005:000015d8 0000000cH .pdata$_ZNKSt3__16vectorIiNS_9allocatorIiEEE8max_sizeEv DATA
 0005:000015e4 0000000cH .pdata$_ZNKSt3__16vectorIiNS_9allocatorIiEEE20__throw_length_errorB6v15007Ev DATA
 0005:000015f0 0000000cH .pdata$_ZNSt3__119__allocate_at_leastB6v15007INS_9allocatorIiEEEENS_19__allocation_resultINS_16allocator_traitsIT_E7pointerEEERS5_y DATA
 0005:000015fc 0000000cH .pdata$_ZNSt3__16vectorIiNS_9allocatorIiEEE7__allocB6v15007Ev DATA
 0005:00001608 0000000cH .pdata$_ZNSt3__16vectorIiNS_9allocatorIiEEE9__end_capB6v15007Ev DATA
 0005:00001614 0000000cH .pdata$_ZNKSt3__16vectorIiNS_9allocatorIiEEE14__annotate_newB6v15007Ey DATA
 0005:00001620 0000000cH .pdata$_ZNSt3__13minB6v15007IyEERKT_S3_S3_ DATA
 0005:0000162c 0000000cH .pdata$_ZNSt3__116allocator_traitsINS_9allocatorIiEEE8max_sizeB6v15007IS2_vEEyRKS2_ DATA
 0005:00001638 0000000cH .pdata$_ZNKSt3__16vectorIiNS_9allocatorIiEEE7__allocB6v15007Ev DATA
 0005:00001644 0000000cH .pdata$_ZNSt3__114numeric_limitsIxE3maxB6v15007Ev DATA
 0005:00001650 0000000cH .pdata$_ZNSt3__13minB6v15007IyNS_6__lessIyyEEEERKT_S5_S5_T0_ DATA
 0005:0000165c 0000000cH .pdata$_ZNKSt3__16__lessIyyEclB6v15007ERKyS3_ DATA
 0005:00001668 0000000cH .pdata$_ZNKSt3__19allocatorIiE8max_sizeB6v15007Ev DATA
 0005:00001674 0000000cH .pdata$_ZNKSt3__117__compressed_pairIPiNS_9allocatorIiEEE6secondB6v15007Ev DATA
 0005:00001680 0000000cH .pdata$_ZNKSt3__122__compressed_pair_elemINS_9allocatorIiEELi1ELb1EE5__getB6v15007Ev DATA
 0005:0000168c 0000000cH .pdata$_ZNSt3__120__throw_length_errorB6v15007EPKc DATA
 0005:00001698 0000000cH .pdata$_ZNSt12length_errorC1B6v15007EPKc DATA
 0005:000016a4 0000000cH .pdata$_ZNSt12length_errorC2B6v15007EPKc DATA
 0005:000016b0 0000000cH .pdata$_ZNSt3__19allocatorIiE8allocateB6v15007Ey DATA
 0005:000016bc 0000000cH .pdata$_ZSt28__throw_bad_array_new_lengthB6v15007v DATA
 0005:000016c8 0000000cH .pdata$_ZNSt3__117__libcpp_allocateB6v15007Eyy DATA
 0005:000016d4 0000000cH .pdata$_ZNSt3__121__libcpp_operator_newB6v15007IJySt11align_val_tEEEPvDpT_ DATA
 0005:000016e0 0000000cH .pdata$_ZNSt3__121__libcpp_operator_newB6v15007IJyEEEPvDpT_ DATA
 0005:000016ec 0000000cH .pdata$_ZNSt3__117__compressed_pairIPiNS_9allocatorIiEEE6secondB6v15007Ev DATA
 0005:000016f8 0000000cH .pdata$_ZNSt3__122__compressed_pair_elemINS_9allocatorIiEELi1ELb1EE5__getB6v15007Ev DATA
 0005:00001704 0000000cH .pdata$_ZNSt3__117__compressed_pairIPiNS_9allocatorIiEEE5firstB6v15007Ev DATA
 0005:00001710 0000000cH .pdata$_ZNSt3__122__compressed_pair_elemIPiLi0ELb0EE5__getB6v15007Ev DATA
 0005:0000171c 0000000cH .pdata$_ZNKSt3__16vectorIiNS_9allocatorIiEEE31__annotate_contiguous_containerB6v15007EPKvS5_S5_S5_ DATA
 0005:00001728 0000000cH .pdata$_ZNKSt3__16vectorIiNS_9allocatorIiEEE4dataB6v15007Ev DATA
 0005:00001734 0000000cH .pdata$_ZNKSt3__16vectorIiNS_9allocatorIiEEE8capacityB6v15007Ev DATA
 0005:00001740 0000000cH .pdata$_ZNSt3__112__to_addressB6v15007IiEEPT_S2_ DATA
 0005:0000174c 0000000cH .pdata$_ZNKSt3__16vectorIiNS_9allocatorIiEEE9__end_capB6v15007Ev DATA
 0005:00001758 0000000cH .pdata$_ZNKSt3__117__compressed_pairIPiNS_9allocatorIiEEE5firstB6v15007Ev DATA
 0005:00001764 0000000cH .pdata$_ZNKSt3__122__compressed_pair_elemIPiLi0ELb0EE5__getB6v15007Ev DATA
 0005:00001770 0000000cH .pdata$_ZNSt3__16vectorIiNS_9allocatorIiEEE21_ConstructTransactionC1ERS3_y DATA
 0005:0000177c 0000000cH .pdata$_ZNSt3__116allocator_traitsINS_9allocatorIiEEE9constructB6v15007IiJRKiEvEEvRS2_PT_DpOT0_ DATA
 0005:00001788 0000000cH .pdata$_ZNSt3__16vectorIiNS_9allocatorIiEEE21_ConstructTransactionD1Ev DATA
 0005:00001794 0000000cH .pdata$_ZNSt3__16vectorIiNS_9allocatorIiEEE21_ConstructTransactionC2ERS3_y DATA
 0005:000017a0 0000000cH .pdata$_ZNSt3__19allocatorIiE9constructB6v15007IiJRKiEEEvPT_DpOT0_ DATA
 0005:000017ac 0000000cH .pdata$_ZNSt3__16vectorIiNS_9allocatorIiEEE21_ConstructTransactionD2Ev DATA
 0005:000017b8 0000000cH .pdata$_ZNSt3__113__transactionINS_6vectorIiNS_9allocatorIiEEE16__destroy_vectorEED2B6v15007Ev DATA
 0005:000017c4 0000000cH .pdata$_ZNSt3__16vectorIiNS_9allocatorIiEEE16__destroy_vectorclB6v15007Ev DATA
 0005:000017d0 0000000cH .pdata$_ZNKSt3__16vectorIiNS_9allocatorIiEEE17__annotate_deleteB6v15007Ev DATA
 0005:000017dc 0000000cH .pdata$_ZNSt3__118__debug_db_erase_cB6v15007INS_6vectorIiNS_9allocatorIiEEEEEEvPT_ DATA
 0005:000017e8 0000000cH .pdata$_ZNSt3__16vectorIiNS_9allocatorIiEEE7__clearB6v15007Ev DATA
 0005:000017f4 0000000cH .pdata$_ZNSt3__116allocator_traitsINS_9allocatorIiEEE10deallocateB6v15007ERS2_Piy DATA
 0005:00001800 0000000cH .pdata$_ZNKSt3__16vectorIiNS_9allocatorIiEEE4sizeB6v15007Ev DATA
 0005:0000180c 0000000cH .pdata$_ZNSt3__16vectorIiNS_9allocatorIiEEE22__base_destruct_at_endB6v15007EPi DATA
 0005:00001818 0000000cH .pdata$_ZNSt3__116allocator_traitsINS_9allocatorIiEEE7destroyB6v15007IivEEvRS2_PT_ DATA
 0005:00001824 0000000cH .pdata$_ZNSt3__19allocatorIiE7destroyB6v15007EPi DATA
 0005:00001830 0000000cH .pdata$_ZNSt3__19allocatorIiE10deallocateB6v15007EPiy DATA
 0005:0000183c 0000000cH .pdata$_ZNSt3__16vectorIiNS_9allocatorIiEEED2B6v15007Ev DATA
 0005:00001848 0000000cH .pdata$_ZNSt3__16vectorINS0_IiNS_9allocatorIiEEEENS1_IS3_EEEC2EyRKS3_ DATA
 0005:00001854 0000000cH .pdata$_ZNSt3__118__make_transactionB6v15007INS_6vectorINS1_IiNS_9allocatorIiEEEENS2_IS4_EEE16__destroy_vectorEEENS_13__transactionIT_EES9_ DATA
 0005:00001860 0000000cH .pdata$_ZNSt3__16vectorINS0_IiNS_9allocatorIiEEEENS1_IS3_EEE11__vallocateB6v15007Ey DATA
 0005:0000186c 0000000cH .pdata$_ZNSt3__16vectorINS0_IiNS_9allocatorIiEEEENS1_IS3_EEE18__construct_at_endEyRKS3_ DATA
 0005:00001878 0000000cH .pdata$_ZNSt3__113__transactionINS_6vectorINS1_IiNS_9allocatorIiEEEENS2_IS4_EEE16__destroy_vectorEE10__completeB6v15007Ev DATA
 0005:00001884 0000000cH .pdata$_ZNSt3__113__transactionINS_6vectorINS1_IiNS_9allocatorIiEEEENS2_IS4_EEE16__destroy_vectorEED1B6v15007Ev DATA
 0005:00001890 0000000cH .pdata$_ZNSt3__113__transactionINS_6vectorINS1_IiNS_9allocatorIiEEEENS2_IS4_EEE16__destroy_vectorEEC1B6v15007ES7_ DATA
 0005:0000189c 0000000cH .pdata$_ZNSt3__113__transactionINS_6vectorINS1_IiNS_9allocatorIiEEEENS2_IS4_EEE16__destroy_vectorEEC2B6v15007ES7_ DATA
 0005:000018a8 0000000cH .pdata$_ZNKSt3__16vectorINS0_IiNS_9allocatorIiEEEENS1_IS3_EEE8max_sizeEv DATA
 0005:000018b4 0000000cH .pdata$_ZNKSt3__16vectorINS0_IiNS_9allocatorIiEEEENS1_IS3_EEE20__throw_length_errorB6v15007Ev DATA
 0005:000018c0 0000000cH .pdata$_ZNSt3__119__allocate_at_leastB6v15007INS_9allocatorINS_6vectorIiNS1_IiEEEEEEEENS_19__allocation_resultINS_16allocator_traitsIT_E7pointerEEERS8_y DATA
 0005:000018cc 0000000cH .pdata$_ZNSt3__16vectorINS0_IiNS_9allocatorIiEEEENS1_IS3_EEE9__end_capB6v15007Ev DATA
 0005:000018d8 0000000cH .pdata$_ZNKSt3__16vectorINS0_IiNS_9allocatorIiEEEENS1_IS3_EEE14__annotate_newB6v15007Ey DATA
 0005:000018e4 0000000cH .pdata$_ZNSt3__116allocator_traitsINS_9allocatorINS_6vectorIiNS1_IiEEEEEEE8max_sizeB6v15007IS5_vEEyRKS5_ DATA
 0005:000018f0 0000000cH .pdata$_ZNKSt3__16vectorINS0_IiNS_9allocatorIiEEEENS1_IS3_EEE7__allocB6v15007Ev DATA
 0005:000018fc 0000000cH .pdata$_ZNKSt3__19allocatorINS_6vectorIiNS0_IiEEEEE8max_sizeB6v15007Ev DATA
 0005:00001908 0000000cH .pdata$_ZNKSt3__117__compressed_pairIPNS_6vectorIiNS_9allocatorIiEEEENS2_IS4_EEE6secondB6v15007Ev DATA
 0005:00001914 0000000cH .pdata$_ZNKSt3__122__compressed_pair_elemINS_9allocatorINS_6vectorIiNS1_IiEEEEEELi1ELb1EE5__getB6v15007Ev DATA
 0005:00001920 0000000cH .pdata$_ZNSt3__19allocatorINS_6vectorIiNS0_IiEEEEE8allocateB6v15007Ey DATA
 0005:0000192c 0000000cH .pdata$_ZNSt3__117__compressed_pairIPNS_6vectorIiNS_9allocatorIiEEEENS2_IS4_EEE5firstB6v15007Ev DATA
 0005:00001938 0000000cH .pdata$_ZNSt3__122__compressed_pair_elemIPNS_6vectorIiNS_9allocatorIiEEEELi0ELb0EE5__getB6v15007Ev DATA
 0005:00001944 0000000cH .pdata$_ZNSt3__16vectorINS0_IiNS_9allocatorIiEEEENS1_IS3_EEE21_ConstructTransactionC1ERS5_y DATA
 0005:00001950 0000000cH .pdata$_ZNSt3__116allocator_traitsINS_9allocatorINS_6vectorIiNS1_IiEEEEEEE9constructB6v15007IS4_JRKS4_EvEEvRS5_PT_DpOT0_ DATA
 0005:0000195c 0000000cH .pdata$_ZNSt3__16vectorINS0_IiNS_9allocatorIiEEEENS1_IS3_EEE21_ConstructTransactionD1Ev DATA
 0005:00001968 0000000cH .pdata$_ZNSt3__16vectorINS0_IiNS_9allocatorIiEEEENS1_IS3_EEE21_ConstructTransactionC2ERS5_y DATA
 0005:00001974 0000000cH .pdata$_ZNSt3__19allocatorINS_6vectorIiNS0_IiEEEEE9constructB6v15007IS3_JRKS3_EEEvPT_DpOT0_ DATA
 0005:00001980 0000000cH .pdata$_ZNSt3__16vectorIiNS_9allocatorIiEEEC1ERKS3_ DATA
 0005:0000198c 0000000cH .pdata$_ZNSt3__16vectorIiNS_9allocatorIiEEEC2ERKS3_ DATA
 0005:00001998 0000000cH .pdata$_ZNSt3__116allocator_traitsINS_9allocatorIiEEE37select_on_container_copy_constructionB6v15007IS2_vvEES2_RKS2_ DATA
 0005:000019a4 0000000cH .pdata$_ZNSt3__117__compressed_pairIPiNS_9allocatorIiEEEC1B6v15007IDnS3_EEOT_OT0_ DATA
 0005:000019b0 0000000cH .pdata$_ZNSt3__16vectorIiNS_9allocatorIiEEE18__construct_at_endIPiEENS_9enable_ifIXsr27__is_cpp17_forward_iteratorIT_EE5valueEvE4typeES7_S7_y DATA
 0005:000019bc 0000000cH .pdata$_ZNSt3__117__compressed_pairIPiNS_9allocatorIiEEEC2B6v15007IDnS3_EEOT_OT0_ DATA
 0005:000019c8 0000000cH .pdata$_ZNSt3__122__compressed_pair_elemINS_9allocatorIiEELi1ELb1EEC2B6v15007IS2_vEEOT_ DATA
 0005:000019d4 0000000cH .pdata$_ZNSt3__130__uninitialized_allocator_copyB6v15007INS_9allocatorIiEEPiS3_S3_EET2_RT_T0_T1_S4_ DATA
 0005:000019e0 0000000cH .pdata$_ZNSt3__116allocator_traitsINS_9allocatorIiEEE9constructB6v15007IiJRiEvEEvRS2_PT_DpOT0_ DATA
 0005:000019ec 0000000cH .pdata$_ZNSt3__129_AllocatorDestroyRangeReverseINS_9allocatorIiEEPiEC1B6v15007ERS2_RS3_S6_ DATA
 0005:000019f8 0000000cH .pdata$_ZNKSt3__129_AllocatorDestroyRangeReverseINS_9allocatorIiEEPiEclB6v15007Ev DATA
 0005:00001a04 0000000cH .pdata$_ZNSt3__19allocatorIiE9constructB6v15007IiJRiEEEvPT_DpOT0_ DATA
 0005:00001a10 0000000cH .pdata$_ZNSt3__129_AllocatorDestroyRangeReverseINS_9allocatorIiEEPiEC2B6v15007ERS2_RS3_S6_ DATA
 0005:00001a1c 0000000cH .pdata$_ZNSt3__119__allocator_destroyB6v15007INS_9allocatorIiEENS_16reverse_iteratorIPiEES5_EEvRT_T0_T1_ DATA
 0005:00001a28 0000000cH .pdata$_ZNSt3__116reverse_iteratorIPiEC1B6v15007ES1_ DATA
 0005:00001a34 0000000cH .pdata$_ZNSt3__1neB6v15007IPiS1_EEbRKNS_16reverse_iteratorIT_EERKNS2_IT0_EE DATA
 0005:00001a40 0000000cH .pdata$_ZNSt3__112__to_addressB6v15007INS_16reverse_iteratorIPiEEvEENS_5decayIDTclsr19__to_address_helperIT_EE6__callcl7declvalIRKS5_EEEEE4typeES7_ DATA
 0005:00001a4c 0000000cH .pdata$_ZNSt3__116reverse_iteratorIPiEppB6v15007Ev DATA
 0005:00001a58 0000000cH .pdata$_ZNKSt3__116reverse_iteratorIPiE4baseB6v15007Ev DATA
 0005:00001a64 0000000cH .pdata$_ZNSt3__119__to_address_helperINS_16reverse_iteratorIPiEEvE6__callB6v15007ERKS3_ DATA
 0005:00001a70 0000000cH .pdata$_ZNKSt3__116reverse_iteratorIPiEptB6v15007Ev DATA
 0005:00001a7c 0000000cH .pdata$_ZNKSt3__116reverse_iteratorIPiEdeB6v15007Ev DATA
 0005:00001a88 0000000cH .pdata$_ZNSt3__116reverse_iteratorIPiEC2B6v15007ES1_ DATA
 0005:00001a94 0000000cH .pdata$_ZNSt3__16vectorINS0_IiNS_9allocatorIiEEEENS1_IS3_EEE21_ConstructTransactionD2Ev DATA
 0005:00001aa0 0000000cH .pdata$_ZNSt3__113__transactionINS_6vectorINS1_IiNS_9allocatorIiEEEENS2_IS4_EEE16__destroy_vectorEED2B6v15007Ev DATA
 0005:00001aac 0000000cH .pdata$_ZNSt3__16vectorINS0_IiNS_9allocatorIiEEEENS1_IS3_EEE13__move_assignERS5_NS_17integral_constantIbLb1EEE DATA
 0005:00001ab8 0000000cH .pdata$_ZNSt3__16vectorINS0_IiNS_9allocatorIiEEEENS1_IS3_EEE13__vdeallocateEv DATA
 0005:00001ac4 0000000cH .pdata$_ZNSt3__16vectorINS0_IiNS_9allocatorIiEEEENS1_IS3_EEE19__move_assign_allocB6v15007ERS5_ DATA
 0005:00001ad0 0000000cH .pdata$_ZNSt3__115__debug_db_swapB6v15007INS_6vectorINS1_IiNS_9allocatorIiEEEENS2_IS4_EEEEEEvPT_S8_ DATA
 0005:00001adc 0000000cH .pdata$_ZNSt3__16vectorINS0_IiNS_9allocatorIiEEEENS1_IS3_EEE5clearB6v15007Ev DATA
 0005:00001ae8 0000000cH .pdata$_ZNKSt3__16vectorINS0_IiNS_9allocatorIiEEEENS1_IS3_EEE17__annotate_shrinkB6v15007Ey DATA
 0005:00001af4 0000000cH .pdata$_ZNSt3__125__debug_db_invalidate_allB6v15007INS_6vectorINS1_IiNS_9allocatorIiEEEENS2_IS4_EEEEEEvPT_ DATA
 0005:00001b00 0000000cH .pdata$_ZNSt3__16vectorINS0_IiNS_9allocatorIiEEEENS1_IS3_EEE19__move_assign_allocB6v15007ERS5_NS_17integral_constantIbLb1EEE DATA
 0005:00001b0c 0000000cH .pdata$_ZNSt3__123mersenne_twister_engineIjLy32ELy624ELy397ELy31ELj2567483615ELy11ELj4294967295ELy7ELj2636928640ELy15ELj4022730752ELy18ELj1812433253EEC2B6v15007Ej DATA
 0005:00001b18 0000000cH .pdata$_ZNSt3__123mersenne_twister_engineIjLy32ELy624ELy397ELy31ELj2567483615ELy11ELj4294967295ELy7ELj2636928640ELy15ELj4022730752ELy18ELj1812433253EE4seedEj DATA
 0005:00001b24 0000000cH .pdata$_ZNSt3__123mersenne_twister_engineIjLy32ELy624ELy397ELy31ELj2567483615ELy11ELj4294967295ELy7ELj2636928640ELy15ELj4022730752ELy18ELj1812433253EE8__rshiftB6v15007ILy30EEENS_9enable_ifIXltT_L_ZNS1_3_DtEEEjE4typeEj DATA
 0005:00001b30 0000000cH .pdata$_ZNSt3__124uniform_int_distributionIiEC2Eii DATA
 0005:00001b3c 0000000cH .pdata$_ZNSt3__124uniform_int_distributionIiE10param_typeC1Eii DATA
 0005:00001b48 0000000cH .pdata$_ZNSt3__124uniform_int_distributionIiE10param_typeC2Eii DATA
 0005:00001b54 0000000cH .pdata$_ZNSt3__112__hash_tableIiNS_4hashIiEENS_8equal_toIiEENS_9allocatorIiEEE4findIiEENS_15__hash_iteratorIPNS_11__hash_nodeIiPvEEEERKT_ DATA
 0005:00001b60 0000000cH .pdata$_ZNSt3__121__hash_const_iteratorIPNS_11__hash_nodeIiPvEEEC1B6v15007ERKNS_15__hash_iteratorIS4_EE DATA
 0005:00001b6c 0000000cH .pdata$_ZNSt3__112__hash_tableIiNS_4hashIiEENS_8equal_toIiEENS_9allocatorIiEEE13hash_functionB6v15007Ev DATA
 0005:00001b78 0000000cH .pdata$_ZNKSt3__14hashIiEclB6v15007Ei DATA
 0005:00001b84 0000000cH .pdata$_ZNKSt3__112__hash_tableIiNS_4hashIiEENS_8equal_toIiEENS_9allocatorIiEEE12bucket_countB6v15007Ev DATA
 0005:00001b90 0000000cH .pdata$_ZNSt3__116__constrain_hashB6v15007Eyy DATA
 0005:00001b9c 0000000cH .pdata$_ZNKSt3__110unique_ptrIA_PNS_16__hash_node_baseIPNS_11__hash_nodeIiPvEEEENS_25__bucket_list_deallocatorINS_9allocatorIS7_EEEEEixB6v15007Ey DATA
 0005:00001ba8 0000000cH .pdata$_ZNKSt3__116__hash_node_baseIPNS_11__hash_nodeIiPvEEE6__hashB6v15007Ev DATA
 0005:00001bb4 0000000cH .pdata$_ZNSt3__112__hash_tableIiNS_4hashIiEENS_8equal_toIiEENS_9allocatorIiEEE6key_eqB6v15007Ev DATA
 0005:00001bc0 0000000cH .pdata$_ZNKSt3__18equal_toIiEclB6v15007ERKiS3_ DATA
 0005:00001bcc 0000000cH .pdata$_ZNSt3__116__hash_node_baseIPNS_11__hash_nodeIiPvEEE8__upcastB6v15007Ev DATA
 0005:00001bd8 0000000cH .pdata$_ZNSt3__115__hash_iteratorIPNS_11__hash_nodeIiPvEEEC1B6v15007EPNS_16__hash_node_baseIS4_EEPKv DATA
 0005:00001be4 0000000cH .pdata$_ZNSt3__112__hash_tableIiNS_4hashIiEENS_8equal_toIiEENS_9allocatorIiEEE3endEv DATA
 0005:00001bf0 0000000cH .pdata$_ZNSt3__117__compressed_pairIyNS_4hashIiEEE6secondB6v15007Ev DATA
 0005:00001bfc 0000000cH .pdata$_ZNSt3__122__compressed_pair_elemINS_4hashIiEELi1ELb1EE5__getB6v15007Ev DATA
 0005:00001c08 0000000cH .pdata$_ZNKSt3__110unique_ptrIA_PNS_16__hash_node_baseIPNS_11__hash_nodeIiPvEEEENS_25__bucket_list_deallocatorINS_9allocatorIS7_EEEEE11get_deleterB6v15007Ev DATA
 0005:00001c14 0000000cH .pdata$_ZNKSt3__125__bucket_list_deallocatorINS_9allocatorIPNS_16__hash_node_baseIPNS_11__hash_nodeIiPvEEEEEEE4sizeB6v15007Ev DATA
 0005:00001c20 0000000cH .pdata$_ZNKSt3__117__compressed_pairIPPNS_16__hash_node_baseIPNS_11__hash_nodeIiPvEEEENS_25__bucket_list_deallocatorINS_9allocatorIS7_EEEEE6secondB6v15007Ev DATA
 0005:00001c2c 0000000cH .pdata$_ZNKSt3__122__compressed_pair_elemINS_25__bucket_list_deallocatorINS_9allocatorIPNS_16__hash_node_baseIPNS_11__hash_nodeIiPvEEEEEEEELi1ELb0EE5__getB6v15007Ev DATA
 0005:00001c38 0000000cH .pdata$_ZNKSt3__117__compressed_pairIyNS_9allocatorIPNS_16__hash_node_baseIPNS_11__hash_nodeIiPvEEEEEEE5firstB6v15007Ev DATA
 0005:00001c44 0000000cH .pdata$_ZNKSt3__122__compressed_pair_elemIyLi0ELb0EE5__getB6v15007Ev DATA
 0005:00001c50 0000000cH .pdata$_ZNKSt3__117__compressed_pairIPPNS_16__hash_node_baseIPNS_11__hash_nodeIiPvEEEENS_25__bucket_list_deallocatorINS_9allocatorIS7_EEEEE5firstB6v15007Ev DATA
 0005:00001c5c 0000000cH .pdata$_ZNKSt3__122__compressed_pair_elemIPPNS_16__hash_node_baseIPNS_11__hash_nodeIiPvEEEELi0ELb0EE5__getB6v15007Ev DATA
 0005:00001c68 0000000cH .pdata$_ZNSt3__117__compressed_pairIfNS_8equal_toIiEEE6secondB6v15007Ev DATA
 0005:00001c74 0000000cH .pdata$_ZNSt3__122__compressed_pair_elemINS_8equal_toIiEELi1ELb1EE5__getB6v15007Ev DATA
 0005:00001c80 0000000cH .pdata$_ZNSt3__114pointer_traitsIPNS_16__hash_node_baseIPNS_11__hash_nodeIiPvEEEEE10pointer_toB6v15007ERS6_ DATA
 0005:00001c8c 0000000cH .pdata$_ZNSt3__115__hash_iteratorIPNS_11__hash_nodeIiPvEEEC2B6v15007EPNS_16__hash_node_baseIS4_EEPKv DATA
 0005:00001c98 0000000cH .pdata$_ZNSt3__121__hash_const_iteratorIPNS_11__hash_nodeIiPvEEEC2B6v15007ERKNS_15__hash_iteratorIS4_EE DATA
 0005:00001ca4 0000000cH .pdata$_ZNKSt3__110__function12__value_funcIFbiiEEclB6v15007EOiS4_ DATA
 0005:00001cb0 0000000cH .pdata$_ZNSt3__125__throw_bad_function_callB6v15007Ev DATA
 0005:00001cbc 0000000cH .pdata$_ZNSt3__117bad_function_callC1Ev DATA
 0005:00001cc8 0000000cH .pdata$_ZNSt3__117bad_function_callD1Ev DATA
 0005:00001cd4 0000000cH .pdata$_ZNSt3__117bad_function_callC2Ev DATA
 0005:00001ce0 0000000cH .pdata$_ZNSt9exceptionC2B6v15007Ev DATA
 0005:00001cec 0000000cH .pdata$_ZNSt3__117bad_function_callD0Ev DATA
 0005:00001cf8 0000000cH .pdata$_ZNSt3__117bad_function_callD2Ev DATA
 0005:00001d04 0000000cH .pdata$_ZNSt3__112__hash_tableIiNS_4hashIiEENS_8equal_toIiEENS_9allocatorIiEEE15__insert_uniqueB6v15007ERKi DATA
 0005:00001d10 0000000cH .pdata$_ZNSt3__14pairINS_21__hash_const_iteratorIPNS_11__hash_nodeIiPvEEEEbEC1B6v15007INS_15__hash_iteratorIS5_EEbLS3_0EEEONS0_IT_T0_EE DATA
 0005:00001d1c 0000000cH .pdata$_ZNSt3__112__hash_tableIiNS_4hashIiEENS_8equal_toIiEENS_9allocatorIiEEE25__emplace_unique_key_argsIiJRKiEEENS_4pairINS_15__hash_iteratorIPNS_11__hash_nodeIiPvEEEEbEERKT_DpOT0_ DATA
 0005:00001d28 0000000cH .pdata$_ZNSt3__122__hash_key_value_typesIiE9__get_keyB6v15007ERKi DATA
 0005:00001d34 0000000cH .pdata$_ZNSt3__112__hash_tableIiNS_4hashIiEENS_8equal_toIiEENS_9allocatorIiEEE21__construct_node_hashIRKiJEEENS_10unique_ptrINS_11__hash_nodeIiPvEENS_22__hash_node_destructorINS5_ISE_EEEEEEyOT_DpOT0_ DATA
 0005:00001d40 0000000cH .pdata$_ZNSt3__112__hash_tableIiNS_4hashIiEENS_8equal_toIiEENS_9allocatorIiEEE4sizeB6v15007Ev DATA
 0005:00001d4c 0000000cH .pdata$_ZNSt3__112__hash_tableIiNS_4hashIiEENS_8equal_toIiEENS_9allocatorIiEEE15max_load_factorB6v15007Ev DATA
 0005:00001d58 0000000cH .pdata$_ZNSt3__112__hash_tableIiNS_4hashIiEENS_8equal_toIiEENS_9allocatorIiEEE15__rehash_uniqueB6v15007Ey DATA
 0005:00001d64 0000000cH .pdata$_ZNSt3__13maxB6v15007IyEERKT_S3_S3_ DATA
 0005:00001d70 0000000cH .pdata$_ZNSt3__116__is_hash_power2B6v15007Ey DATA
 0005:00001d7c 0000000cH .pdata$_Z4ceilB6v15007f DATA
 0005:00001d88 0000000cH .pdata$_ZNSt3__117__compressed_pairINS_16__hash_node_baseIPNS_11__hash_nodeIiPvEEEENS_9allocatorIS4_EEE5firstB6v15007Ev DATA
 0005:00001d94 0000000cH .pdata$_ZNSt3__116__hash_node_baseIPNS_11__hash_nodeIiPvEEE5__ptrB6v15007Ev DATA
 0005:00001da0 0000000cH .pdata$_ZNKSt3__110unique_ptrINS_11__hash_nodeIiPvEENS_22__hash_node_destructorINS_9allocatorIS3_EEEEEptB6v15007Ev DATA
 0005:00001dac 0000000cH .pdata$_ZNKSt3__110unique_ptrINS_11__hash_nodeIiPvEENS_22__hash_node_destructorINS_9allocatorIS3_EEEEE3getB6v15007Ev DATA
 0005:00001db8 0000000cH .pdata$_ZNSt3__110unique_ptrINS_11__hash_nodeIiPvEENS_22__hash_node_destructorINS_9allocatorIS3_EEEEE7releaseB6v15007Ev DATA
 0005:00001dc4 0000000cH .pdata$_ZNSt3__110unique_ptrINS_11__hash_nodeIiPvEENS_22__hash_node_destructorINS_9allocatorIS3_EEEEED1B6v15007Ev DATA
 0005:00001dd0 0000000cH .pdata$_ZNSt3__14pairINS_15__hash_iteratorIPNS_11__hash_nodeIiPvEEEEbEC1B6v15007IS6_RbLS3_0EEEOT_OT0_ DATA
 0005:00001ddc 0000000cH .pdata$_ZNSt3__112__hash_tableIiNS_4hashIiEENS_8equal_toIiEENS_9allocatorIiEEE12__node_allocB6v15007Ev DATA
 0005:00001de8 0000000cH .pdata$_ZNSt3__116allocator_traitsINS_9allocatorINS_11__hash_nodeIiPvEEEEE8allocateB6v15007ERS5_y DATA
 0005:00001df4 0000000cH .pdata$_ZNSt3__122__hash_node_destructorINS_9allocatorINS_11__hash_nodeIiPvEEEEEC1B6v15007ERS5_b DATA
 0005:00001e00 0000000cH .pdata$_ZNSt3__110unique_ptrINS_11__hash_nodeIiPvEENS_22__hash_node_destructorINS_9allocatorIS3_EEEEEC1B6v15007ILb1EvEEPS3_NS_16__dependent_typeINS_27__unique_ptr_deleter_sfinaeIS7_EEXT_EE20__good_rval_ref_typeE DATA
 0005:00001e0c 0000000cH .pdata$_ZNSt3__116allocator_traitsINS_9allocatorINS_11__hash_nodeIiPvEEEEE9constructB6v15007IiJRKiEvEEvRS5_PT_DpOT0_ DATA
 0005:00001e18 0000000cH .pdata$_ZNSt3__122__hash_key_value_typesIiE9__get_ptrB6v15007ERi DATA
 0005:00001e24 0000000cH .pdata$_ZNSt3__110unique_ptrINS_11__hash_nodeIiPvEENS_22__hash_node_destructorINS_9allocatorIS3_EEEEE11get_deleterB6v15007Ev DATA
 0005:00001e30 0000000cH .pdata$_ZNSt3__117__compressed_pairINS_16__hash_node_baseIPNS_11__hash_nodeIiPvEEEENS_9allocatorIS4_EEE6secondB6v15007Ev DATA
 0005:00001e3c 0000000cH .pdata$_ZNSt3__122__compressed_pair_elemINS_9allocatorINS_11__hash_nodeIiPvEEEELi1ELb1EE5__getB6v15007Ev DATA
 0005:00001e48 0000000cH .pdata$_ZNSt3__19allocatorINS_11__hash_nodeIiPvEEE8allocateB6v15007Ey DATA
 0005:00001e54 0000000cH .pdata$_ZNSt3__116allocator_traitsINS_9allocatorINS_11__hash_nodeIiPvEEEEE8max_sizeB6v15007IS5_vEEyRKS5_ DATA
 0005:00001e60 0000000cH .pdata$_ZNKSt3__19allocatorINS_11__hash_nodeIiPvEEE8max_sizeB6v15007Ev DATA
 0005:00001e6c 0000000cH .pdata$_ZNSt3__122__hash_node_destructorINS_9allocatorINS_11__hash_nodeIiPvEEEEEC2B6v15007ERS5_b DATA
 0005:00001e78 0000000cH .pdata$_ZNSt3__110unique_ptrINS_11__hash_nodeIiPvEENS_22__hash_node_destructorINS_9allocatorIS3_EEEEEC2B6v15007ILb1EvEEPS3_NS_16__dependent_typeINS_27__unique_ptr_deleter_sfinaeIS7_EEXT_EE20__good_rval_ref_typeE DATA
 0005:00001e84 0000000cH .pdata$_ZNSt3__117__compressed_pairIPNS_11__hash_nodeIiPvEENS_22__hash_node_destructorINS_9allocatorIS3_EEEEEC1B6v15007IRS4_S8_EEOT_OT0_ DATA
 0005:00001e90 0000000cH .pdata$_ZNSt3__117__compressed_pairIPNS_11__hash_nodeIiPvEENS_22__hash_node_destructorINS_9allocatorIS3_EEEEEC2B6v15007IRS4_S8_EEOT_OT0_ DATA
 0005:00001e9c 0000000cH .pdata$_ZNSt3__122__compressed_pair_elemIPNS_11__hash_nodeIiPvEELi0ELb0EEC2B6v15007IRS4_vEEOT_ DATA
 0005:00001ea8 0000000cH .pdata$_ZNSt3__122__compressed_pair_elemINS_22__hash_node_destructorINS_9allocatorINS_11__hash_nodeIiPvEEEEEELi1ELb0EEC2B6v15007IS7_vEEOT_ DATA
 0005:00001eb4 0000000cH .pdata$_ZNSt3__19allocatorINS_11__hash_nodeIiPvEEE9constructB6v15007IiJRKiEEEvPT_DpOT0_ DATA
 0005:00001ec0 0000000cH .pdata$_ZNSt3__117__compressed_pairIPNS_11__hash_nodeIiPvEENS_22__hash_node_destructorINS_9allocatorIS3_EEEEE6secondB6v15007Ev DATA
 0005:00001ecc 0000000cH .pdata$_ZNSt3__122__compressed_pair_elemINS_22__hash_node_destructorINS_9allocatorINS_11__hash_nodeIiPvEEEEEELi1ELb0EE5__getB6v15007Ev DATA
 0005:00001ed8 0000000cH .pdata$_ZNSt3__117__compressed_pairIyNS_4hashIiEEE5firstB6v15007Ev DATA
 0005:00001ee4 0000000cH .pdata$_ZNSt3__117__compressed_pairIfNS_8equal_toIiEEE5firstB6v15007Ev DATA
 0005:00001ef0 0000000cH .pdata$_ZNSt3__122__compressed_pair_elemIfLi0ELb0EE5__getB6v15007Ev DATA
 0005:00001efc 0000000cH .pdata$_ZNSt3__112__hash_tableIiNS_4hashIiEENS_8equal_toIiEENS_9allocatorIiEEE8__rehashILb1EEEvy DATA
 0005:00001f08 0000000cH .pdata$_ZNSt3__112__hash_tableIiNS_4hashIiEENS_8equal_toIiEENS_9allocatorIiEEE11__do_rehashILb1EEEvy DATA
 0005:00001f14 0000000cH .pdata$_ZNSt3__116__next_hash_pow2B6v15007Ey DATA
 0005:00001f20 0000000cH .pdata$_ZNSt3__125__debug_db_invalidate_allB6v15007INS_12__hash_tableIiNS_4hashIiEENS_8equal_toIiEENS_9allocatorIiEEEEEEvPT_ DATA
 0005:00001f2c 0000000cH .pdata$_ZNSt3__110unique_ptrIA_PNS_16__hash_node_baseIPNS_11__hash_nodeIiPvEEEENS_25__bucket_list_deallocatorINS_9allocatorIS7_EEEEE11get_deleterB6v15007Ev DATA
 0005:00001f38 0000000cH .pdata$_ZNSt3__125__bucket_list_deallocatorINS_9allocatorIPNS_16__hash_node_baseIPNS_11__hash_nodeIiPvEEEEEEE7__allocB6v15007Ev DATA
 0005:00001f44 0000000cH .pdata$_ZNSt3__110unique_ptrIA_PNS_16__hash_node_baseIPNS_11__hash_nodeIiPvEEEENS_25__bucket_list_deallocatorINS_9allocatorIS7_EEEEE5resetB6v15007IPS7_EENS_9enable_ifIXsr28_CheckArrayPointerConversionIT_EE5valueEvE4typeESH_ DATA
 0005:00001f50 0000000cH .pdata$_ZNSt3__116allocator_traitsINS_9allocatorIPNS_16__hash_node_baseIPNS_11__hash_nodeIiPvEEEEEEE8allocateB6v15007ERS9_y DATA
 0005:00001f5c 0000000cH .pdata$_ZNSt3__125__bucket_list_deallocatorINS_9allocatorIPNS_16__hash_node_baseIPNS_11__hash_nodeIiPvEEEEEEE4sizeB6v15007Ev DATA
 0005:00001f68 0000000cH .pdata$_ZNSt3__117__compressed_pairIPPNS_16__hash_node_baseIPNS_11__hash_nodeIiPvEEEENS_25__bucket_list_deallocatorINS_9allocatorIS7_EEEEE6secondB6v15007Ev DATA
 0005:00001f74 0000000cH .pdata$_ZNSt3__122__compressed_pair_elemINS_25__bucket_list_deallocatorINS_9allocatorIPNS_16__hash_node_baseIPNS_11__hash_nodeIiPvEEEEEEEELi1ELb0EE5__getB6v15007Ev DATA
 0005:00001f80 0000000cH .pdata$_ZNSt3__117__compressed_pairIyNS_9allocatorIPNS_16__hash_node_baseIPNS_11__hash_nodeIiPvEEEEEEE6secondB6v15007Ev DATA
 0005:00001f8c 0000000cH .pdata$_ZNSt3__122__compressed_pair_elemINS_9allocatorIPNS_16__hash_node_baseIPNS_11__hash_nodeIiPvEEEEEELi1ELb1EE5__getB6v15007Ev DATA
 0005:00001f98 0000000cH .pdata$_ZNSt3__117__compressed_pairIPPNS_16__hash_node_baseIPNS_11__hash_nodeIiPvEEEENS_25__bucket_list_deallocatorINS_9allocatorIS7_EEEEE5firstB6v15007Ev DATA
 0005:00001fa4 0000000cH .pdata$_ZNSt3__125__bucket_list_deallocatorINS_9allocatorIPNS_16__hash_node_baseIPNS_11__hash_nodeIiPvEEEEEEEclB6v15007EPS8_ DATA
 0005:00001fb0 0000000cH .pdata$_ZNSt3__122__compressed_pair_elemIPPNS_16__hash_node_baseIPNS_11__hash_nodeIiPvEEEELi0ELb0EE5__getB6v15007Ev DATA
 0005:00001fbc 0000000cH .pdata$_ZNSt3__116allocator_traitsINS_9allocatorIPNS_16__hash_node_baseIPNS_11__hash_nodeIiPvEEEEEEE10deallocateB6v15007ERS9_PS8_y DATA
 0005:00001fc8 0000000cH .pdata$_ZNSt3__19allocatorIPNS_16__hash_node_baseIPNS_11__hash_nodeIiPvEEEEE10deallocateB6v15007EPS7_y DATA
 0005:00001fd4 0000000cH .pdata$_ZNSt3__19allocatorIPNS_16__hash_node_baseIPNS_11__hash_nodeIiPvEEEEE8allocateB6v15007Ey DATA
 0005:00001fe0 0000000cH .pdata$_ZNSt3__116allocator_traitsINS_9allocatorIPNS_16__hash_node_baseIPNS_11__hash_nodeIiPvEEEEEEE8max_sizeB6v15007IS9_vEEyRKS9_ DATA
 0005:00001fec 0000000cH .pdata$_ZNKSt3__19allocatorIPNS_16__hash_node_baseIPNS_11__hash_nodeIiPvEEEEE8max_sizeB6v15007Ev DATA
 0005:00001ff8 0000000cH .pdata$_ZNSt3__117__compressed_pairIyNS_9allocatorIPNS_16__hash_node_baseIPNS_11__hash_nodeIiPvEEEEEEE5firstB6v15007Ev DATA
 0005:00002004 0000000cH .pdata$_ZNSt3__112__libcpp_clzB6v15007Ey DATA
 0005:00002010 0000000cH .pdata$_ZNSt3__13maxB6v15007IyNS_6__lessIyyEEEERKT_S5_S5_T0_ DATA
 0005:0000201c 0000000cH .pdata$_ZNSt3__122__compressed_pair_elemINS_16__hash_node_baseIPNS_11__hash_nodeIiPvEEEELi0ELb0EE5__getB6v15007Ev DATA
 0005:00002028 0000000cH .pdata$_ZNKSt3__117__compressed_pairIPNS_11__hash_nodeIiPvEENS_22__hash_node_destructorINS_9allocatorIS3_EEEEE5firstB6v15007Ev DATA
 0005:00002034 0000000cH .pdata$_ZNKSt3__122__compressed_pair_elemIPNS_11__hash_nodeIiPvEELi0ELb0EE5__getB6v15007Ev DATA
 0005:00002040 0000000cH .pdata$_ZNSt3__117__compressed_pairIPNS_11__hash_nodeIiPvEENS_22__hash_node_destructorINS_9allocatorIS3_EEEEE5firstB6v15007Ev DATA
 0005:0000204c 0000000cH .pdata$_ZNSt3__122__compressed_pair_elemIPNS_11__hash_nodeIiPvEELi0ELb0EE5__getB6v15007Ev DATA
 0005:00002058 0000000cH .pdata$_ZNSt3__110unique_ptrINS_11__hash_nodeIiPvEENS_22__hash_node_destructorINS_9allocatorIS3_EEEEED2B6v15007Ev DATA
 0005:00002064 0000000cH .pdata$_ZNSt3__110unique_ptrINS_11__hash_nodeIiPvEENS_22__hash_node_destructorINS_9allocatorIS3_EEEEE5resetB6v15007EPS3_ DATA
 0005:00002070 0000000cH .pdata$_ZNSt3__122__hash_node_destructorINS_9allocatorINS_11__hash_nodeIiPvEEEEEclB6v15007EPS4_ DATA
 0005:0000207c 0000000cH .pdata$_ZNSt3__116allocator_traitsINS_9allocatorINS_11__hash_nodeIiPvEEEEE7destroyB6v15007IivvEEvRS5_PT_ DATA
 0005:00002088 0000000cH .pdata$_ZNSt3__116allocator_traitsINS_9allocatorINS_11__hash_nodeIiPvEEEEE10deallocateB6v15007ERS5_PS4_y DATA
 0005:00002094 0000000cH .pdata$_ZNSt3__19allocatorINS_11__hash_nodeIiPvEEE10deallocateB6v15007EPS3_y DATA
 0005:000020a0 0000000cH .pdata$_ZNSt3__14pairINS_15__hash_iteratorIPNS_11__hash_nodeIiPvEEEEbEC2B6v15007IS6_RbLS3_0EEEOT_OT0_ DATA
 0005:000020ac 0000000cH .pdata$_ZNSt3__14pairINS_21__hash_const_iteratorIPNS_11__hash_nodeIiPvEEEEbEC2B6v15007INS_15__hash_iteratorIS5_EEbLS3_0EEEONS0_IT_T0_EE DATA
 0005:000020b8 0000000cH .pdata$_ZNSt3__112__hash_tableIiNS_4hashIiEENS_8equal_toIiEENS_9allocatorIiEEE14__erase_uniqueIiEEyRKT_ DATA
 0005:000020c4 0000000cH .pdata$_ZNSt3__1eqB6v15007ERKNS_15__hash_iteratorIPNS_11__hash_nodeIiPvEEEES7_ DATA
 0005:000020d0 0000000cH .pdata$_ZNSt3__112__hash_tableIiNS_4hashIiEENS_8equal_toIiEENS_9allocatorIiEEE5eraseENS_21__hash_const_iteratorIPNS_11__hash_nodeIiPvEEEE DATA
 0005:000020dc 0000000cH .pdata$_ZNSt3__115__hash_iteratorIPNS_11__hash_nodeIiPvEEEppB6v15007Ev DATA
 0005:000020e8 0000000cH .pdata$_ZNSt3__112__hash_tableIiNS_4hashIiEENS_8equal_toIiEENS_9allocatorIiEEE6removeENS_21__hash_const_iteratorIPNS_11__hash_nodeIiPvEEEE DATA
 0005:000020f4 0000000cH .pdata$_ZNSt3__110__function6__baseIFbiiEEC2B6v15007Ev DATA
 0005:00002100 0000000cH .pdata$_ZNSt3__110__function6__baseIFbiiEED2B6v15007Ev DATA
 0005:0000210c 0000000cH .pdata$_ZNSt3__110__function6__baseIFbiiEED1B6v15007Ev DATA
 0005:00002118 0000000cH .pdata$_ZNSt3__110__function6__baseIFbiiEED0B6v15007Ev DATA
 0005:00002124 0000000cH .pdata$_ZNSt3__16vectorIiNS_9allocatorIiEEEC1B6v15007ESt16initializer_listIiE DATA
 0005:00002130 0000000cH .pdata$_ZNSt3__17shuffleINS_11__wrap_iterIPiEERNS_23mersenne_twister_engineIjLy32ELy624ELy397ELy31ELj2567483615ELy11ELj4294967295ELy7ELj2636928640ELy15ELj4022730752ELy18ELj1812433253EEEEEvT_S7_OT0_ DATA
 0005:0000213c 0000000cH .pdata$_ZNSt3__16vectorIiNS_9allocatorIiEEE5beginB6v15007Ev DATA
 0005:00002148 0000000cH .pdata$_ZNSt3__16vectorIiNS_9allocatorIiEEE3endB6v15007Ev DATA
 0005:00002154 0000000cH .pdata$_ZNSt3__1neB6v15007IPiEEbRKNS_11__wrap_iterIT_EES6_ DATA
 0005:00002160 0000000cH .pdata$_ZNKSt3__111__wrap_iterIPiEdeB6v15007Ev DATA
 0005:0000216c 0000000cH .pdata$_ZNSt3__111__wrap_iterIPiEppB6v15007Ev DATA
 0005:00002178 0000000cH .pdata$_ZNSt3__16vectorIiNS_9allocatorIiEEEC2B6v15007ESt16initializer_listIiE DATA
 0005:00002184 0000000cH .pdata$_ZNKSt16initializer_listIiE4sizeB6v15007Ev DATA
 0005:00002190 0000000cH .pdata$_ZNSt3__16vectorIiNS_9allocatorIiEEE18__construct_at_endIPKiEENS_9enable_ifIXsr27__is_cpp17_forward_iteratorIT_EE5valueEvE4typeES8_S8_y DATA
 0005:0000219c 0000000cH .pdata$_ZNKSt16initializer_listIiE5beginB6v15007Ev DATA
 0005:000021a8 0000000cH .pdata$_ZNKSt16initializer_listIiE3endB6v15007Ev DATA
 0005:000021b4 0000000cH .pdata$_ZNSt3__130__uninitialized_allocator_copyB6v15007INS_9allocatorIiEEiiLPv0EEEPT0_RT_PKS4_S9_S5_ DATA
 0005:000021c0 0000000cH .pdata$_ZNSt3__14copyB6v15007IPKiPiEET0_T_S5_S4_ DATA
 0005:000021cc 0000000cH .pdata$_ZNSt3__16__copyB6v15007IPKiS2_PiLi0EEENS_4pairIT_T1_EES5_T0_S6_ DATA
 0005:000021d8 0000000cH .pdata$_ZNSt3__114__unwrap_rangeB6v15007IPKiS2_EENS_4pairIT0_S4_EET_S6_ DATA
 0005:000021e4 0000000cH .pdata$_ZNSt3__111__copy_implB6v15007IKiivEENS_4pairIPT_PT0_EES4_S4_S6_ DATA
 0005:000021f0 0000000cH .pdata$_ZNSt3__113__unwrap_iterB6v15007IPiNS_18__unwrap_iter_implIS1_Lb1EEELi0EEEDTclsrT0_8__unwrapclsr3stdE7declvalIT_EEEES5_ DATA
 0005:000021fc 0000000cH .pdata$_ZNSt3__19make_pairB6v15007IPKiPiEENS_4pairINS_18__unwrap_ref_decayIT_E4typeENS5_IT0_E4typeEEEOS6_OS9_ DATA
 0005:00002208 0000000cH .pdata$_ZNSt3__114__rewrap_rangeB6v15007IPKiS2_EET_S3_T0_ DATA
 0005:00002214 0000000cH .pdata$_ZNSt3__113__rewrap_iterB6v15007IPiS1_NS_18__unwrap_iter_implIS1_Lb1EEEEET_S4_T0_ DATA
 0005:00002220 0000000cH .pdata$_ZNSt3__19make_pairB6v15007IPKiS2_EENS_4pairINS_18__unwrap_ref_decayIT_E4typeENS4_IT0_E4typeEEEOS5_OS8_ DATA
 0005:0000222c 0000000cH .pdata$_ZNSt3__113__unwrap_iterB6v15007IPKiNS_18__unwrap_iter_implIS2_Lb1EEELi0EEEDTclsrT0_8__unwrapclsr3stdE7declvalIT_EEEES6_ DATA
 0005:00002238 0000000cH .pdata$_ZNSt3__14pairIPKiS2_EC1B6v15007IS2_S2_LPv0EEEOT_OT0_ DATA
 0005:00002244 0000000cH .pdata$_ZNSt3__14pairIPKiS2_EC2B6v15007IS2_S2_LPv0EEEOT_OT0_ DATA
 0005:00002250 0000000cH .pdata$_ZNSt3__118__unwrap_iter_implIPKiLb1EE8__unwrapB6v15007ES2_ DATA
 0005:0000225c 0000000cH .pdata$_ZNSt3__112__to_addressB6v15007IKiEEPT_S3_ DATA
 0005:00002268 0000000cH .pdata$_ZNSt3__118__unwrap_iter_implIPiLb1EE8__unwrapB6v15007ES1_ DATA
